	.section	__TEXT,__text,regular,pure_instructions
	.build_version macos, 13, 0	sdk_version 13, 3
	.globl	__Z6canvasRN3map6MapperE        ; -- Begin function _Z6canvasRN3map6MapperE
	.p2align	2
__Z6canvasRN3map6MapperE:               ; @_Z6canvasRN3map6MapperE
Lfunc_begin0:
	.cfi_startproc
	.cfi_personality 155, ___gxx_personality_v0
	.cfi_lsda 16, Lexception0
; %bb.0:
	stp	x28, x27, [sp, #-32]!           ; 16-byte Folded Spill
	.cfi_def_cfa_offset 32
	stp	x29, x30, [sp, #16]             ; 16-byte Folded Spill
	add	x29, sp, #16
	.cfi_def_cfa w29, 16
	.cfi_offset w30, -8
	.cfi_offset w29, -16
	.cfi_offset w27, -24
	.cfi_offset w28, -32
	sub	sp, sp, #512
	stur	x0, [x29, #-24]
	ldur	x0, [x29, #-24]
	adrp	x8, __ZN3map3clrL5WHITEE@PAGE
	add	x8, x8, __ZN3map3clrL5WHITEE@PAGEOFF
	ldr	w9, [x8]
	stur	w9, [x29, #-32]
	ldrh	w8, [x8, #4]
	sturh	w8, [x29, #-28]
	ldur	w8, [x29, #-32]
	stur	w8, [x29, #-40]
	ldurh	w8, [x29, #-28]
	sturh	w8, [x29, #-36]
	ldur	x1, [x29, #-40]
	bl	__ZN3map6Mapper4fillENS_3clr3RGBE
	adrp	x8, _height@PAGE
	ldr	w8, [x8, _height@PAGEOFF]
	mov	w9, #13
	sdiv	w8, w8, w9
	add	w8, w8, #1
	stur	w8, [x29, #-44]
	adrp	x8, _width@PAGE
	ldr	w8, [x8, _width@PAGEOFF]
	mov	w9, #2
	sdiv	w8, w8, w9
	scvtf	d0, w8
	stur	d0, [x29, #-56]
	stur	wzr, [x29, #-60]
	b	LBB0_1
LBB0_1:                                 ; =>This Inner Loop Header: Depth=1
	ldur	w8, [x29, #-60]
	subs	w8, w8, #7
	cset	w8, ge
	tbnz	w8, #0, LBB0_6
	b	LBB0_2
LBB0_2:                                 ;   in Loop: Header=BB0_1 Depth=1
	ldur	d0, [x29, #-56]
	ldur	w8, [x29, #-60]
	lsl	w8, w8, #1
	ldur	w9, [x29, #-44]
	mul	w8, w8, w9
	scvtf	d1, w8
	ldur	s3, [x29, #-44]
                                        ; implicit-def: $d2
	fmov	s2, s3
	sshll.2d	v2, v2, #0
                                        ; kill: def $d2 killed $d2 killed $q2
	scvtf	d2, d2
	fmov	d3, #2.00000000
	fdiv	d2, d2, d3
	fadd	d1, d1, d2
	sub	x0, x29, #160
	bl	__ZN3map5PointC1Edd
	adrp	x8, _width@PAGE
	ldr	w8, [x8, _width@PAGEOFF]
	str	w8, [sp, #32]                   ; 4-byte Folded Spill
	ldur	w8, [x29, #-44]
	str	w8, [sp, #36]                   ; 4-byte Folded Spill
	sub	x0, x29, #176
	str	x0, [sp, #40]                   ; 8-byte Folded Spill
	mov	w1, #200
	mov	w3, #0
	mov	x2, x3
	bl	__ZN3map3clr3RGBC1Eiii
	ldr	w1, [sp, #32]                   ; 4-byte Folded Reload
	ldr	w2, [sp, #36]                   ; 4-byte Folded Reload
	ldr	x3, [sp, #40]                   ; 8-byte Folded Reload
	mov	w8, #1
	sturb	w8, [x29, #-170]
	stur	wzr, [x29, #-168]
	mov	w8, #-1
	stur	w8, [x29, #-164]
	ldur	d0, [x29, #-160]
	ldur	d1, [x29, #-152]
	sub	x0, x29, #144
	str	x0, [sp, #48]                   ; 8-byte Folded Spill
	bl	__ZN3map6shapes4RectC1ENS_5PointEiiONS1_4DataE
	ldr	x1, [sp, #48]                   ; 8-byte Folded Reload
	ldur	x0, [x29, #-24]
Ltmp10:
	bl	__ZN3map6Mapper4drawEPKNS_6shapes5ShapeE
Ltmp11:
	b	LBB0_3
LBB0_3:                                 ;   in Loop: Header=BB0_1 Depth=1
	sub	x0, x29, #144
	bl	__ZN3map6shapes4RectD1Ev
	b	LBB0_4
LBB0_4:                                 ;   in Loop: Header=BB0_1 Depth=1
	ldur	w8, [x29, #-60]
	add	w8, w8, #1
	stur	w8, [x29, #-60]
	b	LBB0_1
LBB0_5:
Ltmp12:
	mov	x8, x1
	stur	x0, [x29, #-184]
	stur	w8, [x29, #-188]
	sub	x0, x29, #144
	bl	__ZN3map6shapes4RectD1Ev
	b	LBB0_24
LBB0_6:
	adrp	x8, _width@PAGE
	ldr	s1, [x8, _width@PAGEOFF]
                                        ; implicit-def: $d0
	fmov	s0, s1
	sshll.2d	v0, v0, #0
                                        ; kill: def $d0 killed $d0 killed $q0
	scvtf	d0, d0
	fmov	d1, #2.50000000
	fdiv	d0, d0, d1
	stur	d0, [x29, #-200]
	ldur	w9, [x29, #-44]
	mov	w8, #7
	mul	w8, w8, w9
	scvtf	d0, w8
	stur	d0, [x29, #-208]
	add	x0, sp, #224
	bl	__ZN3map5PointC1Ev
	ldur	d0, [x29, #-200]
	fcvtzs	w8, d0
	str	w8, [sp, #8]                    ; 4-byte Folded Spill
	ldur	d0, [x29, #-208]
	fcvtzs	w8, d0
	str	w8, [sp, #12]                   ; 4-byte Folded Spill
	add	x0, sp, #208
	str	x0, [sp, #16]                   ; 8-byte Folded Spill
	mov	w2, #0
	mov	x1, x2
	mov	w3, #150
	bl	__ZN3map3clr3RGBC1Eiii
	ldr	w1, [sp, #8]                    ; 4-byte Folded Reload
	ldr	w2, [sp, #12]                   ; 4-byte Folded Reload
	ldr	x3, [sp, #16]                   ; 8-byte Folded Reload
	mov	w8, #1
	strb	w8, [sp, #214]
	str	wzr, [sp, #216]
	mov	w8, #5
	str	w8, [sp, #220]
	ldr	d0, [sp, #224]
	ldr	d1, [sp, #232]
	add	x0, sp, #240
	str	x0, [sp, #24]                   ; 8-byte Folded Spill
	bl	__ZN3map6shapes4RectC1ENS_5PointEiiONS1_4DataE
	ldr	x1, [sp, #24]                   ; 8-byte Folded Reload
	ldur	x0, [x29, #-24]
Ltmp0:
	bl	__ZN3map6Mapper4drawEPKNS_6shapes5ShapeE
Ltmp1:
	b	LBB0_7
LBB0_7:
	ldur	d0, [x29, #-200]
	fcvtzs	w8, d0
	str	w8, [sp, #204]
	ldur	d0, [x29, #-208]
	fmov	d1, #5.00000000
	fsub	d0, d0, d1
	fcvtzs	w8, d0
	str	w8, [sp, #200]
	mov	w8, #1
	strb	w8, [sp, #199]
	str	wzr, [sp, #192]
	b	LBB0_8
LBB0_8:                                 ; =>This Loop Header: Depth=1
                                        ;     Child Loop BB0_10 Depth 2
	ldr	w8, [sp, #192]
	subs	w8, w8, #9
	cset	w8, ge
	tbnz	w8, #0, LBB0_22
	b	LBB0_9
LBB0_9:                                 ;   in Loop: Header=BB0_8 Depth=1
	str	wzr, [sp, #188]
	b	LBB0_10
LBB0_10:                                ;   Parent Loop BB0_8 Depth=1
                                        ; =>  This Inner Loop Header: Depth=2
	ldr	w8, [sp, #188]
	subs	w8, w8, #11
	cset	w8, ge
	tbnz	w8, #0, LBB0_20
	b	LBB0_11
LBB0_11:                                ;   in Loop: Header=BB0_10 Depth=2
	ldrb	w8, [sp, #199]
	tbz	w8, #0, LBB0_18
	b	LBB0_12
LBB0_12:                                ;   in Loop: Header=BB0_10 Depth=2
	ldr	s1, [sp, #188]
                                        ; implicit-def: $d0
	fmov	s0, s1
	sshll.2d	v0, v0, #0
                                        ; kill: def $d0 killed $d0 killed $q0
	scvtf	d0, d0
	fmov	d1, #11.00000000
	fdiv	d0, d0, d1
	ldr	s2, [sp, #204]
                                        ; implicit-def: $d1
	fmov	s1, s2
	sshll.2d	v1, v1, #0
                                        ; kill: def $d1 killed $d1 killed $q1
	scvtf	d1, d1
	fmov	d2, #25.00000000
	fmadd	d0, d0, d1, d2
	str	d0, [sp, #176]
	ldr	s1, [sp, #192]
                                        ; implicit-def: $d0
	fmov	s0, s1
	sshll.2d	v0, v0, #0
                                        ; kill: def $d0 killed $d0 killed $q0
	scvtf	d0, d0
	fmov	d1, #9.00000000
	fdiv	d0, d0, d1
	ldr	s3, [sp, #200]
                                        ; implicit-def: $d1
	fmov	s1, s3
	sshll.2d	v1, v1, #0
                                        ; kill: def $d1 killed $d1 killed $q1
	scvtf	d1, d1
	fmadd	d0, d0, d1, d2
	str	d0, [sp, #168]
	ldr	d0, [sp, #176]
	ldr	d1, [sp, #168]
Ltmp2:
	add	x0, sp, #72
	bl	__ZN3map5PointC1Edd
Ltmp3:
	b	LBB0_13
LBB0_13:                                ;   in Loop: Header=BB0_10 Depth=2
	adrp	x8, __ZN3map3clrL5WHITEE@PAGE
	add	x8, x8, __ZN3map3clrL5WHITEE@PAGEOFF
	ldr	w9, [x8]
	add	x2, sp, #56
	str	w9, [sp, #56]
	ldrh	w8, [x8, #4]
	strh	w8, [sp, #60]
	mov	w8, #1
	strb	w8, [sp, #62]
	strb	wzr, [sp, #63]
	str	wzr, [sp, #64]
	mov	w8, #-1
	str	w8, [sp, #68]
	ldr	d0, [sp, #72]
	ldr	d1, [sp, #80]
Ltmp4:
	add	x0, sp, #88
	mov	w1, #10
	bl	__ZN3map6shapes6CircleC1ENS_5PointEiONS1_4DataE
Ltmp5:
	b	LBB0_14
LBB0_14:                                ;   in Loop: Header=BB0_10 Depth=2
	ldur	x0, [x29, #-24]
Ltmp7:
	add	x1, sp, #88
	bl	__ZN3map6Mapper4drawEPKNS_6shapes5ShapeE
Ltmp8:
	b	LBB0_15
LBB0_15:                                ;   in Loop: Header=BB0_10 Depth=2
	add	x0, sp, #88
	bl	__ZN3map6shapes6CircleD1Ev
	b	LBB0_18
LBB0_16:
Ltmp6:
	mov	x8, x1
	stur	x0, [x29, #-184]
	stur	w8, [x29, #-188]
	b	LBB0_23
LBB0_17:
Ltmp9:
	mov	x8, x1
	stur	x0, [x29, #-184]
	stur	w8, [x29, #-188]
	add	x0, sp, #88
	bl	__ZN3map6shapes6CircleD1Ev
	b	LBB0_23
LBB0_18:                                ;   in Loop: Header=BB0_10 Depth=2
	b	LBB0_19
LBB0_19:                                ;   in Loop: Header=BB0_10 Depth=2
	ldr	w8, [sp, #188]
	add	w8, w8, #1
	str	w8, [sp, #188]
	ldrb	w8, [sp, #199]
	mov	w9, #1
	eor	w8, w8, #0x1
	and	w8, w8, w9
	strb	w8, [sp, #199]
	b	LBB0_10
LBB0_20:                                ;   in Loop: Header=BB0_8 Depth=1
	b	LBB0_21
LBB0_21:                                ;   in Loop: Header=BB0_8 Depth=1
	ldr	w8, [sp, #192]
	add	w8, w8, #1
	str	w8, [sp, #192]
	b	LBB0_8
LBB0_22:
	add	x0, sp, #240
	bl	__ZN3map6shapes4RectD1Ev
	add	sp, sp, #512
	ldp	x29, x30, [sp, #16]             ; 16-byte Folded Reload
	ldp	x28, x27, [sp], #32             ; 16-byte Folded Reload
	ret
LBB0_23:
	add	x0, sp, #240
	bl	__ZN3map6shapes4RectD1Ev
	b	LBB0_24
LBB0_24:
	ldur	x0, [x29, #-184]
	bl	__Unwind_Resume
Lfunc_end0:
	.cfi_endproc
	.section	__TEXT,__gcc_except_tab
	.p2align	2
GCC_except_table0:
Lexception0:
	.byte	255                             ; @LPStart Encoding = omit
	.byte	255                             ; @TType Encoding = omit
	.byte	1                               ; Call site Encoding = uleb128
	.uleb128 Lcst_end0-Lcst_begin0
Lcst_begin0:
	.uleb128 Lfunc_begin0-Lfunc_begin0      ; >> Call Site 1 <<
	.uleb128 Ltmp10-Lfunc_begin0            ;   Call between Lfunc_begin0 and Ltmp10
	.byte	0                               ;     has no landing pad
	.byte	0                               ;   On action: cleanup
	.uleb128 Ltmp10-Lfunc_begin0            ; >> Call Site 2 <<
	.uleb128 Ltmp11-Ltmp10                  ;   Call between Ltmp10 and Ltmp11
	.uleb128 Ltmp12-Lfunc_begin0            ;     jumps to Ltmp12
	.byte	0                               ;   On action: cleanup
	.uleb128 Ltmp11-Lfunc_begin0            ; >> Call Site 3 <<
	.uleb128 Ltmp0-Ltmp11                   ;   Call between Ltmp11 and Ltmp0
	.byte	0                               ;     has no landing pad
	.byte	0                               ;   On action: cleanup
	.uleb128 Ltmp0-Lfunc_begin0             ; >> Call Site 4 <<
	.uleb128 Ltmp5-Ltmp0                    ;   Call between Ltmp0 and Ltmp5
	.uleb128 Ltmp6-Lfunc_begin0             ;     jumps to Ltmp6
	.byte	0                               ;   On action: cleanup
	.uleb128 Ltmp7-Lfunc_begin0             ; >> Call Site 5 <<
	.uleb128 Ltmp8-Ltmp7                    ;   Call between Ltmp7 and Ltmp8
	.uleb128 Ltmp9-Lfunc_begin0             ;     jumps to Ltmp9
	.byte	0                               ;   On action: cleanup
	.uleb128 Ltmp8-Lfunc_begin0             ; >> Call Site 6 <<
	.uleb128 Lfunc_end0-Ltmp8               ;   Call between Ltmp8 and Lfunc_end0
	.byte	0                               ;     has no landing pad
	.byte	0                               ;   On action: cleanup
Lcst_end0:
	.p2align	2
                                        ; -- End function
	.section	__TEXT,__text,regular,pure_instructions
	.globl	__ZN3map5PointC1Edd             ; -- Begin function _ZN3map5PointC1Edd
	.weak_def_can_be_hidden	__ZN3map5PointC1Edd
	.p2align	2
__ZN3map5PointC1Edd:                    ; @_ZN3map5PointC1Edd
	.cfi_startproc
; %bb.0:
	sub	sp, sp, #48
	.cfi_def_cfa_offset 48
	stp	x29, x30, [sp, #32]             ; 16-byte Folded Spill
	add	x29, sp, #32
	.cfi_def_cfa w29, 16
	.cfi_offset w30, -8
	.cfi_offset w29, -16
	stur	x0, [x29, #-8]
	str	d0, [sp, #16]
	str	d1, [sp, #8]
	ldur	x0, [x29, #-8]
	str	x0, [sp]                        ; 8-byte Folded Spill
	ldr	d0, [sp, #16]
	ldr	d1, [sp, #8]
	bl	__ZN3map5PointC2Edd
	ldr	x0, [sp]                        ; 8-byte Folded Reload
	ldp	x29, x30, [sp, #32]             ; 16-byte Folded Reload
	add	sp, sp, #48
	ret
	.cfi_endproc
                                        ; -- End function
	.globl	__ZN3map3clr3RGBC1Eiii          ; -- Begin function _ZN3map3clr3RGBC1Eiii
	.weak_def_can_be_hidden	__ZN3map3clr3RGBC1Eiii
	.p2align	2
__ZN3map3clr3RGBC1Eiii:                 ; @_ZN3map3clr3RGBC1Eiii
	.cfi_startproc
; %bb.0:
	sub	sp, sp, #48
	.cfi_def_cfa_offset 48
	stp	x29, x30, [sp, #32]             ; 16-byte Folded Spill
	add	x29, sp, #32
	.cfi_def_cfa w29, 16
	.cfi_offset w30, -8
	.cfi_offset w29, -16
	stur	x0, [x29, #-8]
	stur	w1, [x29, #-12]
	str	w2, [sp, #16]
	str	w3, [sp, #12]
	ldur	x0, [x29, #-8]
	str	x0, [sp]                        ; 8-byte Folded Spill
	ldur	w1, [x29, #-12]
	ldr	w2, [sp, #16]
	ldr	w3, [sp, #12]
	bl	__ZN3map3clr3RGBC2Eiii
	ldr	x0, [sp]                        ; 8-byte Folded Reload
	ldp	x29, x30, [sp, #32]             ; 16-byte Folded Reload
	add	sp, sp, #48
	ret
	.cfi_endproc
                                        ; -- End function
	.globl	__ZN3map6shapes4RectD1Ev        ; -- Begin function _ZN3map6shapes4RectD1Ev
	.weak_def_can_be_hidden	__ZN3map6shapes4RectD1Ev
	.p2align	2
__ZN3map6shapes4RectD1Ev:               ; @_ZN3map6shapes4RectD1Ev
	.cfi_startproc
; %bb.0:
	sub	sp, sp, #32
	.cfi_def_cfa_offset 32
	stp	x29, x30, [sp, #16]             ; 16-byte Folded Spill
	add	x29, sp, #16
	.cfi_def_cfa w29, 16
	.cfi_offset w30, -8
	.cfi_offset w29, -16
	str	x0, [sp, #8]
	ldr	x0, [sp, #8]
	str	x0, [sp]                        ; 8-byte Folded Spill
	bl	__ZN3map6shapes4RectD2Ev
	ldr	x0, [sp]                        ; 8-byte Folded Reload
	ldp	x29, x30, [sp, #16]             ; 16-byte Folded Reload
	add	sp, sp, #32
	ret
	.cfi_endproc
                                        ; -- End function
	.globl	__ZN3map5PointC1Ev              ; -- Begin function _ZN3map5PointC1Ev
	.weak_def_can_be_hidden	__ZN3map5PointC1Ev
	.p2align	2
__ZN3map5PointC1Ev:                     ; @_ZN3map5PointC1Ev
	.cfi_startproc
; %bb.0:
	sub	sp, sp, #32
	.cfi_def_cfa_offset 32
	stp	x29, x30, [sp, #16]             ; 16-byte Folded Spill
	add	x29, sp, #16
	.cfi_def_cfa w29, 16
	.cfi_offset w30, -8
	.cfi_offset w29, -16
	str	x0, [sp, #8]
	ldr	x0, [sp, #8]
	str	x0, [sp]                        ; 8-byte Folded Spill
	bl	__ZN3map5PointC2Ev
	ldr	x0, [sp]                        ; 8-byte Folded Reload
	ldp	x29, x30, [sp, #16]             ; 16-byte Folded Reload
	add	sp, sp, #32
	ret
	.cfi_endproc
                                        ; -- End function
	.globl	__ZN3map6shapes6CircleD1Ev      ; -- Begin function _ZN3map6shapes6CircleD1Ev
	.weak_def_can_be_hidden	__ZN3map6shapes6CircleD1Ev
	.p2align	2
__ZN3map6shapes6CircleD1Ev:             ; @_ZN3map6shapes6CircleD1Ev
	.cfi_startproc
; %bb.0:
	sub	sp, sp, #32
	.cfi_def_cfa_offset 32
	stp	x29, x30, [sp, #16]             ; 16-byte Folded Spill
	add	x29, sp, #16
	.cfi_def_cfa w29, 16
	.cfi_offset w30, -8
	.cfi_offset w29, -16
	str	x0, [sp, #8]
	ldr	x0, [sp, #8]
	str	x0, [sp]                        ; 8-byte Folded Spill
	bl	__ZN3map6shapes6CircleD2Ev
	ldr	x0, [sp]                        ; 8-byte Folded Reload
	ldp	x29, x30, [sp, #16]             ; 16-byte Folded Reload
	add	sp, sp, #32
	ret
	.cfi_endproc
                                        ; -- End function
	.globl	__Z5setupiPPcRNSt3__112basic_stringIcNS1_11char_traitsIcEENS1_9allocatorIcEEEERiS9_S9_RN3map8LoadtypeEb ; -- Begin function _Z5setupiPPcRNSt3__112basic_stringIcNS1_11char_traitsIcEENS1_9allocatorIcEEEERiS9_S9_RN3map8LoadtypeEb
	.p2align	2
__Z5setupiPPcRNSt3__112basic_stringIcNS1_11char_traitsIcEENS1_9allocatorIcEEEERiS9_S9_RN3map8LoadtypeEb: ; @_Z5setupiPPcRNSt3__112basic_stringIcNS1_11char_traitsIcEENS1_9allocatorIcEEEERiS9_S9_RN3map8LoadtypeEb
Lfunc_begin1:
	.cfi_startproc
	.cfi_personality 155, ___gxx_personality_v0
	.cfi_lsda 16, Lexception1
; %bb.0:
	sub	sp, sp, #496
	.cfi_def_cfa_offset 496
	stp	x28, x27, [sp, #464]            ; 16-byte Folded Spill
	stp	x29, x30, [sp, #480]            ; 16-byte Folded Spill
	add	x29, sp, #480
	.cfi_def_cfa w29, 16
	.cfi_offset w30, -8
	.cfi_offset w29, -16
	.cfi_offset w27, -24
	.cfi_offset w28, -32
	adrp	x8, __ZNSt3__14coutE@GOTPAGE
	ldr	x8, [x8, __ZNSt3__14coutE@GOTPAGEOFF]
	str	x8, [sp, #64]                   ; 8-byte Folded Spill
	adrp	x8, __ZNSt3__14endlIcNS_11char_traitsIcEEEERNS_13basic_ostreamIT_T0_EES7_@GOTPAGE
	ldr	x8, [x8, __ZNSt3__14endlIcNS_11char_traitsIcEEEERNS_13basic_ostreamIT_T0_EES7_@GOTPAGEOFF]
	str	x8, [sp, #72]                   ; 8-byte Folded Spill
	stur	w0, [x29, #-20]
	stur	x1, [x29, #-32]
	stur	x2, [x29, #-40]
	stur	x3, [x29, #-48]
	stur	x4, [x29, #-56]
	stur	x5, [x29, #-64]
	stur	x6, [x29, #-72]
	mov	w8, #1
	and	w8, w7, w8
	sturb	w8, [x29, #-73]
	ldur	x8, [x29, #-32]
	ldr	x1, [x8, #8]
	sub	x0, x29, #96
	bl	__ZNSt3__117basic_string_viewIcNS_11char_traitsIcEEEC1B6v15006EPKc
	sub	x0, x29, #112
	adrp	x1, l_.str@PAGE
	add	x1, x1, l_.str@PAGEOFF
	bl	__ZNSt3__117basic_string_viewIcNS_11char_traitsIcEEEC1B6v15006EPKc
	ldur	w8, [x29, #-20]
	subs	w8, w8, #1
	cset	w8, le
	tbnz	w8, #0, LBB6_4
	b	LBB6_1
LBB6_1:
	ldur	q0, [x29, #-96]
	stur	q0, [x29, #-128]
	sub	x0, x29, #144
	adrp	x1, l_.str.1@PAGE
	add	x1, x1, l_.str.1@PAGEOFF
	bl	__ZNSt3__117basic_string_viewIcNS_11char_traitsIcEEEC1B6v15006EPKc
	ldur	x0, [x29, #-128]
	ldur	x1, [x29, #-120]
	ldur	x2, [x29, #-144]
	ldur	x3, [x29, #-136]
	bl	__ZNSt3__1eqB6v15006IcNS_11char_traitsIcEELi1EEEbNS_17basic_string_viewIT_T0_EENS_11common_typeIJS6_EE4typeE
	tbnz	w0, #0, LBB6_3
	b	LBB6_2
LBB6_2:
	ldur	q0, [x29, #-96]
	stur	q0, [x29, #-160]
	sub	x0, x29, #176
	adrp	x1, l_.str.2@PAGE
	add	x1, x1, l_.str.2@PAGEOFF
	bl	__ZNSt3__117basic_string_viewIcNS_11char_traitsIcEEEC1B6v15006EPKc
	ldur	x0, [x29, #-160]
	ldur	x1, [x29, #-152]
	ldur	x2, [x29, #-176]
	ldur	x3, [x29, #-168]
	bl	__ZNSt3__1eqB6v15006IcNS_11char_traitsIcEELi1EEEbNS_17basic_string_viewIT_T0_EENS_11common_typeIJS6_EE4typeE
	tbz	w0, #0, LBB6_4
	b	LBB6_3
LBB6_3:
	ldur	x9, [x29, #-72]
	mov	w8, #1
	str	w8, [x9]
	b	LBB6_4
LBB6_4:
	ldur	w8, [x29, #-20]
	subs	w8, w8, #3
	cset	w8, le
	tbnz	w8, #0, LBB6_22
	b	LBB6_5
LBB6_5:
	ldur	x8, [x29, #-32]
	ldr	x1, [x8, #16]
	sub	x0, x29, #192
	bl	__ZNSt3__117basic_string_viewIcNS_11char_traitsIcEEEC1B6v15006EPKc
	ldur	q0, [x29, #-192]
	stur	q0, [x29, #-112]
	ldur	x8, [x29, #-32]
	ldr	x1, [x8, #24]
	ldur	x0, [x29, #-40]
	bl	__ZNSt3__112basic_stringIcNS_11char_traitsIcEENS_9allocatorIcEEEaSB6v15006EPKc
	ldur	q0, [x29, #-112]
	stur	q0, [x29, #-208]
	sub	x0, x29, #224
	adrp	x1, l_.str.3@PAGE
	add	x1, x1, l_.str.3@PAGEOFF
	bl	__ZNSt3__117basic_string_viewIcNS_11char_traitsIcEEEC1B6v15006EPKc
	ldur	x0, [x29, #-208]
	ldur	x1, [x29, #-200]
	ldur	x2, [x29, #-224]
	ldur	x3, [x29, #-216]
	bl	__ZNSt3__1eqB6v15006IcNS_11char_traitsIcEELi1EEEbNS_17basic_string_viewIT_T0_EENS_11common_typeIJS6_EE4typeE
	tbz	w0, #0, LBB6_17
	b	LBB6_6
LBB6_6:
	ldur	w8, [x29, #-20]
	subs	w8, w8, #4
	cset	w8, gt
	tbnz	w8, #0, LBB6_8
	b	LBB6_7
LBB6_7:
	adrp	x0, l___func__._Z5setupiPPcRNSt3__112basic_stringIcNS1_11char_traitsIcEENS1_9allocatorIcEEEERiS9_S9_RN3map8LoadtypeEb@PAGE
	add	x0, x0, l___func__._Z5setupiPPcRNSt3__112basic_stringIcNS1_11char_traitsIcEENS1_9allocatorIcEEEERiS9_S9_RN3map8LoadtypeEb@PAGEOFF
	adrp	x1, l_.str.4@PAGE
	add	x1, x1, l_.str.4@PAGEOFF
	mov	w2, #31
	adrp	x3, l_.str.5@PAGE
	add	x3, x3, l_.str.5@PAGEOFF
	bl	___assert_rtn
LBB6_8:
	b	LBB6_9
LBB6_9:
	ldur	x8, [x29, #-32]
	ldr	x1, [x8, #48]
	add	x0, sp, #232
	str	x0, [sp, #48]                   ; 8-byte Folded Spill
	bl	__ZNSt3__112basic_stringIcNS_11char_traitsIcEENS_9allocatorIcEEEC1B6v15006IDnEEPKc
	ldr	x0, [sp, #48]                   ; 8-byte Folded Reload
Ltmp13:
	mov	x1, #0
	mov	w2, #10
	bl	__ZNSt3__14stoiERKNS_12basic_stringIcNS_11char_traitsIcEENS_9allocatorIcEEEEPmi
	str	w0, [sp, #60]                   ; 4-byte Folded Spill
Ltmp14:
	b	LBB6_10
LBB6_10:
	ldr	w8, [sp, #60]                   ; 4-byte Folded Reload
	ldur	x9, [x29, #-64]
	str	w8, [x9]
	add	x0, sp, #232
	bl	__ZNSt3__112basic_stringIcNS_11char_traitsIcEENS_9allocatorIcEEED1Ev
	ldur	x8, [x29, #-64]
	ldr	w8, [x8]
	subs	w8, w8, #0
	cset	w8, ne
	tbnz	w8, #0, LBB6_13
	b	LBB6_11
LBB6_11:
	ldur	x9, [x29, #-64]
	mov	w8, #24
	str	w8, [x9]
	b	LBB6_13
LBB6_12:
Ltmp15:
	mov	x8, x1
	str	x0, [sp, #224]
	str	w8, [sp, #220]
	add	x0, sp, #232
	bl	__ZNSt3__112basic_stringIcNS_11char_traitsIcEENS_9allocatorIcEEED1Ev
	b	LBB6_39
LBB6_13:
	ldur	x0, [x29, #-40]
	adrp	x1, l_.str.6@PAGE
	add	x1, x1, l_.str.6@PAGEOFF
	bl	__ZNSt3__1eqB6v15006IcNS_11char_traitsIcEENS_9allocatorIcEEEEbRKNS_12basic_stringIT_T0_T1_EEPKS6_
	tbz	w0, #0, LBB6_15
	b	LBB6_14
LBB6_14:
	ldur	x0, [x29, #-40]
	adrp	x1, l_.str.7@PAGE
	add	x1, x1, l_.str.7@PAGEOFF
	bl	__ZNSt3__112basic_stringIcNS_11char_traitsIcEENS_9allocatorIcEEEaSB6v15006EPKc
	b	LBB6_16
LBB6_15:
	ldur	x0, [x29, #-40]
	add	x8, sp, #192
	str	x8, [sp, #40]                   ; 8-byte Folded Spill
	mov	x1, #3
	mov	x2, #-1
	bl	__ZNKSt3__112basic_stringIcNS_11char_traitsIcEENS_9allocatorIcEEE6substrB6v15006Emm
	ldr	x1, [sp, #40]                   ; 8-byte Folded Reload
	ldur	x0, [x29, #-40]
	bl	__ZNSt3__112basic_stringIcNS_11char_traitsIcEENS_9allocatorIcEEEaSB6v15006EOS5_
	ldr	x0, [sp, #40]                   ; 8-byte Folded Reload
	bl	__ZNSt3__112basic_stringIcNS_11char_traitsIcEENS_9allocatorIcEEED1Ev
	b	LBB6_16
LBB6_16:
	b	LBB6_21
LBB6_17:
	ldur	x0, [x29, #-40]
	adrp	x1, l_.str.6@PAGE
	add	x1, x1, l_.str.6@PAGEOFF
	bl	__ZNSt3__1eqB6v15006IcNS_11char_traitsIcEENS_9allocatorIcEEEEbRKNS_12basic_stringIT_T0_T1_EEPKS6_
	tbz	w0, #0, LBB6_19
	b	LBB6_18
LBB6_18:
	ldur	x0, [x29, #-40]
	adrp	x1, l_.str.8@PAGE
	add	x1, x1, l_.str.8@PAGEOFF
	bl	__ZNSt3__112basic_stringIcNS_11char_traitsIcEENS_9allocatorIcEEEaSB6v15006EPKc
	b	LBB6_20
LBB6_19:
	ldur	x0, [x29, #-40]
	add	x8, sp, #168
	str	x8, [sp, #32]                   ; 8-byte Folded Spill
	mov	x1, #3
	mov	x2, #-1
	bl	__ZNKSt3__112basic_stringIcNS_11char_traitsIcEENS_9allocatorIcEEE6substrB6v15006Emm
	ldr	x1, [sp, #32]                   ; 8-byte Folded Reload
	ldur	x0, [x29, #-40]
	bl	__ZNSt3__112basic_stringIcNS_11char_traitsIcEENS_9allocatorIcEEEaSB6v15006EOS5_
	ldr	x0, [sp, #32]                   ; 8-byte Folded Reload
	bl	__ZNSt3__112basic_stringIcNS_11char_traitsIcEENS_9allocatorIcEEED1Ev
	b	LBB6_20
LBB6_20:
	b	LBB6_21
LBB6_21:
	b	LBB6_22
LBB6_22:
	ldur	w8, [x29, #-20]
	subs	w8, w8, #5
	cset	w8, le
	tbnz	w8, #0, LBB6_32
	b	LBB6_23
LBB6_23:
	ldur	x8, [x29, #-32]
	ldr	x1, [x8, #32]
	add	x0, sp, #144
	str	x0, [sp, #16]                   ; 8-byte Folded Spill
	bl	__ZNSt3__112basic_stringIcNS_11char_traitsIcEENS_9allocatorIcEEEC1B6v15006IDnEEPKc
	ldr	x0, [sp, #16]                   ; 8-byte Folded Reload
Ltmp16:
	mov	x1, #0
	mov	w2, #10
	bl	__ZNSt3__14stoiERKNS_12basic_stringIcNS_11char_traitsIcEENS_9allocatorIcEEEEPmi
	str	w0, [sp, #28]                   ; 4-byte Folded Spill
Ltmp17:
	b	LBB6_24
LBB6_24:
	ldr	w8, [sp, #28]                   ; 4-byte Folded Reload
	ldur	x9, [x29, #-48]
	str	w8, [x9]
	add	x0, sp, #144
	bl	__ZNSt3__112basic_stringIcNS_11char_traitsIcEENS_9allocatorIcEEED1Ev
	ldur	x8, [x29, #-32]
	ldr	x1, [x8, #40]
	add	x0, sp, #120
	str	x0, [sp]                        ; 8-byte Folded Spill
	bl	__ZNSt3__112basic_stringIcNS_11char_traitsIcEENS_9allocatorIcEEEC1B6v15006IDnEEPKc
	ldr	x0, [sp]                        ; 8-byte Folded Reload
Ltmp19:
	mov	x1, #0
	mov	w2, #10
	bl	__ZNSt3__14stoiERKNS_12basic_stringIcNS_11char_traitsIcEENS_9allocatorIcEEEEPmi
	str	w0, [sp, #12]                   ; 4-byte Folded Spill
Ltmp20:
	b	LBB6_25
LBB6_25:
	ldr	w8, [sp, #12]                   ; 4-byte Folded Reload
	ldur	x9, [x29, #-56]
	str	w8, [x9]
	add	x0, sp, #120
	bl	__ZNSt3__112basic_stringIcNS_11char_traitsIcEENS_9allocatorIcEEED1Ev
	ldur	x8, [x29, #-48]
	ldr	w8, [x8]
	subs	w8, w8, #0
	cset	w8, ne
	tbnz	w8, #0, LBB6_29
	b	LBB6_26
LBB6_26:
	ldur	x9, [x29, #-48]
	mov	w8, #500
	str	w8, [x9]
	b	LBB6_29
LBB6_27:
Ltmp18:
	mov	x8, x1
	str	x0, [sp, #224]
	str	w8, [sp, #220]
	add	x0, sp, #144
	bl	__ZNSt3__112basic_stringIcNS_11char_traitsIcEENS_9allocatorIcEEED1Ev
	b	LBB6_39
LBB6_28:
Ltmp21:
	mov	x8, x1
	str	x0, [sp, #224]
	str	w8, [sp, #220]
	add	x0, sp, #120
	bl	__ZNSt3__112basic_stringIcNS_11char_traitsIcEENS_9allocatorIcEEED1Ev
	b	LBB6_39
LBB6_29:
	ldur	x8, [x29, #-56]
	ldr	w8, [x8]
	subs	w8, w8, #0
	cset	w8, ne
	tbnz	w8, #0, LBB6_31
	b	LBB6_30
LBB6_30:
	ldur	x9, [x29, #-56]
	mov	w8, #500
	str	w8, [x9]
	b	LBB6_31
LBB6_31:
	b	LBB6_32
LBB6_32:
	ldurb	w8, [x29, #-73]
	tbz	w8, #0, LBB6_38
	b	LBB6_33
LBB6_33:
	ldr	x0, [sp, #64]                   ; 8-byte Folded Reload
	adrp	x1, l_.str.9@PAGE
	add	x1, x1, l_.str.9@PAGEOFF
	bl	__ZNSt3__1lsINS_11char_traitsIcEEEERNS_13basic_ostreamIcT_EES6_PKc
	ldur	w1, [x29, #-20]
	bl	__ZNSt3__113basic_ostreamIcNS_11char_traitsIcEEElsEi
	ldr	x1, [sp, #72]                   ; 8-byte Folded Reload
	bl	__ZNSt3__113basic_ostreamIcNS_11char_traitsIcEEElsB6v15006EPFRS3_S4_E
	str	wzr, [sp, #116]
	b	LBB6_34
LBB6_34:                                ; =>This Inner Loop Header: Depth=1
	ldr	w8, [sp, #116]
	ldur	w9, [x29, #-20]
	subs	w8, w8, w9
	cset	w8, ge
	tbnz	w8, #0, LBB6_37
	b	LBB6_35
LBB6_35:                                ;   in Loop: Header=BB6_34 Depth=1
	ldr	x0, [sp, #64]                   ; 8-byte Folded Reload
	adrp	x1, l_.str.10@PAGE
	add	x1, x1, l_.str.10@PAGEOFF
	bl	__ZNSt3__1lsINS_11char_traitsIcEEEERNS_13basic_ostreamIcT_EES6_PKc
	ldr	w1, [sp, #116]
	bl	__ZNSt3__113basic_ostreamIcNS_11char_traitsIcEEElsEi
	adrp	x1, l_.str.11@PAGE
	add	x1, x1, l_.str.11@PAGEOFF
	bl	__ZNSt3__1lsINS_11char_traitsIcEEEERNS_13basic_ostreamIcT_EES6_PKc
	ldur	x8, [x29, #-32]
	ldrsw	x9, [sp, #116]
	ldr	x1, [x8, x9, lsl #3]
	bl	__ZNSt3__1lsINS_11char_traitsIcEEEERNS_13basic_ostreamIcT_EES6_PKc
	ldr	x1, [sp, #72]                   ; 8-byte Folded Reload
	bl	__ZNSt3__113basic_ostreamIcNS_11char_traitsIcEEElsB6v15006EPFRS3_S4_E
	b	LBB6_36
LBB6_36:                                ;   in Loop: Header=BB6_34 Depth=1
	ldr	w8, [sp, #116]
	add	w8, w8, #1
	str	w8, [sp, #116]
	b	LBB6_34
LBB6_37:
	ldr	x0, [sp, #64]                   ; 8-byte Folded Reload
	adrp	x1, l_.str.12@PAGE
	add	x1, x1, l_.str.12@PAGEOFF
	bl	__ZNSt3__1lsINS_11char_traitsIcEEEERNS_13basic_ostreamIcT_EES6_PKc
	ldur	x1, [x29, #-40]
	bl	__ZNSt3__1lsIcNS_11char_traitsIcEENS_9allocatorIcEEEERNS_13basic_ostreamIT_T0_EES9_RKNS_12basic_stringIS6_S7_T1_EE
	ldr	x1, [sp, #72]                   ; 8-byte Folded Reload
	bl	__ZNSt3__113basic_ostreamIcNS_11char_traitsIcEEElsB6v15006EPFRS3_S4_E
	b	LBB6_38
LBB6_38:
	ldur	q0, [x29, #-112]
	str	q0, [sp, #96]
	add	x0, sp, #80
	adrp	x1, l_.str.3@PAGE
	add	x1, x1, l_.str.3@PAGEOFF
	bl	__ZNSt3__117basic_string_viewIcNS_11char_traitsIcEEEC1B6v15006EPKc
	ldr	x0, [sp, #96]
	ldr	x1, [sp, #104]
	ldr	x2, [sp, #80]
	ldr	x3, [sp, #88]
	bl	__ZNSt3__1eqB6v15006IcNS_11char_traitsIcEELi1EEEbNS_17basic_string_viewIT_T0_EENS_11common_typeIJS6_EE4typeE
	and	w0, w0, #0x1
	ldp	x29, x30, [sp, #480]            ; 16-byte Folded Reload
	ldp	x28, x27, [sp, #464]            ; 16-byte Folded Reload
	add	sp, sp, #496
	ret
LBB6_39:
	ldr	x0, [sp, #224]
	bl	__Unwind_Resume
Lfunc_end1:
	.cfi_endproc
	.section	__TEXT,__gcc_except_tab
	.p2align	2
GCC_except_table6:
Lexception1:
	.byte	255                             ; @LPStart Encoding = omit
	.byte	255                             ; @TType Encoding = omit
	.byte	1                               ; Call site Encoding = uleb128
	.uleb128 Lcst_end1-Lcst_begin1
Lcst_begin1:
	.uleb128 Lfunc_begin1-Lfunc_begin1      ; >> Call Site 1 <<
	.uleb128 Ltmp13-Lfunc_begin1            ;   Call between Lfunc_begin1 and Ltmp13
	.byte	0                               ;     has no landing pad
	.byte	0                               ;   On action: cleanup
	.uleb128 Ltmp13-Lfunc_begin1            ; >> Call Site 2 <<
	.uleb128 Ltmp14-Ltmp13                  ;   Call between Ltmp13 and Ltmp14
	.uleb128 Ltmp15-Lfunc_begin1            ;     jumps to Ltmp15
	.byte	0                               ;   On action: cleanup
	.uleb128 Ltmp14-Lfunc_begin1            ; >> Call Site 3 <<
	.uleb128 Ltmp16-Ltmp14                  ;   Call between Ltmp14 and Ltmp16
	.byte	0                               ;     has no landing pad
	.byte	0                               ;   On action: cleanup
	.uleb128 Ltmp16-Lfunc_begin1            ; >> Call Site 4 <<
	.uleb128 Ltmp17-Ltmp16                  ;   Call between Ltmp16 and Ltmp17
	.uleb128 Ltmp18-Lfunc_begin1            ;     jumps to Ltmp18
	.byte	0                               ;   On action: cleanup
	.uleb128 Ltmp17-Lfunc_begin1            ; >> Call Site 5 <<
	.uleb128 Ltmp19-Ltmp17                  ;   Call between Ltmp17 and Ltmp19
	.byte	0                               ;     has no landing pad
	.byte	0                               ;   On action: cleanup
	.uleb128 Ltmp19-Lfunc_begin1            ; >> Call Site 6 <<
	.uleb128 Ltmp20-Ltmp19                  ;   Call between Ltmp19 and Ltmp20
	.uleb128 Ltmp21-Lfunc_begin1            ;     jumps to Ltmp21
	.byte	0                               ;   On action: cleanup
	.uleb128 Ltmp20-Lfunc_begin1            ; >> Call Site 7 <<
	.uleb128 Lfunc_end1-Ltmp20              ;   Call between Ltmp20 and Lfunc_end1
	.byte	0                               ;     has no landing pad
	.byte	0                               ;   On action: cleanup
Lcst_end1:
	.p2align	2
                                        ; -- End function
	.section	__TEXT,__text,regular,pure_instructions
	.private_extern	__ZNSt3__117basic_string_viewIcNS_11char_traitsIcEEEC1B6v15006EPKc ; -- Begin function _ZNSt3__117basic_string_viewIcNS_11char_traitsIcEEEC1B6v15006EPKc
	.globl	__ZNSt3__117basic_string_viewIcNS_11char_traitsIcEEEC1B6v15006EPKc
	.weak_def_can_be_hidden	__ZNSt3__117basic_string_viewIcNS_11char_traitsIcEEEC1B6v15006EPKc
	.p2align	2
__ZNSt3__117basic_string_viewIcNS_11char_traitsIcEEEC1B6v15006EPKc: ; @_ZNSt3__117basic_string_viewIcNS_11char_traitsIcEEEC1B6v15006EPKc
	.cfi_startproc
; %bb.0:
	sub	sp, sp, #48
	.cfi_def_cfa_offset 48
	stp	x29, x30, [sp, #32]             ; 16-byte Folded Spill
	add	x29, sp, #32
	.cfi_def_cfa w29, 16
	.cfi_offset w30, -8
	.cfi_offset w29, -16
	stur	x0, [x29, #-8]
	str	x1, [sp, #16]
	ldur	x0, [x29, #-8]
	str	x0, [sp, #8]                    ; 8-byte Folded Spill
	ldr	x1, [sp, #16]
	bl	__ZNSt3__117basic_string_viewIcNS_11char_traitsIcEEEC2B6v15006EPKc
	ldr	x0, [sp, #8]                    ; 8-byte Folded Reload
	ldp	x29, x30, [sp, #32]             ; 16-byte Folded Reload
	add	sp, sp, #48
	ret
	.cfi_endproc
                                        ; -- End function
	.private_extern	__ZNSt3__1eqB6v15006IcNS_11char_traitsIcEELi1EEEbNS_17basic_string_viewIT_T0_EENS_11common_typeIJS6_EE4typeE ; -- Begin function _ZNSt3__1eqB6v15006IcNS_11char_traitsIcEELi1EEEbNS_17basic_string_viewIT_T0_EENS_11common_typeIJS6_EE4typeE
	.globl	__ZNSt3__1eqB6v15006IcNS_11char_traitsIcEELi1EEEbNS_17basic_string_viewIT_T0_EENS_11common_typeIJS6_EE4typeE
	.weak_definition	__ZNSt3__1eqB6v15006IcNS_11char_traitsIcEELi1EEEbNS_17basic_string_viewIT_T0_EENS_11common_typeIJS6_EE4typeE
	.p2align	2
__ZNSt3__1eqB6v15006IcNS_11char_traitsIcEELi1EEEbNS_17basic_string_viewIT_T0_EENS_11common_typeIJS6_EE4typeE: ; @_ZNSt3__1eqB6v15006IcNS_11char_traitsIcEELi1EEEbNS_17basic_string_viewIT_T0_EENS_11common_typeIJS6_EE4typeE
	.cfi_startproc
; %bb.0:
	sub	sp, sp, #96
	.cfi_def_cfa_offset 96
	stp	x29, x30, [sp, #80]             ; 16-byte Folded Spill
	add	x29, sp, #80
	.cfi_def_cfa w29, 16
	.cfi_offset w30, -8
	.cfi_offset w29, -16
	mov	x8, x0
	sub	x0, x29, #24
	stur	x8, [x29, #-24]
	stur	x1, [x29, #-16]
	add	x8, sp, #40
	str	x8, [sp]                        ; 8-byte Folded Spill
	str	x2, [sp, #40]
	str	x3, [sp, #48]
	bl	__ZNKSt3__117basic_string_viewIcNS_11char_traitsIcEEE4sizeB6v15006Ev
	mov	x8, x0
	ldr	x0, [sp]                        ; 8-byte Folded Reload
	str	x8, [sp, #8]                    ; 8-byte Folded Spill
	bl	__ZNKSt3__117basic_string_viewIcNS_11char_traitsIcEEE4sizeB6v15006Ev
	mov	x8, x0
	ldr	x0, [sp, #8]                    ; 8-byte Folded Reload
	subs	x8, x0, x8
	cset	w8, eq
	tbnz	w8, #0, LBB8_2
	b	LBB8_1
LBB8_1:
	mov	w8, #0
	and	w8, w8, #0x1
	and	w8, w8, #0x1
	sturb	w8, [x29, #-1]
	b	LBB8_3
LBB8_2:
	ldur	q0, [sp, #40]
	str	q0, [sp, #16]
	ldr	x1, [sp, #16]
	ldr	x2, [sp, #24]
	sub	x0, x29, #24
	bl	__ZNKSt3__117basic_string_viewIcNS_11char_traitsIcEEE7compareES3_
	subs	w8, w0, #0
	cset	w8, eq
	and	w8, w8, #0x1
	and	w8, w8, #0x1
	sturb	w8, [x29, #-1]
	b	LBB8_3
LBB8_3:
	ldurb	w8, [x29, #-1]
	and	w0, w8, #0x1
	ldp	x29, x30, [sp, #80]             ; 16-byte Folded Reload
	add	sp, sp, #96
	ret
	.cfi_endproc
                                        ; -- End function
	.private_extern	__ZNSt3__112basic_stringIcNS_11char_traitsIcEENS_9allocatorIcEEEaSB6v15006EPKc ; -- Begin function _ZNSt3__112basic_stringIcNS_11char_traitsIcEENS_9allocatorIcEEEaSB6v15006EPKc
	.globl	__ZNSt3__112basic_stringIcNS_11char_traitsIcEENS_9allocatorIcEEEaSB6v15006EPKc
	.weak_definition	__ZNSt3__112basic_stringIcNS_11char_traitsIcEENS_9allocatorIcEEEaSB6v15006EPKc
	.p2align	2
__ZNSt3__112basic_stringIcNS_11char_traitsIcEENS_9allocatorIcEEEaSB6v15006EPKc: ; @_ZNSt3__112basic_stringIcNS_11char_traitsIcEENS_9allocatorIcEEEaSB6v15006EPKc
	.cfi_startproc
; %bb.0:
	sub	sp, sp, #32
	.cfi_def_cfa_offset 32
	stp	x29, x30, [sp, #16]             ; 16-byte Folded Spill
	add	x29, sp, #16
	.cfi_def_cfa w29, 16
	.cfi_offset w30, -8
	.cfi_offset w29, -16
	str	x0, [sp, #8]
	str	x1, [sp]
	ldr	x0, [sp, #8]
	ldr	x1, [sp]
	bl	__ZNSt3__112basic_stringIcNS_11char_traitsIcEENS_9allocatorIcEEE6assignEPKc
	ldp	x29, x30, [sp, #16]             ; 16-byte Folded Reload
	add	sp, sp, #32
	ret
	.cfi_endproc
                                        ; -- End function
	.globl	__ZNSt3__112basic_stringIcNS_11char_traitsIcEENS_9allocatorIcEEEC1B6v15006IDnEEPKc ; -- Begin function _ZNSt3__112basic_stringIcNS_11char_traitsIcEENS_9allocatorIcEEEC1B6v15006IDnEEPKc
	.weak_def_can_be_hidden	__ZNSt3__112basic_stringIcNS_11char_traitsIcEENS_9allocatorIcEEEC1B6v15006IDnEEPKc
	.p2align	2
__ZNSt3__112basic_stringIcNS_11char_traitsIcEENS_9allocatorIcEEEC1B6v15006IDnEEPKc: ; @_ZNSt3__112basic_stringIcNS_11char_traitsIcEENS_9allocatorIcEEEC1B6v15006IDnEEPKc
	.cfi_startproc
; %bb.0:
	sub	sp, sp, #48
	.cfi_def_cfa_offset 48
	stp	x29, x30, [sp, #32]             ; 16-byte Folded Spill
	add	x29, sp, #32
	.cfi_def_cfa w29, 16
	.cfi_offset w30, -8
	.cfi_offset w29, -16
	stur	x0, [x29, #-8]
	str	x1, [sp, #16]
	ldur	x0, [x29, #-8]
	str	x0, [sp, #8]                    ; 8-byte Folded Spill
	ldr	x1, [sp, #16]
	bl	__ZNSt3__112basic_stringIcNS_11char_traitsIcEENS_9allocatorIcEEEC2B6v15006IDnEEPKc
	ldr	x0, [sp, #8]                    ; 8-byte Folded Reload
	ldp	x29, x30, [sp, #32]             ; 16-byte Folded Reload
	add	sp, sp, #48
	ret
	.cfi_endproc
                                        ; -- End function
	.private_extern	__ZNSt3__1eqB6v15006IcNS_11char_traitsIcEENS_9allocatorIcEEEEbRKNS_12basic_stringIT_T0_T1_EEPKS6_ ; -- Begin function _ZNSt3__1eqB6v15006IcNS_11char_traitsIcEENS_9allocatorIcEEEEbRKNS_12basic_stringIT_T0_T1_EEPKS6_
	.globl	__ZNSt3__1eqB6v15006IcNS_11char_traitsIcEENS_9allocatorIcEEEEbRKNS_12basic_stringIT_T0_T1_EEPKS6_
	.weak_definition	__ZNSt3__1eqB6v15006IcNS_11char_traitsIcEENS_9allocatorIcEEEEbRKNS_12basic_stringIT_T0_T1_EEPKS6_
	.p2align	2
__ZNSt3__1eqB6v15006IcNS_11char_traitsIcEENS_9allocatorIcEEEEbRKNS_12basic_stringIT_T0_T1_EEPKS6_: ; @_ZNSt3__1eqB6v15006IcNS_11char_traitsIcEENS_9allocatorIcEEEEbRKNS_12basic_stringIT_T0_T1_EEPKS6_
Lfunc_begin2:
	.cfi_startproc
	.cfi_personality 155, ___gxx_personality_v0
	.cfi_lsda 16, Lexception2
; %bb.0:
	sub	sp, sp, #64
	.cfi_def_cfa_offset 64
	stp	x29, x30, [sp, #48]             ; 16-byte Folded Spill
	add	x29, sp, #48
	.cfi_def_cfa w29, 16
	.cfi_offset w30, -8
	.cfi_offset w29, -16
	stur	x0, [x29, #-16]
	str	x1, [sp, #24]
	ldr	x0, [sp, #24]
	bl	__ZNSt3__111char_traitsIcE6lengthEPKc
	str	x0, [sp, #16]
	ldr	x8, [sp, #16]
	str	x8, [sp, #8]                    ; 8-byte Folded Spill
	ldur	x0, [x29, #-16]
	bl	__ZNKSt3__112basic_stringIcNS_11char_traitsIcEENS_9allocatorIcEEE4sizeB6v15006Ev
	ldr	x8, [sp, #8]                    ; 8-byte Folded Reload
	subs	x8, x8, x0
	cset	w8, eq
	tbnz	w8, #0, LBB11_2
	b	LBB11_1
LBB11_1:
	mov	w8, #0
	and	w8, w8, #0x1
	and	w8, w8, #0x1
	sturb	w8, [x29, #-1]
	b	LBB11_4
LBB11_2:
	ldur	x0, [x29, #-16]
	ldr	x3, [sp, #24]
	ldr	x4, [sp, #16]
Ltmp22:
	mov	x1, #0
	mov	x2, #-1
	bl	__ZNKSt3__112basic_stringIcNS_11char_traitsIcEENS_9allocatorIcEEE7compareEmmPKcm
	str	w0, [sp, #4]                    ; 4-byte Folded Spill
Ltmp23:
	b	LBB11_3
LBB11_3:
	ldr	w8, [sp, #4]                    ; 4-byte Folded Reload
	subs	w8, w8, #0
	cset	w8, eq
	and	w8, w8, #0x1
	and	w8, w8, #0x1
	sturb	w8, [x29, #-1]
	b	LBB11_4
LBB11_4:
	ldurb	w8, [x29, #-1]
	and	w0, w8, #0x1
	ldp	x29, x30, [sp, #48]             ; 16-byte Folded Reload
	add	sp, sp, #64
	ret
LBB11_5:
Ltmp24:
	bl	___clang_call_terminate
Lfunc_end2:
	.cfi_endproc
	.section	__TEXT,__gcc_except_tab
	.p2align	2
GCC_except_table11:
Lexception2:
	.byte	255                             ; @LPStart Encoding = omit
	.byte	155                             ; @TType Encoding = indirect pcrel sdata4
	.uleb128 Lttbase0-Lttbaseref0
Lttbaseref0:
	.byte	1                               ; Call site Encoding = uleb128
	.uleb128 Lcst_end2-Lcst_begin2
Lcst_begin2:
	.uleb128 Ltmp22-Lfunc_begin2            ; >> Call Site 1 <<
	.uleb128 Ltmp23-Ltmp22                  ;   Call between Ltmp22 and Ltmp23
	.uleb128 Ltmp24-Lfunc_begin2            ;     jumps to Ltmp24
	.byte	1                               ;   On action: 1
Lcst_end2:
	.byte	1                               ; >> Action Record 1 <<
                                        ;   Catch TypeInfo 1
	.byte	0                               ;   No further actions
	.p2align	2
                                        ; >> Catch TypeInfos <<
	.long	0                               ; TypeInfo 1
Lttbase0:
	.p2align	2
                                        ; -- End function
	.section	__TEXT,__text,regular,pure_instructions
	.private_extern	__ZNKSt3__112basic_stringIcNS_11char_traitsIcEENS_9allocatorIcEEE6substrB6v15006Emm ; -- Begin function _ZNKSt3__112basic_stringIcNS_11char_traitsIcEENS_9allocatorIcEEE6substrB6v15006Emm
	.globl	__ZNKSt3__112basic_stringIcNS_11char_traitsIcEENS_9allocatorIcEEE6substrB6v15006Emm
	.weak_definition	__ZNKSt3__112basic_stringIcNS_11char_traitsIcEENS_9allocatorIcEEE6substrB6v15006Emm
	.p2align	2
__ZNKSt3__112basic_stringIcNS_11char_traitsIcEENS_9allocatorIcEEE6substrB6v15006Emm: ; @_ZNKSt3__112basic_stringIcNS_11char_traitsIcEENS_9allocatorIcEEE6substrB6v15006Emm
	.cfi_startproc
; %bb.0:
	sub	sp, sp, #80
	.cfi_def_cfa_offset 80
	stp	x29, x30, [sp, #64]             ; 16-byte Folded Spill
	add	x29, sp, #64
	.cfi_def_cfa w29, 16
	.cfi_offset w30, -8
	.cfi_offset w29, -16
	str	x8, [sp, #24]                   ; 8-byte Folded Spill
	stur	x8, [x29, #-8]
	stur	x0, [x29, #-16]
	stur	x1, [x29, #-24]
	str	x2, [sp, #32]
	ldur	x0, [x29, #-16]
	str	x0, [sp]                        ; 8-byte Folded Spill
	ldur	x8, [x29, #-24]
	str	x8, [sp, #8]                    ; 8-byte Folded Spill
	ldr	x8, [sp, #32]
	str	x8, [sp, #16]                   ; 8-byte Folded Spill
	bl	__ZNKSt3__112basic_stringIcNS_11char_traitsIcEENS_9allocatorIcEEE7__allocB6v15006Ev
	ldr	x1, [sp]                        ; 8-byte Folded Reload
	ldr	x2, [sp, #8]                    ; 8-byte Folded Reload
	ldr	x3, [sp, #16]                   ; 8-byte Folded Reload
	mov	x4, x0
	ldr	x0, [sp, #24]                   ; 8-byte Folded Reload
	bl	__ZNSt3__112basic_stringIcNS_11char_traitsIcEENS_9allocatorIcEEEC1ERKS5_mmRKS4_
	ldp	x29, x30, [sp, #64]             ; 16-byte Folded Reload
	add	sp, sp, #80
	ret
	.cfi_endproc
                                        ; -- End function
	.private_extern	__ZNSt3__112basic_stringIcNS_11char_traitsIcEENS_9allocatorIcEEEaSB6v15006EOS5_ ; -- Begin function _ZNSt3__112basic_stringIcNS_11char_traitsIcEENS_9allocatorIcEEEaSB6v15006EOS5_
	.globl	__ZNSt3__112basic_stringIcNS_11char_traitsIcEENS_9allocatorIcEEEaSB6v15006EOS5_
	.weak_definition	__ZNSt3__112basic_stringIcNS_11char_traitsIcEENS_9allocatorIcEEEaSB6v15006EOS5_
	.p2align	2
__ZNSt3__112basic_stringIcNS_11char_traitsIcEENS_9allocatorIcEEEaSB6v15006EOS5_: ; @_ZNSt3__112basic_stringIcNS_11char_traitsIcEENS_9allocatorIcEEEaSB6v15006EOS5_
	.cfi_startproc
; %bb.0:
	sub	sp, sp, #48
	.cfi_def_cfa_offset 48
	stp	x29, x30, [sp, #32]             ; 16-byte Folded Spill
	add	x29, sp, #32
	.cfi_def_cfa w29, 16
	.cfi_offset w30, -8
	.cfi_offset w29, -16
	stur	x0, [x29, #-8]
	str	x1, [sp, #16]
	ldur	x0, [x29, #-8]
	str	x0, [sp]                        ; 8-byte Folded Spill
	ldr	x1, [sp, #16]
	bl	__ZNSt3__112basic_stringIcNS_11char_traitsIcEENS_9allocatorIcEEE13__move_assignB6v15006ERS5_NS_17integral_constantIbLb1EEE
	ldr	x0, [sp]                        ; 8-byte Folded Reload
	ldp	x29, x30, [sp, #32]             ; 16-byte Folded Reload
	add	sp, sp, #48
	ret
	.cfi_endproc
                                        ; -- End function
	.globl	__ZNSt3__1lsINS_11char_traitsIcEEEERNS_13basic_ostreamIcT_EES6_PKc ; -- Begin function _ZNSt3__1lsINS_11char_traitsIcEEEERNS_13basic_ostreamIcT_EES6_PKc
	.weak_definition	__ZNSt3__1lsINS_11char_traitsIcEEEERNS_13basic_ostreamIcT_EES6_PKc
	.p2align	2
__ZNSt3__1lsINS_11char_traitsIcEEEERNS_13basic_ostreamIcT_EES6_PKc: ; @_ZNSt3__1lsINS_11char_traitsIcEEEERNS_13basic_ostreamIcT_EES6_PKc
	.cfi_startproc
; %bb.0:
	sub	sp, sp, #48
	.cfi_def_cfa_offset 48
	stp	x29, x30, [sp, #32]             ; 16-byte Folded Spill
	add	x29, sp, #32
	.cfi_def_cfa w29, 16
	.cfi_offset w30, -8
	.cfi_offset w29, -16
	stur	x0, [x29, #-8]
	str	x1, [sp, #16]
	ldur	x8, [x29, #-8]
	str	x8, [sp, #8]                    ; 8-byte Folded Spill
	ldr	x8, [sp, #16]
	str	x8, [sp]                        ; 8-byte Folded Spill
	ldr	x0, [sp, #16]
	bl	__ZNSt3__111char_traitsIcE6lengthEPKc
	ldr	x1, [sp]                        ; 8-byte Folded Reload
	mov	x2, x0
	ldr	x0, [sp, #8]                    ; 8-byte Folded Reload
	bl	__ZNSt3__124__put_character_sequenceIcNS_11char_traitsIcEEEERNS_13basic_ostreamIT_T0_EES7_PKS4_m
	ldp	x29, x30, [sp, #32]             ; 16-byte Folded Reload
	add	sp, sp, #48
	ret
	.cfi_endproc
                                        ; -- End function
	.private_extern	__ZNSt3__113basic_ostreamIcNS_11char_traitsIcEEElsB6v15006EPFRS3_S4_E ; -- Begin function _ZNSt3__113basic_ostreamIcNS_11char_traitsIcEEElsB6v15006EPFRS3_S4_E
	.globl	__ZNSt3__113basic_ostreamIcNS_11char_traitsIcEEElsB6v15006EPFRS3_S4_E
	.weak_definition	__ZNSt3__113basic_ostreamIcNS_11char_traitsIcEEElsB6v15006EPFRS3_S4_E
	.p2align	2
__ZNSt3__113basic_ostreamIcNS_11char_traitsIcEEElsB6v15006EPFRS3_S4_E: ; @_ZNSt3__113basic_ostreamIcNS_11char_traitsIcEEElsB6v15006EPFRS3_S4_E
	.cfi_startproc
; %bb.0:
	sub	sp, sp, #32
	.cfi_def_cfa_offset 32
	stp	x29, x30, [sp, #16]             ; 16-byte Folded Spill
	add	x29, sp, #16
	.cfi_def_cfa w29, 16
	.cfi_offset w30, -8
	.cfi_offset w29, -16
	str	x0, [sp, #8]
	str	x1, [sp]
	ldr	x0, [sp, #8]
	ldr	x8, [sp]
	blr	x8
	ldp	x29, x30, [sp, #16]             ; 16-byte Folded Reload
	add	sp, sp, #32
	ret
	.cfi_endproc
                                        ; -- End function
	.globl	__ZNSt3__14endlIcNS_11char_traitsIcEEEERNS_13basic_ostreamIT_T0_EES7_ ; -- Begin function _ZNSt3__14endlIcNS_11char_traitsIcEEEERNS_13basic_ostreamIT_T0_EES7_
	.weak_definition	__ZNSt3__14endlIcNS_11char_traitsIcEEEERNS_13basic_ostreamIT_T0_EES7_
	.p2align	2
__ZNSt3__14endlIcNS_11char_traitsIcEEEERNS_13basic_ostreamIT_T0_EES7_: ; @_ZNSt3__14endlIcNS_11char_traitsIcEEEERNS_13basic_ostreamIT_T0_EES7_
	.cfi_startproc
; %bb.0:
	sub	sp, sp, #32
	.cfi_def_cfa_offset 32
	stp	x29, x30, [sp, #16]             ; 16-byte Folded Spill
	add	x29, sp, #16
	.cfi_def_cfa w29, 16
	.cfi_offset w30, -8
	.cfi_offset w29, -16
	str	x0, [sp, #8]
	ldr	x8, [sp, #8]
	str	x8, [sp]                        ; 8-byte Folded Spill
	ldr	x8, [sp, #8]
	ldr	x9, [x8]
	ldur	x9, [x9, #-24]
	add	x0, x8, x9
	mov	w1, #10
	bl	__ZNKSt3__19basic_iosIcNS_11char_traitsIcEEE5widenB6v15006Ec
	mov	x8, x0
	ldr	x0, [sp]                        ; 8-byte Folded Reload
	sxtb	w1, w8
	bl	__ZNSt3__113basic_ostreamIcNS_11char_traitsIcEEE3putEc
	ldr	x0, [sp, #8]
	bl	__ZNSt3__113basic_ostreamIcNS_11char_traitsIcEEE5flushEv
	ldr	x0, [sp, #8]
	ldp	x29, x30, [sp, #16]             ; 16-byte Folded Reload
	add	sp, sp, #32
	ret
	.cfi_endproc
                                        ; -- End function
	.globl	__ZNSt3__1lsIcNS_11char_traitsIcEENS_9allocatorIcEEEERNS_13basic_ostreamIT_T0_EES9_RKNS_12basic_stringIS6_S7_T1_EE ; -- Begin function _ZNSt3__1lsIcNS_11char_traitsIcEENS_9allocatorIcEEEERNS_13basic_ostreamIT_T0_EES9_RKNS_12basic_stringIS6_S7_T1_EE
	.weak_definition	__ZNSt3__1lsIcNS_11char_traitsIcEENS_9allocatorIcEEEERNS_13basic_ostreamIT_T0_EES9_RKNS_12basic_stringIS6_S7_T1_EE
	.p2align	2
__ZNSt3__1lsIcNS_11char_traitsIcEENS_9allocatorIcEEEERNS_13basic_ostreamIT_T0_EES9_RKNS_12basic_stringIS6_S7_T1_EE: ; @_ZNSt3__1lsIcNS_11char_traitsIcEENS_9allocatorIcEEEERNS_13basic_ostreamIT_T0_EES9_RKNS_12basic_stringIS6_S7_T1_EE
	.cfi_startproc
; %bb.0:
	sub	sp, sp, #48
	.cfi_def_cfa_offset 48
	stp	x29, x30, [sp, #32]             ; 16-byte Folded Spill
	add	x29, sp, #32
	.cfi_def_cfa w29, 16
	.cfi_offset w30, -8
	.cfi_offset w29, -16
	stur	x0, [x29, #-8]
	str	x1, [sp, #16]
	ldur	x8, [x29, #-8]
	str	x8, [sp, #8]                    ; 8-byte Folded Spill
	ldr	x0, [sp, #16]
	bl	__ZNKSt3__112basic_stringIcNS_11char_traitsIcEENS_9allocatorIcEEE4dataB6v15006Ev
	str	x0, [sp]                        ; 8-byte Folded Spill
	ldr	x0, [sp, #16]
	bl	__ZNKSt3__112basic_stringIcNS_11char_traitsIcEENS_9allocatorIcEEE4sizeB6v15006Ev
	ldr	x1, [sp]                        ; 8-byte Folded Reload
	mov	x2, x0
	ldr	x0, [sp, #8]                    ; 8-byte Folded Reload
	bl	__ZNSt3__124__put_character_sequenceIcNS_11char_traitsIcEEEERNS_13basic_ostreamIT_T0_EES7_PKS4_m
	ldp	x29, x30, [sp, #32]             ; 16-byte Folded Reload
	add	sp, sp, #48
	ret
	.cfi_endproc
                                        ; -- End function
	.globl	_main                           ; -- Begin function main
	.p2align	2
_main:                                  ; @main
Lfunc_begin3:
	.cfi_startproc
	.cfi_personality 155, ___gxx_personality_v0
	.cfi_lsda 16, Lexception3
; %bb.0:
	sub	sp, sp, #368
	.cfi_def_cfa_offset 368
	stp	x28, x27, [sp, #336]            ; 16-byte Folded Spill
	stp	x29, x30, [sp, #352]            ; 16-byte Folded Spill
	add	x29, sp, #352
	.cfi_def_cfa w29, 16
	.cfi_offset w30, -8
	.cfi_offset w29, -16
	.cfi_offset w27, -24
	.cfi_offset w28, -32
	mov	w8, #0
	str	w8, [sp, #80]                   ; 4-byte Folded Spill
	stur	wzr, [x29, #-20]
	stur	w0, [x29, #-24]
	stur	x1, [x29, #-32]
	mov	x0, #0
	bl	_time
                                        ; kill: def $w0 killed $w0 killed $x0
	bl	_srand
	sub	x0, x29, #56
	str	x0, [sp, #72]                   ; 8-byte Folded Spill
	adrp	x1, l_.str.8@PAGE
	add	x1, x1, l_.str.8@PAGEOFF
	bl	__ZNSt3__112basic_stringIcNS_11char_traitsIcEENS_9allocatorIcEEEC1B6v15006IDnEEPKc
	ldr	x2, [sp, #72]                   ; 8-byte Folded Reload
	ldr	w8, [sp, #80]                   ; 4-byte Folded Reload
	sub	x5, x29, #60
	stur	wzr, [x29, #-60]
	sub	x6, x29, #64
	stur	wzr, [x29, #-64]
	ldur	w0, [x29, #-24]
	ldur	x1, [x29, #-32]
Ltmp25:
	adrp	x3, _height@PAGE
	add	x3, x3, _height@PAGEOFF
	adrp	x4, _width@PAGE
	add	x4, x4, _width@PAGEOFF
	and	w7, w8, #0x1
	bl	__Z5setupiPPcRNSt3__112basic_stringIcNS1_11char_traitsIcEENS1_9allocatorIcEEEERiS9_S9_RN3map8LoadtypeEb
	str	w0, [sp, #84]                   ; 4-byte Folded Spill
Ltmp26:
	b	LBB18_1
LBB18_1:
	ldr	w8, [sp, #84]                   ; 4-byte Folded Reload
	mov	w9, #1
	and	w8, w8, w9
	sturb	w8, [x29, #-65]
	add	x0, sp, #136
	bl	__ZNSt3__18optionalIN3map6MapperEEC1B6v15006Ev
	ldurb	w8, [x29, #-65]
	tbz	w8, #0, LBB18_6
	b	LBB18_2
LBB18_2:
	adrp	x8, _height@PAGE
	ldr	w8, [x8, _height@PAGEOFF]
	add	x2, sp, #128
	str	w8, [sp, #128]
	adrp	x8, _width@PAGE
	ldr	w8, [x8, _width@PAGEOFF]
	str	w8, [sp, #132]
Ltmp30:
	add	x0, sp, #136
	sub	x1, x29, #56
	sub	x3, x29, #60
	sub	x4, x29, #64
	bl	__ZNSt3__18optionalIN3map6MapperEE7emplaceB6v15006IJRNS_12basic_stringIcNS_11char_traitsIcEENS_9allocatorIcEEEENS1_4SizeERiRNS1_8LoadtypeEEvEERS2_DpOT_
Ltmp31:
	b	LBB18_3
LBB18_3:
	b	LBB18_8
LBB18_4:
Ltmp27:
	mov	x8, x1
	stur	x0, [x29, #-80]
	stur	w8, [x29, #-84]
	b	LBB18_25
LBB18_5:
Ltmp58:
	mov	x8, x1
	stur	x0, [x29, #-80]
	stur	w8, [x29, #-84]
	add	x0, sp, #136
	bl	__ZNSt3__18optionalIN3map6MapperEED1Ev
	b	LBB18_25
LBB18_6:
	adrp	x8, _height@PAGE
	ldr	w8, [x8, _height@PAGEOFF]
	add	x2, sp, #120
	str	w8, [sp, #120]
	adrp	x8, _width@PAGE
	ldr	w8, [x8, _width@PAGEOFF]
	str	w8, [sp, #124]
Ltmp28:
	add	x0, sp, #136
	sub	x1, x29, #56
	sub	x3, x29, #64
	bl	__ZNSt3__18optionalIN3map6MapperEE7emplaceB6v15006IJRNS_12basic_stringIcNS_11char_traitsIcEENS_9allocatorIcEEEENS1_4SizeERNS1_8LoadtypeEEvEERS2_DpOT_
Ltmp29:
	b	LBB18_7
LBB18_7:
	b	LBB18_8
LBB18_8:
	bl	__ZNSt3__16chrono12steady_clock3nowEv
	str	x0, [sp, #112]
	add	x0, sp, #136
	bl	__ZNRSt3__18optionalIN3map6MapperEEdeB6v15006Ev
Ltmp32:
	bl	__Z6canvasRN3map6MapperE
Ltmp33:
	b	LBB18_9
LBB18_9:
	ldurb	w8, [x29, #-65]
	tbz	w8, #0, LBB18_15
	b	LBB18_10
LBB18_10:
Ltmp38:
	add	x0, sp, #136
	bl	__ZNSt3__18optionalIN3map6MapperEEptB6v15006Ev
	str	x0, [sp, #64]                   ; 8-byte Folded Spill
Ltmp39:
	b	LBB18_11
LBB18_11:
Ltmp40:
	ldr	x0, [sp, #64]                   ; 8-byte Folded Reload
	sub	x1, x29, #56
	bl	__ZNK3map6Mapper6renderERKNSt3__112basic_stringIcNS1_11char_traitsIcEENS1_9allocatorIcEEEE
Ltmp41:
	b	LBB18_12
LBB18_12:
Ltmp42:
	add	x0, sp, #136
	bl	__ZNSt3__18optionalIN3map6MapperEEptB6v15006Ev
	str	x0, [sp, #56]                   ; 8-byte Folded Spill
Ltmp43:
	b	LBB18_13
LBB18_13:
Ltmp44:
	ldr	x0, [sp, #56]                   ; 8-byte Folded Reload
	bl	__ZNK3map6Mapper11clearFramesEv
Ltmp45:
	b	LBB18_14
LBB18_14:
	b	LBB18_18
LBB18_15:
Ltmp34:
	add	x0, sp, #136
	bl	__ZNSt3__18optionalIN3map6MapperEEptB6v15006Ev
	str	x0, [sp, #48]                   ; 8-byte Folded Spill
Ltmp35:
	b	LBB18_16
LBB18_16:
Ltmp36:
	ldr	x0, [sp, #48]                   ; 8-byte Folded Reload
	bl	__ZN3map6Mapper8setStateEv
Ltmp37:
	b	LBB18_17
LBB18_17:
	b	LBB18_18
LBB18_18:
	bl	__ZNSt3__16chrono12steady_clock3nowEv
	mov	x8, x0
	add	x0, sp, #104
	str	x8, [sp, #104]
Ltmp46:
	add	x1, sp, #112
	bl	__ZNSt3__16chronomiB6v15006INS0_12steady_clockENS0_8durationIxNS_5ratioILl1ELl1000000000EEEEES6_EENS_11common_typeIJT0_T1_EE4typeERKNS0_10time_pointIT_S8_EERKNSC_ISD_S9_EE
	str	x0, [sp, #40]                   ; 8-byte Folded Spill
Ltmp47:
	b	LBB18_19
LBB18_19:
	ldr	x8, [sp, #40]                   ; 8-byte Folded Reload
	add	x0, sp, #88
	str	x8, [sp, #88]
Ltmp48:
	bl	__ZNSt3__16chrono13duration_castB6v15006INS0_8durationIxNS_5ratioILl1ELl1000EEEEExNS3_ILl1ELl1000000000EEEEENS_9enable_ifIXsr13__is_durationIT_EE5valueES8_E4typeERKNS2_IT0_T1_EE
	str	x0, [sp, #32]                   ; 8-byte Folded Spill
Ltmp49:
	b	LBB18_20
LBB18_20:
	ldr	x8, [sp, #32]                   ; 8-byte Folded Reload
	str	x8, [sp, #96]
Ltmp50:
	adrp	x0, __ZNSt3__14clogE@GOTPAGE
	ldr	x0, [x0, __ZNSt3__14clogE@GOTPAGEOFF]
	adrp	x1, l_.str.13@PAGE
	add	x1, x1, l_.str.13@PAGEOFF
	bl	__ZNSt3__1lsINS_11char_traitsIcEEEERNS_13basic_ostreamIcT_EES6_PKc
	str	x0, [sp, #24]                   ; 8-byte Folded Spill
Ltmp51:
	b	LBB18_21
LBB18_21:
Ltmp52:
	add	x0, sp, #96
	bl	__ZNKSt3__16chrono8durationIxNS_5ratioILl1ELl1000EEEE5countB6v15006Ev
	str	x0, [sp, #16]                   ; 8-byte Folded Spill
Ltmp53:
	b	LBB18_22
LBB18_22:
Ltmp54:
	ldr	x1, [sp, #16]                   ; 8-byte Folded Reload
	ldr	x0, [sp, #24]                   ; 8-byte Folded Reload
	bl	__ZNSt3__113basic_ostreamIcNS_11char_traitsIcEEElsEx
	str	x0, [sp, #8]                    ; 8-byte Folded Spill
Ltmp55:
	b	LBB18_23
LBB18_23:
Ltmp56:
	ldr	x0, [sp, #8]                    ; 8-byte Folded Reload
	adrp	x1, l_.str.14@PAGE
	add	x1, x1, l_.str.14@PAGEOFF
	bl	__ZNSt3__1lsINS_11char_traitsIcEEEERNS_13basic_ostreamIcT_EES6_PKc
Ltmp57:
	b	LBB18_24
LBB18_24:
	add	x0, sp, #136
	bl	__ZNSt3__18optionalIN3map6MapperEED1Ev
	sub	x0, x29, #56
	bl	__ZNSt3__112basic_stringIcNS_11char_traitsIcEENS_9allocatorIcEEED1Ev
	ldur	w0, [x29, #-20]
	ldp	x29, x30, [sp, #352]            ; 16-byte Folded Reload
	ldp	x28, x27, [sp, #336]            ; 16-byte Folded Reload
	add	sp, sp, #368
	ret
LBB18_25:
	sub	x0, x29, #56
	bl	__ZNSt3__112basic_stringIcNS_11char_traitsIcEENS_9allocatorIcEEED1Ev
	b	LBB18_26
LBB18_26:
	ldur	x0, [x29, #-80]
	bl	__Unwind_Resume
Lfunc_end3:
	.cfi_endproc
	.section	__TEXT,__gcc_except_tab
	.p2align	2
GCC_except_table18:
Lexception3:
	.byte	255                             ; @LPStart Encoding = omit
	.byte	255                             ; @TType Encoding = omit
	.byte	1                               ; Call site Encoding = uleb128
	.uleb128 Lcst_end3-Lcst_begin3
Lcst_begin3:
	.uleb128 Lfunc_begin3-Lfunc_begin3      ; >> Call Site 1 <<
	.uleb128 Ltmp25-Lfunc_begin3            ;   Call between Lfunc_begin3 and Ltmp25
	.byte	0                               ;     has no landing pad
	.byte	0                               ;   On action: cleanup
	.uleb128 Ltmp25-Lfunc_begin3            ; >> Call Site 2 <<
	.uleb128 Ltmp26-Ltmp25                  ;   Call between Ltmp25 and Ltmp26
	.uleb128 Ltmp27-Lfunc_begin3            ;     jumps to Ltmp27
	.byte	0                               ;   On action: cleanup
	.uleb128 Ltmp30-Lfunc_begin3            ; >> Call Site 3 <<
	.uleb128 Ltmp57-Ltmp30                  ;   Call between Ltmp30 and Ltmp57
	.uleb128 Ltmp58-Lfunc_begin3            ;     jumps to Ltmp58
	.byte	0                               ;   On action: cleanup
	.uleb128 Ltmp57-Lfunc_begin3            ; >> Call Site 4 <<
	.uleb128 Lfunc_end3-Ltmp57              ;   Call between Ltmp57 and Lfunc_end3
	.byte	0                               ;     has no landing pad
	.byte	0                               ;   On action: cleanup
Lcst_end3:
	.p2align	2
                                        ; -- End function
	.section	__TEXT,__text,regular,pure_instructions
	.private_extern	__ZNSt3__18optionalIN3map6MapperEEC1B6v15006Ev ; -- Begin function _ZNSt3__18optionalIN3map6MapperEEC1B6v15006Ev
	.globl	__ZNSt3__18optionalIN3map6MapperEEC1B6v15006Ev
	.weak_def_can_be_hidden	__ZNSt3__18optionalIN3map6MapperEEC1B6v15006Ev
	.p2align	2
__ZNSt3__18optionalIN3map6MapperEEC1B6v15006Ev: ; @_ZNSt3__18optionalIN3map6MapperEEC1B6v15006Ev
	.cfi_startproc
; %bb.0:
	sub	sp, sp, #32
	.cfi_def_cfa_offset 32
	stp	x29, x30, [sp, #16]             ; 16-byte Folded Spill
	add	x29, sp, #16
	.cfi_def_cfa w29, 16
	.cfi_offset w30, -8
	.cfi_offset w29, -16
	str	x0, [sp, #8]
	ldr	x0, [sp, #8]
	str	x0, [sp]                        ; 8-byte Folded Spill
	bl	__ZNSt3__18optionalIN3map6MapperEEC2B6v15006Ev
	ldr	x0, [sp]                        ; 8-byte Folded Reload
	ldp	x29, x30, [sp, #16]             ; 16-byte Folded Reload
	add	sp, sp, #32
	ret
	.cfi_endproc
                                        ; -- End function
	.globl	__ZNSt3__18optionalIN3map6MapperEE7emplaceB6v15006IJRNS_12basic_stringIcNS_11char_traitsIcEENS_9allocatorIcEEEENS1_4SizeERiRNS1_8LoadtypeEEvEERS2_DpOT_ ; -- Begin function _ZNSt3__18optionalIN3map6MapperEE7emplaceB6v15006IJRNS_12basic_stringIcNS_11char_traitsIcEENS_9allocatorIcEEEENS1_4SizeERiRNS1_8LoadtypeEEvEERS2_DpOT_
	.weak_definition	__ZNSt3__18optionalIN3map6MapperEE7emplaceB6v15006IJRNS_12basic_stringIcNS_11char_traitsIcEENS_9allocatorIcEEEENS1_4SizeERiRNS1_8LoadtypeEEvEERS2_DpOT_
	.p2align	2
__ZNSt3__18optionalIN3map6MapperEE7emplaceB6v15006IJRNS_12basic_stringIcNS_11char_traitsIcEENS_9allocatorIcEEEENS1_4SizeERiRNS1_8LoadtypeEEvEERS2_DpOT_: ; @_ZNSt3__18optionalIN3map6MapperEE7emplaceB6v15006IJRNS_12basic_stringIcNS_11char_traitsIcEENS_9allocatorIcEEEENS1_4SizeERiRNS1_8LoadtypeEEvEERS2_DpOT_
	.cfi_startproc
; %bb.0:
	sub	sp, sp, #64
	.cfi_def_cfa_offset 64
	stp	x29, x30, [sp, #48]             ; 16-byte Folded Spill
	add	x29, sp, #48
	.cfi_def_cfa w29, 16
	.cfi_offset w30, -8
	.cfi_offset w29, -16
	stur	x0, [x29, #-8]
	stur	x1, [x29, #-16]
	str	x2, [sp, #24]
	str	x3, [sp, #16]
	str	x4, [sp, #8]
	ldur	x0, [x29, #-8]
	str	x0, [sp]                        ; 8-byte Folded Spill
	bl	__ZNSt3__124__optional_destruct_baseIN3map6MapperELb0EE5resetB6v15006Ev
	ldr	x0, [sp]                        ; 8-byte Folded Reload
	ldur	x1, [x29, #-16]
	ldr	x2, [sp, #24]
	ldr	x3, [sp, #16]
	ldr	x4, [sp, #8]
	bl	__ZNSt3__123__optional_storage_baseIN3map6MapperELb0EE11__constructB6v15006IJRNS_12basic_stringIcNS_11char_traitsIcEENS_9allocatorIcEEEENS1_4SizeERiRNS1_8LoadtypeEEEEvDpOT_
	ldr	x0, [sp]                        ; 8-byte Folded Reload
	bl	__ZNRSt3__123__optional_storage_baseIN3map6MapperELb0EE5__getB6v15006Ev
	ldp	x29, x30, [sp, #48]             ; 16-byte Folded Reload
	add	sp, sp, #64
	ret
	.cfi_endproc
                                        ; -- End function
	.globl	__ZNSt3__18optionalIN3map6MapperEE7emplaceB6v15006IJRNS_12basic_stringIcNS_11char_traitsIcEENS_9allocatorIcEEEENS1_4SizeERNS1_8LoadtypeEEvEERS2_DpOT_ ; -- Begin function _ZNSt3__18optionalIN3map6MapperEE7emplaceB6v15006IJRNS_12basic_stringIcNS_11char_traitsIcEENS_9allocatorIcEEEENS1_4SizeERNS1_8LoadtypeEEvEERS2_DpOT_
	.weak_definition	__ZNSt3__18optionalIN3map6MapperEE7emplaceB6v15006IJRNS_12basic_stringIcNS_11char_traitsIcEENS_9allocatorIcEEEENS1_4SizeERNS1_8LoadtypeEEvEERS2_DpOT_
	.p2align	2
__ZNSt3__18optionalIN3map6MapperEE7emplaceB6v15006IJRNS_12basic_stringIcNS_11char_traitsIcEENS_9allocatorIcEEEENS1_4SizeERNS1_8LoadtypeEEvEERS2_DpOT_: ; @_ZNSt3__18optionalIN3map6MapperEE7emplaceB6v15006IJRNS_12basic_stringIcNS_11char_traitsIcEENS_9allocatorIcEEEENS1_4SizeERNS1_8LoadtypeEEvEERS2_DpOT_
	.cfi_startproc
; %bb.0:
	sub	sp, sp, #64
	.cfi_def_cfa_offset 64
	stp	x29, x30, [sp, #48]             ; 16-byte Folded Spill
	add	x29, sp, #48
	.cfi_def_cfa w29, 16
	.cfi_offset w30, -8
	.cfi_offset w29, -16
	stur	x0, [x29, #-8]
	stur	x1, [x29, #-16]
	str	x2, [sp, #24]
	str	x3, [sp, #16]
	ldur	x0, [x29, #-8]
	str	x0, [sp, #8]                    ; 8-byte Folded Spill
	bl	__ZNSt3__124__optional_destruct_baseIN3map6MapperELb0EE5resetB6v15006Ev
	ldr	x0, [sp, #8]                    ; 8-byte Folded Reload
	ldur	x1, [x29, #-16]
	ldr	x2, [sp, #24]
	ldr	x3, [sp, #16]
	bl	__ZNSt3__123__optional_storage_baseIN3map6MapperELb0EE11__constructB6v15006IJRNS_12basic_stringIcNS_11char_traitsIcEENS_9allocatorIcEEEENS1_4SizeERNS1_8LoadtypeEEEEvDpOT_
	ldr	x0, [sp, #8]                    ; 8-byte Folded Reload
	bl	__ZNRSt3__123__optional_storage_baseIN3map6MapperELb0EE5__getB6v15006Ev
	ldp	x29, x30, [sp, #48]             ; 16-byte Folded Reload
	add	sp, sp, #64
	ret
	.cfi_endproc
                                        ; -- End function
	.private_extern	__ZNRSt3__18optionalIN3map6MapperEEdeB6v15006Ev ; -- Begin function _ZNRSt3__18optionalIN3map6MapperEEdeB6v15006Ev
	.globl	__ZNRSt3__18optionalIN3map6MapperEEdeB6v15006Ev
	.weak_definition	__ZNRSt3__18optionalIN3map6MapperEEdeB6v15006Ev
	.p2align	2
__ZNRSt3__18optionalIN3map6MapperEEdeB6v15006Ev: ; @_ZNRSt3__18optionalIN3map6MapperEEdeB6v15006Ev
	.cfi_startproc
; %bb.0:
	sub	sp, sp, #32
	.cfi_def_cfa_offset 32
	stp	x29, x30, [sp, #16]             ; 16-byte Folded Spill
	add	x29, sp, #16
	.cfi_def_cfa w29, 16
	.cfi_offset w30, -8
	.cfi_offset w29, -16
	str	x0, [sp, #8]
	ldr	x0, [sp, #8]
	bl	__ZNRSt3__123__optional_storage_baseIN3map6MapperELb0EE5__getB6v15006Ev
	ldp	x29, x30, [sp, #16]             ; 16-byte Folded Reload
	add	sp, sp, #32
	ret
	.cfi_endproc
                                        ; -- End function
	.private_extern	__ZNSt3__18optionalIN3map6MapperEEptB6v15006Ev ; -- Begin function _ZNSt3__18optionalIN3map6MapperEEptB6v15006Ev
	.globl	__ZNSt3__18optionalIN3map6MapperEEptB6v15006Ev
	.weak_definition	__ZNSt3__18optionalIN3map6MapperEEptB6v15006Ev
	.p2align	2
__ZNSt3__18optionalIN3map6MapperEEptB6v15006Ev: ; @_ZNSt3__18optionalIN3map6MapperEEptB6v15006Ev
	.cfi_startproc
; %bb.0:
	sub	sp, sp, #32
	.cfi_def_cfa_offset 32
	stp	x29, x30, [sp, #16]             ; 16-byte Folded Spill
	add	x29, sp, #16
	.cfi_def_cfa w29, 16
	.cfi_offset w30, -8
	.cfi_offset w29, -16
	str	x0, [sp, #8]
	ldr	x0, [sp, #8]
	bl	__ZNRSt3__123__optional_storage_baseIN3map6MapperELb0EE5__getB6v15006Ev
	ldp	x29, x30, [sp, #16]             ; 16-byte Folded Reload
	add	sp, sp, #32
	ret
	.cfi_endproc
                                        ; -- End function
	.private_extern	__ZNSt3__16chrono13duration_castB6v15006INS0_8durationIxNS_5ratioILl1ELl1000EEEEExNS3_ILl1ELl1000000000EEEEENS_9enable_ifIXsr13__is_durationIT_EE5valueES8_E4typeERKNS2_IT0_T1_EE ; -- Begin function _ZNSt3__16chrono13duration_castB6v15006INS0_8durationIxNS_5ratioILl1ELl1000EEEEExNS3_ILl1ELl1000000000EEEEENS_9enable_ifIXsr13__is_durationIT_EE5valueES8_E4typeERKNS2_IT0_T1_EE
	.globl	__ZNSt3__16chrono13duration_castB6v15006INS0_8durationIxNS_5ratioILl1ELl1000EEEEExNS3_ILl1ELl1000000000EEEEENS_9enable_ifIXsr13__is_durationIT_EE5valueES8_E4typeERKNS2_IT0_T1_EE
	.weak_definition	__ZNSt3__16chrono13duration_castB6v15006INS0_8durationIxNS_5ratioILl1ELl1000EEEEExNS3_ILl1ELl1000000000EEEEENS_9enable_ifIXsr13__is_durationIT_EE5valueES8_E4typeERKNS2_IT0_T1_EE
	.p2align	2
__ZNSt3__16chrono13duration_castB6v15006INS0_8durationIxNS_5ratioILl1ELl1000EEEEExNS3_ILl1ELl1000000000EEEEENS_9enable_ifIXsr13__is_durationIT_EE5valueES8_E4typeERKNS2_IT0_T1_EE: ; @_ZNSt3__16chrono13duration_castB6v15006INS0_8durationIxNS_5ratioILl1ELl1000EEEEExNS3_ILl1ELl1000000000EEEEENS_9enable_ifIXsr13__is_durationIT_EE5valueES8_E4typeERKNS2_IT0_T1_EE
	.cfi_startproc
; %bb.0:
	sub	sp, sp, #48
	.cfi_def_cfa_offset 48
	stp	x29, x30, [sp, #32]             ; 16-byte Folded Spill
	add	x29, sp, #32
	.cfi_def_cfa w29, 16
	.cfi_offset w30, -8
	.cfi_offset w29, -16
	str	x0, [sp, #16]
	ldr	x1, [sp, #16]
	add	x0, sp, #15
	bl	__ZNKSt3__16chrono15__duration_castINS0_8durationIxNS_5ratioILl1ELl1000000000EEEEENS2_IxNS3_ILl1ELl1000EEEEENS3_ILl1ELl1000000EEELb1ELb0EEclB6v15006ERKS5_
	stur	x0, [x29, #-8]
	ldur	x0, [x29, #-8]
	ldp	x29, x30, [sp, #32]             ; 16-byte Folded Reload
	add	sp, sp, #48
	ret
	.cfi_endproc
                                        ; -- End function
	.private_extern	__ZNSt3__16chronomiB6v15006INS0_12steady_clockENS0_8durationIxNS_5ratioILl1ELl1000000000EEEEES6_EENS_11common_typeIJT0_T1_EE4typeERKNS0_10time_pointIT_S8_EERKNSC_ISD_S9_EE ; -- Begin function _ZNSt3__16chronomiB6v15006INS0_12steady_clockENS0_8durationIxNS_5ratioILl1ELl1000000000EEEEES6_EENS_11common_typeIJT0_T1_EE4typeERKNS0_10time_pointIT_S8_EERKNSC_ISD_S9_EE
	.globl	__ZNSt3__16chronomiB6v15006INS0_12steady_clockENS0_8durationIxNS_5ratioILl1ELl1000000000EEEEES6_EENS_11common_typeIJT0_T1_EE4typeERKNS0_10time_pointIT_S8_EERKNSC_ISD_S9_EE
	.weak_definition	__ZNSt3__16chronomiB6v15006INS0_12steady_clockENS0_8durationIxNS_5ratioILl1ELl1000000000EEEEES6_EENS_11common_typeIJT0_T1_EE4typeERKNS0_10time_pointIT_S8_EERKNSC_ISD_S9_EE
	.p2align	2
__ZNSt3__16chronomiB6v15006INS0_12steady_clockENS0_8durationIxNS_5ratioILl1ELl1000000000EEEEES6_EENS_11common_typeIJT0_T1_EE4typeERKNS0_10time_pointIT_S8_EERKNSC_ISD_S9_EE: ; @_ZNSt3__16chronomiB6v15006INS0_12steady_clockENS0_8durationIxNS_5ratioILl1ELl1000000000EEEEES6_EENS_11common_typeIJT0_T1_EE4typeERKNS0_10time_pointIT_S8_EERKNSC_ISD_S9_EE
	.cfi_startproc
; %bb.0:
	sub	sp, sp, #64
	.cfi_def_cfa_offset 64
	stp	x29, x30, [sp, #48]             ; 16-byte Folded Spill
	add	x29, sp, #48
	.cfi_def_cfa w29, 16
	.cfi_offset w30, -8
	.cfi_offset w29, -16
	stur	x0, [x29, #-16]
	str	x1, [sp, #24]
	ldur	x0, [x29, #-16]
	bl	__ZNKSt3__16chrono10time_pointINS0_12steady_clockENS0_8durationIxNS_5ratioILl1ELl1000000000EEEEEE16time_since_epochB6v15006Ev
	add	x8, sp, #16
	str	x8, [sp]                        ; 8-byte Folded Spill
	str	x0, [sp, #16]
	ldr	x0, [sp, #24]
	bl	__ZNKSt3__16chrono10time_pointINS0_12steady_clockENS0_8durationIxNS_5ratioILl1ELl1000000000EEEEEE16time_since_epochB6v15006Ev
	mov	x8, x0
	ldr	x0, [sp]                        ; 8-byte Folded Reload
	add	x1, sp, #8
	str	x8, [sp, #8]
	bl	__ZNSt3__16chronomiB6v15006IxNS_5ratioILl1ELl1000000000EEExS3_EENS_11common_typeIJNS0_8durationIT_T0_EENS5_IT1_T2_EEEE4typeERKS8_RKSB_
	stur	x0, [x29, #-8]
	ldur	x0, [x29, #-8]
	ldp	x29, x30, [sp, #48]             ; 16-byte Folded Reload
	add	sp, sp, #64
	ret
	.cfi_endproc
                                        ; -- End function
	.private_extern	__ZNKSt3__16chrono8durationIxNS_5ratioILl1ELl1000EEEE5countB6v15006Ev ; -- Begin function _ZNKSt3__16chrono8durationIxNS_5ratioILl1ELl1000EEEE5countB6v15006Ev
	.globl	__ZNKSt3__16chrono8durationIxNS_5ratioILl1ELl1000EEEE5countB6v15006Ev
	.weak_definition	__ZNKSt3__16chrono8durationIxNS_5ratioILl1ELl1000EEEE5countB6v15006Ev
	.p2align	2
__ZNKSt3__16chrono8durationIxNS_5ratioILl1ELl1000EEEE5countB6v15006Ev: ; @_ZNKSt3__16chrono8durationIxNS_5ratioILl1ELl1000EEEE5countB6v15006Ev
	.cfi_startproc
; %bb.0:
	sub	sp, sp, #16
	.cfi_def_cfa_offset 16
	str	x0, [sp, #8]
	ldr	x8, [sp, #8]
	ldr	x0, [x8]
	add	sp, sp, #16
	ret
	.cfi_endproc
                                        ; -- End function
	.globl	__ZNSt3__18optionalIN3map6MapperEED1Ev ; -- Begin function _ZNSt3__18optionalIN3map6MapperEED1Ev
	.weak_def_can_be_hidden	__ZNSt3__18optionalIN3map6MapperEED1Ev
	.p2align	2
__ZNSt3__18optionalIN3map6MapperEED1Ev: ; @_ZNSt3__18optionalIN3map6MapperEED1Ev
	.cfi_startproc
; %bb.0:
	sub	sp, sp, #32
	.cfi_def_cfa_offset 32
	stp	x29, x30, [sp, #16]             ; 16-byte Folded Spill
	add	x29, sp, #16
	.cfi_def_cfa w29, 16
	.cfi_offset w30, -8
	.cfi_offset w29, -16
	str	x0, [sp, #8]
	ldr	x0, [sp, #8]
	str	x0, [sp]                        ; 8-byte Folded Spill
	bl	__ZNSt3__18optionalIN3map6MapperEED2Ev
	ldr	x0, [sp]                        ; 8-byte Folded Reload
	ldp	x29, x30, [sp, #16]             ; 16-byte Folded Reload
	add	sp, sp, #32
	ret
	.cfi_endproc
                                        ; -- End function
	.globl	__ZN3map5PointC2Edd             ; -- Begin function _ZN3map5PointC2Edd
	.weak_def_can_be_hidden	__ZN3map5PointC2Edd
	.p2align	2
__ZN3map5PointC2Edd:                    ; @_ZN3map5PointC2Edd
	.cfi_startproc
; %bb.0:
	sub	sp, sp, #32
	.cfi_def_cfa_offset 32
	str	x0, [sp, #24]
	str	d0, [sp, #16]
	str	d1, [sp, #8]
	ldr	x0, [sp, #24]
	ldr	d0, [sp, #16]
	str	d0, [x0]
	ldr	d0, [sp, #8]
	str	d0, [x0, #8]
	add	sp, sp, #32
	ret
	.cfi_endproc
                                        ; -- End function
	.globl	__ZN3map3clr3RGBC2Eiii          ; -- Begin function _ZN3map3clr3RGBC2Eiii
	.weak_def_can_be_hidden	__ZN3map3clr3RGBC2Eiii
	.p2align	2
__ZN3map3clr3RGBC2Eiii:                 ; @_ZN3map3clr3RGBC2Eiii
	.cfi_startproc
; %bb.0:
	sub	sp, sp, #96
	.cfi_def_cfa_offset 96
	stp	x29, x30, [sp, #80]             ; 16-byte Folded Spill
	add	x29, sp, #80
	.cfi_def_cfa w29, 16
	.cfi_offset w30, -8
	.cfi_offset w29, -16
	stur	x0, [x29, #-8]
	sub	x0, x29, #12
	stur	w1, [x29, #-12]
	sub	x8, x29, #16
	str	x8, [sp]                        ; 8-byte Folded Spill
	stur	w2, [x29, #-16]
	sub	x8, x29, #20
	str	x8, [sp, #16]                   ; 8-byte Folded Spill
	stur	w3, [x29, #-20]
	ldur	x8, [x29, #-8]
	str	x8, [sp, #24]                   ; 8-byte Folded Spill
	sub	x1, x29, #24
	stur	wzr, [x29, #-24]
	sub	x2, x29, #28
	mov	w8, #255
	str	w8, [sp, #12]                   ; 4-byte Folded Spill
	stur	w8, [x29, #-28]
	bl	__ZNSt3__15clampB6v15006IiEERKT_S3_S3_S3_
	ldr	w8, [sp, #12]                   ; 4-byte Folded Reload
	ldr	x10, [sp, #24]                  ; 8-byte Folded Reload
	mov	x9, x0
	ldr	x0, [sp]                        ; 8-byte Folded Reload
	ldr	w9, [x9]
	strh	w9, [x10]
	sub	x1, x29, #32
	stur	wzr, [x29, #-32]
	sub	x2, x29, #36
	stur	w8, [x29, #-36]
	bl	__ZNSt3__15clampB6v15006IiEERKT_S3_S3_S3_
	ldr	w8, [sp, #12]                   ; 4-byte Folded Reload
	ldr	x10, [sp, #24]                  ; 8-byte Folded Reload
	mov	x9, x0
	ldr	x0, [sp, #16]                   ; 8-byte Folded Reload
	ldr	w9, [x9]
	strh	w9, [x10, #2]
	add	x1, sp, #40
	str	wzr, [sp, #40]
	add	x2, sp, #36
	str	w8, [sp, #36]
	bl	__ZNSt3__15clampB6v15006IiEERKT_S3_S3_S3_
	mov	x8, x0
	ldr	x0, [sp, #24]                   ; 8-byte Folded Reload
	ldr	w8, [x8]
	strh	w8, [x0, #4]
	ldp	x29, x30, [sp, #80]             ; 16-byte Folded Reload
	add	sp, sp, #96
	ret
	.cfi_endproc
                                        ; -- End function
	.private_extern	__ZNSt3__15clampB6v15006IiEERKT_S3_S3_S3_ ; -- Begin function _ZNSt3__15clampB6v15006IiEERKT_S3_S3_S3_
	.globl	__ZNSt3__15clampB6v15006IiEERKT_S3_S3_S3_
	.weak_definition	__ZNSt3__15clampB6v15006IiEERKT_S3_S3_S3_
	.p2align	2
__ZNSt3__15clampB6v15006IiEERKT_S3_S3_S3_: ; @_ZNSt3__15clampB6v15006IiEERKT_S3_S3_S3_
	.cfi_startproc
; %bb.0:
	sub	sp, sp, #48
	.cfi_def_cfa_offset 48
	stp	x29, x30, [sp, #32]             ; 16-byte Folded Spill
	add	x29, sp, #32
	.cfi_def_cfa w29, 16
	.cfi_offset w30, -8
	.cfi_offset w29, -16
	stur	x0, [x29, #-8]
	str	x1, [sp, #16]
	str	x2, [sp, #8]
	ldur	x0, [x29, #-8]
	ldr	x1, [sp, #16]
	ldr	x2, [sp, #8]
	bl	__ZNSt3__15clampB6v15006IiNS_6__lessIiiEEEERKT_S5_S5_S5_T0_
	ldp	x29, x30, [sp, #32]             ; 16-byte Folded Reload
	add	sp, sp, #48
	ret
	.cfi_endproc
                                        ; -- End function
	.private_extern	__ZNSt3__15clampB6v15006IiNS_6__lessIiiEEEERKT_S5_S5_S5_T0_ ; -- Begin function _ZNSt3__15clampB6v15006IiNS_6__lessIiiEEEERKT_S5_S5_S5_T0_
	.globl	__ZNSt3__15clampB6v15006IiNS_6__lessIiiEEEERKT_S5_S5_S5_T0_
	.weak_definition	__ZNSt3__15clampB6v15006IiNS_6__lessIiiEEEERKT_S5_S5_S5_T0_
	.p2align	2
__ZNSt3__15clampB6v15006IiNS_6__lessIiiEEEERKT_S5_S5_S5_T0_: ; @_ZNSt3__15clampB6v15006IiNS_6__lessIiiEEEERKT_S5_S5_S5_T0_
	.cfi_startproc
; %bb.0:
	sub	sp, sp, #64
	.cfi_def_cfa_offset 64
	stp	x29, x30, [sp, #48]             ; 16-byte Folded Spill
	add	x29, sp, #48
	.cfi_def_cfa w29, 16
	.cfi_offset w30, -8
	.cfi_offset w29, -16
	stur	x0, [x29, #-16]
	str	x1, [sp, #24]
	str	x2, [sp, #16]
	ldur	x1, [x29, #-16]
	ldr	x2, [sp, #24]
	sub	x0, x29, #1
	bl	__ZNKSt3__16__lessIiiEclB6v15006ERKiS3_
	tbz	w0, #0, LBB31_2
	b	LBB31_1
LBB31_1:
	ldr	x8, [sp, #24]
	str	x8, [sp, #8]                    ; 8-byte Folded Spill
	b	LBB31_6
LBB31_2:
	ldr	x1, [sp, #16]
	ldur	x2, [x29, #-16]
	sub	x0, x29, #1
	bl	__ZNKSt3__16__lessIiiEclB6v15006ERKiS3_
	tbz	w0, #0, LBB31_4
	b	LBB31_3
LBB31_3:
	ldr	x8, [sp, #16]
	str	x8, [sp]                        ; 8-byte Folded Spill
	b	LBB31_5
LBB31_4:
	ldur	x8, [x29, #-16]
	str	x8, [sp]                        ; 8-byte Folded Spill
	b	LBB31_5
LBB31_5:
	ldr	x8, [sp]                        ; 8-byte Folded Reload
	str	x8, [sp, #8]                    ; 8-byte Folded Spill
	b	LBB31_6
LBB31_6:
	ldr	x0, [sp, #8]                    ; 8-byte Folded Reload
	ldp	x29, x30, [sp, #48]             ; 16-byte Folded Reload
	add	sp, sp, #64
	ret
	.cfi_endproc
                                        ; -- End function
	.private_extern	__ZNKSt3__16__lessIiiEclB6v15006ERKiS3_ ; -- Begin function _ZNKSt3__16__lessIiiEclB6v15006ERKiS3_
	.globl	__ZNKSt3__16__lessIiiEclB6v15006ERKiS3_
	.weak_definition	__ZNKSt3__16__lessIiiEclB6v15006ERKiS3_
	.p2align	2
__ZNKSt3__16__lessIiiEclB6v15006ERKiS3_: ; @_ZNKSt3__16__lessIiiEclB6v15006ERKiS3_
	.cfi_startproc
; %bb.0:
	sub	sp, sp, #32
	.cfi_def_cfa_offset 32
	str	x0, [sp, #24]
	str	x1, [sp, #16]
	str	x2, [sp, #8]
	ldr	x8, [sp, #16]
	ldr	w8, [x8]
	ldr	x9, [sp, #8]
	ldr	w9, [x9]
	subs	w8, w8, w9
	cset	w8, lt
	and	w0, w8, #0x1
	add	sp, sp, #32
	ret
	.cfi_endproc
                                        ; -- End function
	.globl	__ZN3map6shapes4RectD2Ev        ; -- Begin function _ZN3map6shapes4RectD2Ev
	.weak_def_can_be_hidden	__ZN3map6shapes4RectD2Ev
	.p2align	2
__ZN3map6shapes4RectD2Ev:               ; @_ZN3map6shapes4RectD2Ev
	.cfi_startproc
; %bb.0:
	sub	sp, sp, #32
	.cfi_def_cfa_offset 32
	stp	x29, x30, [sp, #16]             ; 16-byte Folded Spill
	add	x29, sp, #16
	.cfi_def_cfa w29, 16
	.cfi_offset w30, -8
	.cfi_offset w29, -16
	str	x0, [sp, #8]
	ldr	x0, [sp, #8]
	str	x0, [sp]                        ; 8-byte Folded Spill
	bl	__ZN3map6shapes5ShapeD2Ev
	ldr	x0, [sp]                        ; 8-byte Folded Reload
	ldp	x29, x30, [sp, #16]             ; 16-byte Folded Reload
	add	sp, sp, #32
	ret
	.cfi_endproc
                                        ; -- End function
	.globl	__ZN3map6shapes5ShapeD2Ev       ; -- Begin function _ZN3map6shapes5ShapeD2Ev
	.weak_def_can_be_hidden	__ZN3map6shapes5ShapeD2Ev
	.p2align	2
__ZN3map6shapes5ShapeD2Ev:              ; @_ZN3map6shapes5ShapeD2Ev
	.cfi_startproc
; %bb.0:
	sub	sp, sp, #32
	.cfi_def_cfa_offset 32
	stp	x29, x30, [sp, #16]             ; 16-byte Folded Spill
	add	x29, sp, #16
	.cfi_def_cfa w29, 16
	.cfi_offset w30, -8
	.cfi_offset w29, -16
	adrp	x8, __ZTVN3map6shapes5ShapeE@GOTPAGE
	ldr	x8, [x8, __ZTVN3map6shapes5ShapeE@GOTPAGEOFF]
	add	x9, x8, #16
	str	x0, [sp, #8]
	ldr	x8, [sp, #8]
	str	x8, [sp]                        ; 8-byte Folded Spill
	str	x9, [x8]
	add	x0, x8, #40
	bl	__ZNSt3__16vectorIN3map5PointENS_9allocatorIS2_EEED1B6v15006Ev
	ldr	x0, [sp]                        ; 8-byte Folded Reload
	ldp	x29, x30, [sp, #16]             ; 16-byte Folded Reload
	add	sp, sp, #32
	ret
	.cfi_endproc
                                        ; -- End function
	.private_extern	__ZNSt3__16vectorIN3map5PointENS_9allocatorIS2_EEED1B6v15006Ev ; -- Begin function _ZNSt3__16vectorIN3map5PointENS_9allocatorIS2_EEED1B6v15006Ev
	.globl	__ZNSt3__16vectorIN3map5PointENS_9allocatorIS2_EEED1B6v15006Ev
	.weak_def_can_be_hidden	__ZNSt3__16vectorIN3map5PointENS_9allocatorIS2_EEED1B6v15006Ev
	.p2align	2
__ZNSt3__16vectorIN3map5PointENS_9allocatorIS2_EEED1B6v15006Ev: ; @_ZNSt3__16vectorIN3map5PointENS_9allocatorIS2_EEED1B6v15006Ev
	.cfi_startproc
; %bb.0:
	sub	sp, sp, #32
	.cfi_def_cfa_offset 32
	stp	x29, x30, [sp, #16]             ; 16-byte Folded Spill
	add	x29, sp, #16
	.cfi_def_cfa w29, 16
	.cfi_offset w30, -8
	.cfi_offset w29, -16
	str	x0, [sp, #8]
	ldr	x0, [sp, #8]
	str	x0, [sp]                        ; 8-byte Folded Spill
	bl	__ZNSt3__16vectorIN3map5PointENS_9allocatorIS2_EEED2B6v15006Ev
	ldr	x0, [sp]                        ; 8-byte Folded Reload
	ldp	x29, x30, [sp, #16]             ; 16-byte Folded Reload
	add	sp, sp, #32
	ret
	.cfi_endproc
                                        ; -- End function
	.globl	__ZN3map6shapes5ShapeD1Ev       ; -- Begin function _ZN3map6shapes5ShapeD1Ev
	.weak_def_can_be_hidden	__ZN3map6shapes5ShapeD1Ev
	.p2align	2
__ZN3map6shapes5ShapeD1Ev:              ; @_ZN3map6shapes5ShapeD1Ev
	.cfi_startproc
; %bb.0:
	sub	sp, sp, #16
	.cfi_def_cfa_offset 16
	str	x0, [sp]
	ldr	x8, [sp]
	str	x8, [sp, #8]
	brk	#0x1
	.cfi_endproc
                                        ; -- End function
	.globl	__ZN3map6shapes5ShapeD0Ev       ; -- Begin function _ZN3map6shapes5ShapeD0Ev
	.weak_def_can_be_hidden	__ZN3map6shapes5ShapeD0Ev
	.p2align	2
__ZN3map6shapes5ShapeD0Ev:              ; @_ZN3map6shapes5ShapeD0Ev
	.cfi_startproc
; %bb.0:
	sub	sp, sp, #16
	.cfi_def_cfa_offset 16
	str	x0, [sp, #8]
	brk	#0x1
	.cfi_endproc
                                        ; -- End function
	.private_extern	__ZNSt3__16vectorIN3map5PointENS_9allocatorIS2_EEED2B6v15006Ev ; -- Begin function _ZNSt3__16vectorIN3map5PointENS_9allocatorIS2_EEED2B6v15006Ev
	.globl	__ZNSt3__16vectorIN3map5PointENS_9allocatorIS2_EEED2B6v15006Ev
	.weak_def_can_be_hidden	__ZNSt3__16vectorIN3map5PointENS_9allocatorIS2_EEED2B6v15006Ev
	.p2align	2
__ZNSt3__16vectorIN3map5PointENS_9allocatorIS2_EEED2B6v15006Ev: ; @_ZNSt3__16vectorIN3map5PointENS_9allocatorIS2_EEED2B6v15006Ev
Lfunc_begin4:
	.cfi_startproc
	.cfi_personality 155, ___gxx_personality_v0
	.cfi_lsda 16, Lexception4
; %bb.0:
	sub	sp, sp, #64
	.cfi_def_cfa_offset 64
	stp	x29, x30, [sp, #48]             ; 16-byte Folded Spill
	add	x29, sp, #48
	.cfi_def_cfa w29, 16
	.cfi_offset w30, -8
	.cfi_offset w29, -16
	stur	x0, [x29, #-16]
	ldur	x0, [x29, #-16]
	str	x0, [sp, #24]                   ; 8-byte Folded Spill
	mov	x8, x0
	stur	x8, [x29, #-8]
	bl	__ZNKSt3__16vectorIN3map5PointENS_9allocatorIS2_EEE17__annotate_deleteB6v15006Ev
	ldr	x0, [sp, #24]                   ; 8-byte Folded Reload
Ltmp64:
	bl	__ZNSt3__118__debug_db_erase_cB6v15006INS_6vectorIN3map5PointENS_9allocatorIS3_EEEEEEvPT_
Ltmp65:
	b	LBB38_1
LBB38_1:
	ldr	x8, [sp, #24]                   ; 8-byte Folded Reload
	ldr	x8, [x8]
	subs	x8, x8, #0
	cset	w8, eq
	tbnz	w8, #0, LBB38_3
	b	LBB38_2
LBB38_2:
	ldr	x0, [sp, #24]                   ; 8-byte Folded Reload
	bl	__ZNSt3__16vectorIN3map5PointENS_9allocatorIS2_EEE7__clearB6v15006Ev
	ldr	x0, [sp, #24]                   ; 8-byte Folded Reload
	bl	__ZNSt3__16vectorIN3map5PointENS_9allocatorIS2_EEE7__allocB6v15006Ev
	mov	x1, x0
	ldr	x0, [sp, #24]                   ; 8-byte Folded Reload
	str	x1, [sp, #16]                   ; 8-byte Folded Spill
	ldr	x8, [x0]
	str	x8, [sp, #8]                    ; 8-byte Folded Spill
	bl	__ZNKSt3__16vectorIN3map5PointENS_9allocatorIS2_EEE8capacityB6v15006Ev
	ldr	x1, [sp, #8]                    ; 8-byte Folded Reload
	mov	x2, x0
	ldr	x0, [sp, #16]                   ; 8-byte Folded Reload
	bl	__ZNSt3__116allocator_traitsINS_9allocatorIN3map5PointEEEE10deallocateB6v15006ERS4_PS3_m
	b	LBB38_3
LBB38_3:
	ldur	x0, [x29, #-8]
	ldp	x29, x30, [sp, #48]             ; 16-byte Folded Reload
	add	sp, sp, #64
	ret
LBB38_4:
Ltmp66:
	bl	___clang_call_terminate
Lfunc_end4:
	.cfi_endproc
	.section	__TEXT,__gcc_except_tab
	.p2align	2
GCC_except_table38:
Lexception4:
	.byte	255                             ; @LPStart Encoding = omit
	.byte	155                             ; @TType Encoding = indirect pcrel sdata4
	.uleb128 Lttbase1-Lttbaseref1
Lttbaseref1:
	.byte	1                               ; Call site Encoding = uleb128
	.uleb128 Lcst_end4-Lcst_begin4
Lcst_begin4:
	.uleb128 Ltmp64-Lfunc_begin4            ; >> Call Site 1 <<
	.uleb128 Ltmp65-Ltmp64                  ;   Call between Ltmp64 and Ltmp65
	.uleb128 Ltmp66-Lfunc_begin4            ;     jumps to Ltmp66
	.byte	1                               ;   On action: 1
Lcst_end4:
	.byte	1                               ; >> Action Record 1 <<
                                        ;   Catch TypeInfo 1
	.byte	0                               ;   No further actions
	.p2align	2
                                        ; >> Catch TypeInfos <<
	.long	0                               ; TypeInfo 1
Lttbase1:
	.p2align	2
                                        ; -- End function
	.section	__TEXT,__text,regular,pure_instructions
	.private_extern	__ZNKSt3__16vectorIN3map5PointENS_9allocatorIS2_EEE17__annotate_deleteB6v15006Ev ; -- Begin function _ZNKSt3__16vectorIN3map5PointENS_9allocatorIS2_EEE17__annotate_deleteB6v15006Ev
	.globl	__ZNKSt3__16vectorIN3map5PointENS_9allocatorIS2_EEE17__annotate_deleteB6v15006Ev
	.weak_definition	__ZNKSt3__16vectorIN3map5PointENS_9allocatorIS2_EEE17__annotate_deleteB6v15006Ev
	.p2align	2
__ZNKSt3__16vectorIN3map5PointENS_9allocatorIS2_EEE17__annotate_deleteB6v15006Ev: ; @_ZNKSt3__16vectorIN3map5PointENS_9allocatorIS2_EEE17__annotate_deleteB6v15006Ev
	.cfi_startproc
; %bb.0:
	sub	sp, sp, #80
	.cfi_def_cfa_offset 80
	stp	x29, x30, [sp, #64]             ; 16-byte Folded Spill
	add	x29, sp, #64
	.cfi_def_cfa w29, 16
	.cfi_offset w30, -8
	.cfi_offset w29, -16
	stur	x0, [x29, #-8]
	ldur	x0, [x29, #-8]
	stur	x0, [x29, #-16]                 ; 8-byte Folded Spill
	bl	__ZNKSt3__16vectorIN3map5PointENS_9allocatorIS2_EEE4dataB6v15006Ev
	mov	x1, x0
	ldur	x0, [x29, #-16]                 ; 8-byte Folded Reload
	str	x1, [sp]                        ; 8-byte Folded Spill
	bl	__ZNKSt3__16vectorIN3map5PointENS_9allocatorIS2_EEE4dataB6v15006Ev
	mov	x8, x0
	ldur	x0, [x29, #-16]                 ; 8-byte Folded Reload
	str	x8, [sp, #16]                   ; 8-byte Folded Spill
	bl	__ZNKSt3__16vectorIN3map5PointENS_9allocatorIS2_EEE8capacityB6v15006Ev
	mov	x8, x0
	ldur	x0, [x29, #-16]                 ; 8-byte Folded Reload
	str	x8, [sp, #8]                    ; 8-byte Folded Spill
	bl	__ZNKSt3__16vectorIN3map5PointENS_9allocatorIS2_EEE4dataB6v15006Ev
	mov	x8, x0
	ldur	x0, [x29, #-16]                 ; 8-byte Folded Reload
	str	x8, [sp, #32]                   ; 8-byte Folded Spill
	bl	__ZNKSt3__16vectorIN3map5PointENS_9allocatorIS2_EEE4sizeB6v15006Ev
	mov	x8, x0
	ldur	x0, [x29, #-16]                 ; 8-byte Folded Reload
	str	x8, [sp, #24]                   ; 8-byte Folded Spill
	bl	__ZNKSt3__16vectorIN3map5PointENS_9allocatorIS2_EEE4dataB6v15006Ev
	mov	x8, x0
	ldur	x0, [x29, #-16]                 ; 8-byte Folded Reload
	stur	x8, [x29, #-24]                 ; 8-byte Folded Spill
	bl	__ZNKSt3__16vectorIN3map5PointENS_9allocatorIS2_EEE8capacityB6v15006Ev
	ldr	x1, [sp]                        ; 8-byte Folded Reload
	ldr	x13, [sp, #8]                   ; 8-byte Folded Reload
	ldr	x12, [sp, #16]                  ; 8-byte Folded Reload
	ldr	x11, [sp, #24]                  ; 8-byte Folded Reload
	ldr	x10, [sp, #32]                  ; 8-byte Folded Reload
	ldur	x8, [x29, #-24]                 ; 8-byte Folded Reload
	mov	x9, x0
	ldur	x0, [x29, #-16]                 ; 8-byte Folded Reload
	add	x2, x12, x13, lsl #4
	add	x3, x10, x11, lsl #4
	add	x4, x8, x9, lsl #4
	bl	__ZNKSt3__16vectorIN3map5PointENS_9allocatorIS2_EEE31__annotate_contiguous_containerB6v15006EPKvS7_S7_S7_
	ldp	x29, x30, [sp, #64]             ; 16-byte Folded Reload
	add	sp, sp, #80
	ret
	.cfi_endproc
                                        ; -- End function
	.private_extern	__ZNSt3__118__debug_db_erase_cB6v15006INS_6vectorIN3map5PointENS_9allocatorIS3_EEEEEEvPT_ ; -- Begin function _ZNSt3__118__debug_db_erase_cB6v15006INS_6vectorIN3map5PointENS_9allocatorIS3_EEEEEEvPT_
	.globl	__ZNSt3__118__debug_db_erase_cB6v15006INS_6vectorIN3map5PointENS_9allocatorIS3_EEEEEEvPT_
	.weak_definition	__ZNSt3__118__debug_db_erase_cB6v15006INS_6vectorIN3map5PointENS_9allocatorIS3_EEEEEEvPT_
	.p2align	2
__ZNSt3__118__debug_db_erase_cB6v15006INS_6vectorIN3map5PointENS_9allocatorIS3_EEEEEEvPT_: ; @_ZNSt3__118__debug_db_erase_cB6v15006INS_6vectorIN3map5PointENS_9allocatorIS3_EEEEEEvPT_
	.cfi_startproc
; %bb.0:
	sub	sp, sp, #16
	.cfi_def_cfa_offset 16
	str	x0, [sp, #8]
	add	sp, sp, #16
	ret
	.cfi_endproc
                                        ; -- End function
	.private_extern	___clang_call_terminate ; -- Begin function __clang_call_terminate
	.globl	___clang_call_terminate
	.weak_definition	___clang_call_terminate
	.p2align	2
___clang_call_terminate:                ; @__clang_call_terminate
; %bb.0:
	stp	x29, x30, [sp, #-16]!           ; 16-byte Folded Spill
	bl	___cxa_begin_catch
	bl	__ZSt9terminatev
                                        ; -- End function
	.private_extern	__ZNSt3__16vectorIN3map5PointENS_9allocatorIS2_EEE7__clearB6v15006Ev ; -- Begin function _ZNSt3__16vectorIN3map5PointENS_9allocatorIS2_EEE7__clearB6v15006Ev
	.globl	__ZNSt3__16vectorIN3map5PointENS_9allocatorIS2_EEE7__clearB6v15006Ev
	.weak_definition	__ZNSt3__16vectorIN3map5PointENS_9allocatorIS2_EEE7__clearB6v15006Ev
	.p2align	2
__ZNSt3__16vectorIN3map5PointENS_9allocatorIS2_EEE7__clearB6v15006Ev: ; @_ZNSt3__16vectorIN3map5PointENS_9allocatorIS2_EEE7__clearB6v15006Ev
	.cfi_startproc
; %bb.0:
	sub	sp, sp, #32
	.cfi_def_cfa_offset 32
	stp	x29, x30, [sp, #16]             ; 16-byte Folded Spill
	add	x29, sp, #16
	.cfi_def_cfa w29, 16
	.cfi_offset w30, -8
	.cfi_offset w29, -16
	str	x0, [sp, #8]
	ldr	x0, [sp, #8]
	ldr	x1, [x0]
	bl	__ZNSt3__16vectorIN3map5PointENS_9allocatorIS2_EEE22__base_destruct_at_endB6v15006EPS2_
	ldp	x29, x30, [sp, #16]             ; 16-byte Folded Reload
	add	sp, sp, #32
	ret
	.cfi_endproc
                                        ; -- End function
	.private_extern	__ZNSt3__116allocator_traitsINS_9allocatorIN3map5PointEEEE10deallocateB6v15006ERS4_PS3_m ; -- Begin function _ZNSt3__116allocator_traitsINS_9allocatorIN3map5PointEEEE10deallocateB6v15006ERS4_PS3_m
	.globl	__ZNSt3__116allocator_traitsINS_9allocatorIN3map5PointEEEE10deallocateB6v15006ERS4_PS3_m
	.weak_definition	__ZNSt3__116allocator_traitsINS_9allocatorIN3map5PointEEEE10deallocateB6v15006ERS4_PS3_m
	.p2align	2
__ZNSt3__116allocator_traitsINS_9allocatorIN3map5PointEEEE10deallocateB6v15006ERS4_PS3_m: ; @_ZNSt3__116allocator_traitsINS_9allocatorIN3map5PointEEEE10deallocateB6v15006ERS4_PS3_m
	.cfi_startproc
; %bb.0:
	sub	sp, sp, #48
	.cfi_def_cfa_offset 48
	stp	x29, x30, [sp, #32]             ; 16-byte Folded Spill
	add	x29, sp, #32
	.cfi_def_cfa w29, 16
	.cfi_offset w30, -8
	.cfi_offset w29, -16
	stur	x0, [x29, #-8]
	str	x1, [sp, #16]
	str	x2, [sp, #8]
	ldur	x0, [x29, #-8]
	ldr	x1, [sp, #16]
	ldr	x2, [sp, #8]
	bl	__ZNSt3__19allocatorIN3map5PointEE10deallocateB6v15006EPS2_m
	ldp	x29, x30, [sp, #32]             ; 16-byte Folded Reload
	add	sp, sp, #48
	ret
	.cfi_endproc
                                        ; -- End function
	.private_extern	__ZNSt3__16vectorIN3map5PointENS_9allocatorIS2_EEE7__allocB6v15006Ev ; -- Begin function _ZNSt3__16vectorIN3map5PointENS_9allocatorIS2_EEE7__allocB6v15006Ev
	.globl	__ZNSt3__16vectorIN3map5PointENS_9allocatorIS2_EEE7__allocB6v15006Ev
	.weak_definition	__ZNSt3__16vectorIN3map5PointENS_9allocatorIS2_EEE7__allocB6v15006Ev
	.p2align	2
__ZNSt3__16vectorIN3map5PointENS_9allocatorIS2_EEE7__allocB6v15006Ev: ; @_ZNSt3__16vectorIN3map5PointENS_9allocatorIS2_EEE7__allocB6v15006Ev
	.cfi_startproc
; %bb.0:
	sub	sp, sp, #32
	.cfi_def_cfa_offset 32
	stp	x29, x30, [sp, #16]             ; 16-byte Folded Spill
	add	x29, sp, #16
	.cfi_def_cfa w29, 16
	.cfi_offset w30, -8
	.cfi_offset w29, -16
	str	x0, [sp, #8]
	ldr	x8, [sp, #8]
	add	x0, x8, #16
	bl	__ZNSt3__117__compressed_pairIPN3map5PointENS_9allocatorIS2_EEE6secondB6v15006Ev
	ldp	x29, x30, [sp, #16]             ; 16-byte Folded Reload
	add	sp, sp, #32
	ret
	.cfi_endproc
                                        ; -- End function
	.private_extern	__ZNKSt3__16vectorIN3map5PointENS_9allocatorIS2_EEE8capacityB6v15006Ev ; -- Begin function _ZNKSt3__16vectorIN3map5PointENS_9allocatorIS2_EEE8capacityB6v15006Ev
	.globl	__ZNKSt3__16vectorIN3map5PointENS_9allocatorIS2_EEE8capacityB6v15006Ev
	.weak_definition	__ZNKSt3__16vectorIN3map5PointENS_9allocatorIS2_EEE8capacityB6v15006Ev
	.p2align	2
__ZNKSt3__16vectorIN3map5PointENS_9allocatorIS2_EEE8capacityB6v15006Ev: ; @_ZNKSt3__16vectorIN3map5PointENS_9allocatorIS2_EEE8capacityB6v15006Ev
	.cfi_startproc
; %bb.0:
	sub	sp, sp, #32
	.cfi_def_cfa_offset 32
	stp	x29, x30, [sp, #16]             ; 16-byte Folded Spill
	add	x29, sp, #16
	.cfi_def_cfa w29, 16
	.cfi_offset w30, -8
	.cfi_offset w29, -16
	str	x0, [sp, #8]
	ldr	x0, [sp, #8]
	str	x0, [sp]                        ; 8-byte Folded Spill
	bl	__ZNKSt3__16vectorIN3map5PointENS_9allocatorIS2_EEE9__end_capB6v15006Ev
	ldr	x9, [sp]                        ; 8-byte Folded Reload
	ldr	x8, [x0]
	ldr	x9, [x9]
	subs	x8, x8, x9
	mov	x9, #16
	sdiv	x0, x8, x9
	ldp	x29, x30, [sp, #16]             ; 16-byte Folded Reload
	add	sp, sp, #32
	ret
	.cfi_endproc
                                        ; -- End function
	.private_extern	__ZNKSt3__16vectorIN3map5PointENS_9allocatorIS2_EEE31__annotate_contiguous_containerB6v15006EPKvS7_S7_S7_ ; -- Begin function _ZNKSt3__16vectorIN3map5PointENS_9allocatorIS2_EEE31__annotate_contiguous_containerB6v15006EPKvS7_S7_S7_
	.globl	__ZNKSt3__16vectorIN3map5PointENS_9allocatorIS2_EEE31__annotate_contiguous_containerB6v15006EPKvS7_S7_S7_
	.weak_definition	__ZNKSt3__16vectorIN3map5PointENS_9allocatorIS2_EEE31__annotate_contiguous_containerB6v15006EPKvS7_S7_S7_
	.p2align	2
__ZNKSt3__16vectorIN3map5PointENS_9allocatorIS2_EEE31__annotate_contiguous_containerB6v15006EPKvS7_S7_S7_: ; @_ZNKSt3__16vectorIN3map5PointENS_9allocatorIS2_EEE31__annotate_contiguous_containerB6v15006EPKvS7_S7_S7_
	.cfi_startproc
; %bb.0:
	sub	sp, sp, #48
	.cfi_def_cfa_offset 48
	str	x0, [sp, #40]
	str	x1, [sp, #32]
	str	x2, [sp, #24]
	str	x3, [sp, #16]
	str	x4, [sp, #8]
	add	sp, sp, #48
	ret
	.cfi_endproc
                                        ; -- End function
	.private_extern	__ZNKSt3__16vectorIN3map5PointENS_9allocatorIS2_EEE4dataB6v15006Ev ; -- Begin function _ZNKSt3__16vectorIN3map5PointENS_9allocatorIS2_EEE4dataB6v15006Ev
	.globl	__ZNKSt3__16vectorIN3map5PointENS_9allocatorIS2_EEE4dataB6v15006Ev
	.weak_definition	__ZNKSt3__16vectorIN3map5PointENS_9allocatorIS2_EEE4dataB6v15006Ev
	.p2align	2
__ZNKSt3__16vectorIN3map5PointENS_9allocatorIS2_EEE4dataB6v15006Ev: ; @_ZNKSt3__16vectorIN3map5PointENS_9allocatorIS2_EEE4dataB6v15006Ev
	.cfi_startproc
; %bb.0:
	sub	sp, sp, #32
	.cfi_def_cfa_offset 32
	stp	x29, x30, [sp, #16]             ; 16-byte Folded Spill
	add	x29, sp, #16
	.cfi_def_cfa w29, 16
	.cfi_offset w30, -8
	.cfi_offset w29, -16
	str	x0, [sp, #8]
	ldr	x8, [sp, #8]
	ldr	x0, [x8]
	bl	__ZNSt3__112__to_addressB6v15006IN3map5PointEEEPT_S4_
	ldp	x29, x30, [sp, #16]             ; 16-byte Folded Reload
	add	sp, sp, #32
	ret
	.cfi_endproc
                                        ; -- End function
	.private_extern	__ZNKSt3__16vectorIN3map5PointENS_9allocatorIS2_EEE4sizeB6v15006Ev ; -- Begin function _ZNKSt3__16vectorIN3map5PointENS_9allocatorIS2_EEE4sizeB6v15006Ev
	.globl	__ZNKSt3__16vectorIN3map5PointENS_9allocatorIS2_EEE4sizeB6v15006Ev
	.weak_definition	__ZNKSt3__16vectorIN3map5PointENS_9allocatorIS2_EEE4sizeB6v15006Ev
	.p2align	2
__ZNKSt3__16vectorIN3map5PointENS_9allocatorIS2_EEE4sizeB6v15006Ev: ; @_ZNKSt3__16vectorIN3map5PointENS_9allocatorIS2_EEE4sizeB6v15006Ev
	.cfi_startproc
; %bb.0:
	sub	sp, sp, #16
	.cfi_def_cfa_offset 16
	str	x0, [sp, #8]
	ldr	x9, [sp, #8]
	ldr	x8, [x9, #8]
	ldr	x9, [x9]
	subs	x8, x8, x9
	mov	x9, #16
	sdiv	x0, x8, x9
	add	sp, sp, #16
	ret
	.cfi_endproc
                                        ; -- End function
	.private_extern	__ZNSt3__112__to_addressB6v15006IN3map5PointEEEPT_S4_ ; -- Begin function _ZNSt3__112__to_addressB6v15006IN3map5PointEEEPT_S4_
	.globl	__ZNSt3__112__to_addressB6v15006IN3map5PointEEEPT_S4_
	.weak_definition	__ZNSt3__112__to_addressB6v15006IN3map5PointEEEPT_S4_
	.p2align	2
__ZNSt3__112__to_addressB6v15006IN3map5PointEEEPT_S4_: ; @_ZNSt3__112__to_addressB6v15006IN3map5PointEEEPT_S4_
	.cfi_startproc
; %bb.0:
	sub	sp, sp, #16
	.cfi_def_cfa_offset 16
	str	x0, [sp, #8]
	ldr	x0, [sp, #8]
	add	sp, sp, #16
	ret
	.cfi_endproc
                                        ; -- End function
	.private_extern	__ZNSt3__16vectorIN3map5PointENS_9allocatorIS2_EEE22__base_destruct_at_endB6v15006EPS2_ ; -- Begin function _ZNSt3__16vectorIN3map5PointENS_9allocatorIS2_EEE22__base_destruct_at_endB6v15006EPS2_
	.globl	__ZNSt3__16vectorIN3map5PointENS_9allocatorIS2_EEE22__base_destruct_at_endB6v15006EPS2_
	.weak_definition	__ZNSt3__16vectorIN3map5PointENS_9allocatorIS2_EEE22__base_destruct_at_endB6v15006EPS2_
	.p2align	2
__ZNSt3__16vectorIN3map5PointENS_9allocatorIS2_EEE22__base_destruct_at_endB6v15006EPS2_: ; @_ZNSt3__16vectorIN3map5PointENS_9allocatorIS2_EEE22__base_destruct_at_endB6v15006EPS2_
Lfunc_begin5:
	.cfi_startproc
	.cfi_personality 155, ___gxx_personality_v0
	.cfi_lsda 16, Lexception5
; %bb.0:
	sub	sp, sp, #64
	.cfi_def_cfa_offset 64
	stp	x29, x30, [sp, #48]             ; 16-byte Folded Spill
	add	x29, sp, #48
	.cfi_def_cfa w29, 16
	.cfi_offset w30, -8
	.cfi_offset w29, -16
	stur	x0, [x29, #-8]
	stur	x1, [x29, #-16]
	ldur	x8, [x29, #-8]
	str	x8, [sp, #16]                   ; 8-byte Folded Spill
	ldr	x8, [x8, #8]
	str	x8, [sp, #24]
	b	LBB50_1
LBB50_1:                                ; =>This Inner Loop Header: Depth=1
	ldur	x8, [x29, #-16]
	ldr	x9, [sp, #24]
	subs	x8, x8, x9
	cset	w8, eq
	tbnz	w8, #0, LBB50_4
	b	LBB50_2
LBB50_2:                                ;   in Loop: Header=BB50_1 Depth=1
	ldr	x0, [sp, #16]                   ; 8-byte Folded Reload
	bl	__ZNSt3__16vectorIN3map5PointENS_9allocatorIS2_EEE7__allocB6v15006Ev
	str	x0, [sp, #8]                    ; 8-byte Folded Spill
	ldr	x8, [sp, #24]
	subs	x0, x8, #16
	str	x0, [sp, #24]
	bl	__ZNSt3__112__to_addressB6v15006IN3map5PointEEEPT_S4_
	mov	x1, x0
	ldr	x0, [sp, #8]                    ; 8-byte Folded Reload
Ltmp71:
	bl	__ZNSt3__116allocator_traitsINS_9allocatorIN3map5PointEEEE7destroyB6v15006IS3_vvEEvRS4_PT_
Ltmp72:
	b	LBB50_3
LBB50_3:                                ;   in Loop: Header=BB50_1 Depth=1
	b	LBB50_1
LBB50_4:
	ldr	x9, [sp, #16]                   ; 8-byte Folded Reload
	ldur	x8, [x29, #-16]
	str	x8, [x9, #8]
	ldp	x29, x30, [sp, #48]             ; 16-byte Folded Reload
	add	sp, sp, #64
	ret
LBB50_5:
Ltmp73:
	bl	___clang_call_terminate
Lfunc_end5:
	.cfi_endproc
	.section	__TEXT,__gcc_except_tab
	.p2align	2
GCC_except_table50:
Lexception5:
	.byte	255                             ; @LPStart Encoding = omit
	.byte	155                             ; @TType Encoding = indirect pcrel sdata4
	.uleb128 Lttbase2-Lttbaseref2
Lttbaseref2:
	.byte	1                               ; Call site Encoding = uleb128
	.uleb128 Lcst_end5-Lcst_begin5
Lcst_begin5:
	.uleb128 Ltmp71-Lfunc_begin5            ; >> Call Site 1 <<
	.uleb128 Ltmp72-Ltmp71                  ;   Call between Ltmp71 and Ltmp72
	.uleb128 Ltmp73-Lfunc_begin5            ;     jumps to Ltmp73
	.byte	1                               ;   On action: 1
Lcst_end5:
	.byte	1                               ; >> Action Record 1 <<
                                        ;   Catch TypeInfo 1
	.byte	0                               ;   No further actions
	.p2align	2
                                        ; >> Catch TypeInfos <<
	.long	0                               ; TypeInfo 1
Lttbase2:
	.p2align	2
                                        ; -- End function
	.section	__TEXT,__text,regular,pure_instructions
	.globl	__ZNSt3__116allocator_traitsINS_9allocatorIN3map5PointEEEE7destroyB6v15006IS3_vvEEvRS4_PT_ ; -- Begin function _ZNSt3__116allocator_traitsINS_9allocatorIN3map5PointEEEE7destroyB6v15006IS3_vvEEvRS4_PT_
	.weak_definition	__ZNSt3__116allocator_traitsINS_9allocatorIN3map5PointEEEE7destroyB6v15006IS3_vvEEvRS4_PT_
	.p2align	2
__ZNSt3__116allocator_traitsINS_9allocatorIN3map5PointEEEE7destroyB6v15006IS3_vvEEvRS4_PT_: ; @_ZNSt3__116allocator_traitsINS_9allocatorIN3map5PointEEEE7destroyB6v15006IS3_vvEEvRS4_PT_
	.cfi_startproc
; %bb.0:
	sub	sp, sp, #32
	.cfi_def_cfa_offset 32
	stp	x29, x30, [sp, #16]             ; 16-byte Folded Spill
	add	x29, sp, #16
	.cfi_def_cfa w29, 16
	.cfi_offset w30, -8
	.cfi_offset w29, -16
	str	x0, [sp, #8]
	str	x1, [sp]
	ldr	x0, [sp]
	bl	__ZNSt3__110destroy_atB6v15006IN3map5PointELi0EEEvPT_
	ldp	x29, x30, [sp, #16]             ; 16-byte Folded Reload
	add	sp, sp, #32
	ret
	.cfi_endproc
                                        ; -- End function
	.private_extern	__ZNSt3__110destroy_atB6v15006IN3map5PointELi0EEEvPT_ ; -- Begin function _ZNSt3__110destroy_atB6v15006IN3map5PointELi0EEEvPT_
	.globl	__ZNSt3__110destroy_atB6v15006IN3map5PointELi0EEEvPT_
	.weak_definition	__ZNSt3__110destroy_atB6v15006IN3map5PointELi0EEEvPT_
	.p2align	2
__ZNSt3__110destroy_atB6v15006IN3map5PointELi0EEEvPT_: ; @_ZNSt3__110destroy_atB6v15006IN3map5PointELi0EEEvPT_
	.cfi_startproc
; %bb.0:
	sub	sp, sp, #32
	.cfi_def_cfa_offset 32
	stp	x29, x30, [sp, #16]             ; 16-byte Folded Spill
	add	x29, sp, #16
	.cfi_def_cfa w29, 16
	.cfi_offset w30, -8
	.cfi_offset w29, -16
	str	x0, [sp, #8]
	ldr	x0, [sp, #8]
	bl	__ZNSt3__112__destroy_atB6v15006IN3map5PointELi0EEEvPT_
	ldp	x29, x30, [sp, #16]             ; 16-byte Folded Reload
	add	sp, sp, #32
	ret
	.cfi_endproc
                                        ; -- End function
	.private_extern	__ZNSt3__112__destroy_atB6v15006IN3map5PointELi0EEEvPT_ ; -- Begin function _ZNSt3__112__destroy_atB6v15006IN3map5PointELi0EEEvPT_
	.globl	__ZNSt3__112__destroy_atB6v15006IN3map5PointELi0EEEvPT_
	.weak_definition	__ZNSt3__112__destroy_atB6v15006IN3map5PointELi0EEEvPT_
	.p2align	2
__ZNSt3__112__destroy_atB6v15006IN3map5PointELi0EEEvPT_: ; @_ZNSt3__112__destroy_atB6v15006IN3map5PointELi0EEEvPT_
	.cfi_startproc
; %bb.0:
	sub	sp, sp, #16
	.cfi_def_cfa_offset 16
	str	x0, [sp, #8]
	add	sp, sp, #16
	ret
	.cfi_endproc
                                        ; -- End function
	.private_extern	__ZNSt3__19allocatorIN3map5PointEE10deallocateB6v15006EPS2_m ; -- Begin function _ZNSt3__19allocatorIN3map5PointEE10deallocateB6v15006EPS2_m
	.globl	__ZNSt3__19allocatorIN3map5PointEE10deallocateB6v15006EPS2_m
	.weak_definition	__ZNSt3__19allocatorIN3map5PointEE10deallocateB6v15006EPS2_m
	.p2align	2
__ZNSt3__19allocatorIN3map5PointEE10deallocateB6v15006EPS2_m: ; @_ZNSt3__19allocatorIN3map5PointEE10deallocateB6v15006EPS2_m
Lfunc_begin6:
	.cfi_startproc
	.cfi_personality 155, ___gxx_personality_v0
	.cfi_lsda 16, Lexception6
; %bb.0:
	sub	sp, sp, #48
	.cfi_def_cfa_offset 48
	stp	x29, x30, [sp, #32]             ; 16-byte Folded Spill
	add	x29, sp, #32
	.cfi_def_cfa w29, 16
	.cfi_offset w30, -8
	.cfi_offset w29, -16
	stur	x0, [x29, #-8]
	str	x1, [sp, #16]
	str	x2, [sp, #8]
	ldr	x0, [sp, #16]
	ldr	x8, [sp, #8]
	lsl	x1, x8, #4
Ltmp75:
	mov	x2, #8
	bl	__ZNSt3__119__libcpp_deallocateB6v15006EPvmm
Ltmp76:
	b	LBB54_1
LBB54_1:
	ldp	x29, x30, [sp, #32]             ; 16-byte Folded Reload
	add	sp, sp, #48
	ret
LBB54_2:
Ltmp77:
	bl	___clang_call_terminate
Lfunc_end6:
	.cfi_endproc
	.section	__TEXT,__gcc_except_tab
	.p2align	2
GCC_except_table54:
Lexception6:
	.byte	255                             ; @LPStart Encoding = omit
	.byte	155                             ; @TType Encoding = indirect pcrel sdata4
	.uleb128 Lttbase3-Lttbaseref3
Lttbaseref3:
	.byte	1                               ; Call site Encoding = uleb128
	.uleb128 Lcst_end6-Lcst_begin6
Lcst_begin6:
	.uleb128 Ltmp75-Lfunc_begin6            ; >> Call Site 1 <<
	.uleb128 Ltmp76-Ltmp75                  ;   Call between Ltmp75 and Ltmp76
	.uleb128 Ltmp77-Lfunc_begin6            ;     jumps to Ltmp77
	.byte	1                               ;   On action: 1
Lcst_end6:
	.byte	1                               ; >> Action Record 1 <<
                                        ;   Catch TypeInfo 1
	.byte	0                               ;   No further actions
	.p2align	2
                                        ; >> Catch TypeInfos <<
	.long	0                               ; TypeInfo 1
Lttbase3:
	.p2align	2
                                        ; -- End function
	.section	__TEXT,__text,regular,pure_instructions
	.private_extern	__ZNSt3__119__libcpp_deallocateB6v15006EPvmm ; -- Begin function _ZNSt3__119__libcpp_deallocateB6v15006EPvmm
	.globl	__ZNSt3__119__libcpp_deallocateB6v15006EPvmm
	.weak_definition	__ZNSt3__119__libcpp_deallocateB6v15006EPvmm
	.p2align	2
__ZNSt3__119__libcpp_deallocateB6v15006EPvmm: ; @_ZNSt3__119__libcpp_deallocateB6v15006EPvmm
	.cfi_startproc
; %bb.0:
	sub	sp, sp, #48
	.cfi_def_cfa_offset 48
	stp	x29, x30, [sp, #32]             ; 16-byte Folded Spill
	add	x29, sp, #32
	.cfi_def_cfa w29, 16
	.cfi_offset w30, -8
	.cfi_offset w29, -16
	stur	x0, [x29, #-8]
	str	x1, [sp, #16]
	str	x2, [sp, #8]
	ldr	x0, [sp, #8]
	bl	__ZNSt3__124__is_overaligned_for_newB6v15006Em
	tbz	w0, #0, LBB55_2
	b	LBB55_1
LBB55_1:
	ldr	x8, [sp, #8]
	str	x8, [sp]
	ldur	x0, [x29, #-8]
	ldr	x1, [sp, #16]
	ldr	x2, [sp]
	bl	__ZNSt3__127__do_deallocate_handle_sizeB6v15006IJSt11align_val_tEEEvPvmDpT_
	b	LBB55_3
LBB55_2:
	ldur	x0, [x29, #-8]
	ldr	x1, [sp, #16]
	bl	__ZNSt3__127__do_deallocate_handle_sizeB6v15006IJEEEvPvmDpT_
	b	LBB55_3
LBB55_3:
	ldp	x29, x30, [sp, #32]             ; 16-byte Folded Reload
	add	sp, sp, #48
	ret
	.cfi_endproc
                                        ; -- End function
	.private_extern	__ZNSt3__124__is_overaligned_for_newB6v15006Em ; -- Begin function _ZNSt3__124__is_overaligned_for_newB6v15006Em
	.globl	__ZNSt3__124__is_overaligned_for_newB6v15006Em
	.weak_definition	__ZNSt3__124__is_overaligned_for_newB6v15006Em
	.p2align	2
__ZNSt3__124__is_overaligned_for_newB6v15006Em: ; @_ZNSt3__124__is_overaligned_for_newB6v15006Em
	.cfi_startproc
; %bb.0:
	sub	sp, sp, #16
	.cfi_def_cfa_offset 16
	str	x0, [sp, #8]
	ldr	x8, [sp, #8]
	subs	x8, x8, #16
	cset	w8, hi
	and	w0, w8, #0x1
	add	sp, sp, #16
	ret
	.cfi_endproc
                                        ; -- End function
	.private_extern	__ZNSt3__127__do_deallocate_handle_sizeB6v15006IJSt11align_val_tEEEvPvmDpT_ ; -- Begin function _ZNSt3__127__do_deallocate_handle_sizeB6v15006IJSt11align_val_tEEEvPvmDpT_
	.globl	__ZNSt3__127__do_deallocate_handle_sizeB6v15006IJSt11align_val_tEEEvPvmDpT_
	.weak_definition	__ZNSt3__127__do_deallocate_handle_sizeB6v15006IJSt11align_val_tEEEvPvmDpT_
	.p2align	2
__ZNSt3__127__do_deallocate_handle_sizeB6v15006IJSt11align_val_tEEEvPvmDpT_: ; @_ZNSt3__127__do_deallocate_handle_sizeB6v15006IJSt11align_val_tEEEvPvmDpT_
	.cfi_startproc
; %bb.0:
	sub	sp, sp, #48
	.cfi_def_cfa_offset 48
	stp	x29, x30, [sp, #32]             ; 16-byte Folded Spill
	add	x29, sp, #32
	.cfi_def_cfa w29, 16
	.cfi_offset w30, -8
	.cfi_offset w29, -16
	stur	x0, [x29, #-8]
	str	x1, [sp, #16]
	str	x2, [sp, #8]
	ldur	x0, [x29, #-8]
	ldr	x1, [sp, #8]
	bl	__ZNSt3__124__libcpp_operator_deleteB6v15006IJPvSt11align_val_tEEEvDpT_
	ldp	x29, x30, [sp, #32]             ; 16-byte Folded Reload
	add	sp, sp, #48
	ret
	.cfi_endproc
                                        ; -- End function
	.private_extern	__ZNSt3__127__do_deallocate_handle_sizeB6v15006IJEEEvPvmDpT_ ; -- Begin function _ZNSt3__127__do_deallocate_handle_sizeB6v15006IJEEEvPvmDpT_
	.globl	__ZNSt3__127__do_deallocate_handle_sizeB6v15006IJEEEvPvmDpT_
	.weak_definition	__ZNSt3__127__do_deallocate_handle_sizeB6v15006IJEEEvPvmDpT_
	.p2align	2
__ZNSt3__127__do_deallocate_handle_sizeB6v15006IJEEEvPvmDpT_: ; @_ZNSt3__127__do_deallocate_handle_sizeB6v15006IJEEEvPvmDpT_
	.cfi_startproc
; %bb.0:
	sub	sp, sp, #32
	.cfi_def_cfa_offset 32
	stp	x29, x30, [sp, #16]             ; 16-byte Folded Spill
	add	x29, sp, #16
	.cfi_def_cfa w29, 16
	.cfi_offset w30, -8
	.cfi_offset w29, -16
	str	x0, [sp, #8]
	str	x1, [sp]
	ldr	x0, [sp, #8]
	bl	__ZNSt3__124__libcpp_operator_deleteB6v15006IJPvEEEvDpT_
	ldp	x29, x30, [sp, #16]             ; 16-byte Folded Reload
	add	sp, sp, #32
	ret
	.cfi_endproc
                                        ; -- End function
	.private_extern	__ZNSt3__124__libcpp_operator_deleteB6v15006IJPvSt11align_val_tEEEvDpT_ ; -- Begin function _ZNSt3__124__libcpp_operator_deleteB6v15006IJPvSt11align_val_tEEEvDpT_
	.globl	__ZNSt3__124__libcpp_operator_deleteB6v15006IJPvSt11align_val_tEEEvDpT_
	.weak_definition	__ZNSt3__124__libcpp_operator_deleteB6v15006IJPvSt11align_val_tEEEvDpT_
	.p2align	2
__ZNSt3__124__libcpp_operator_deleteB6v15006IJPvSt11align_val_tEEEvDpT_: ; @_ZNSt3__124__libcpp_operator_deleteB6v15006IJPvSt11align_val_tEEEvDpT_
	.cfi_startproc
; %bb.0:
	sub	sp, sp, #32
	.cfi_def_cfa_offset 32
	stp	x29, x30, [sp, #16]             ; 16-byte Folded Spill
	add	x29, sp, #16
	.cfi_def_cfa w29, 16
	.cfi_offset w30, -8
	.cfi_offset w29, -16
	str	x0, [sp, #8]
	str	x1, [sp]
	ldr	x0, [sp, #8]
	ldr	x1, [sp]
	bl	__ZdlPvSt11align_val_t
	ldp	x29, x30, [sp, #16]             ; 16-byte Folded Reload
	add	sp, sp, #32
	ret
	.cfi_endproc
                                        ; -- End function
	.private_extern	__ZNSt3__124__libcpp_operator_deleteB6v15006IJPvEEEvDpT_ ; -- Begin function _ZNSt3__124__libcpp_operator_deleteB6v15006IJPvEEEvDpT_
	.globl	__ZNSt3__124__libcpp_operator_deleteB6v15006IJPvEEEvDpT_
	.weak_definition	__ZNSt3__124__libcpp_operator_deleteB6v15006IJPvEEEvDpT_
	.p2align	2
__ZNSt3__124__libcpp_operator_deleteB6v15006IJPvEEEvDpT_: ; @_ZNSt3__124__libcpp_operator_deleteB6v15006IJPvEEEvDpT_
	.cfi_startproc
; %bb.0:
	sub	sp, sp, #32
	.cfi_def_cfa_offset 32
	stp	x29, x30, [sp, #16]             ; 16-byte Folded Spill
	add	x29, sp, #16
	.cfi_def_cfa w29, 16
	.cfi_offset w30, -8
	.cfi_offset w29, -16
	str	x0, [sp, #8]
	ldr	x0, [sp, #8]
	bl	__ZdlPv
	ldp	x29, x30, [sp, #16]             ; 16-byte Folded Reload
	add	sp, sp, #32
	ret
	.cfi_endproc
                                        ; -- End function
	.private_extern	__ZNSt3__117__compressed_pairIPN3map5PointENS_9allocatorIS2_EEE6secondB6v15006Ev ; -- Begin function _ZNSt3__117__compressed_pairIPN3map5PointENS_9allocatorIS2_EEE6secondB6v15006Ev
	.globl	__ZNSt3__117__compressed_pairIPN3map5PointENS_9allocatorIS2_EEE6secondB6v15006Ev
	.weak_definition	__ZNSt3__117__compressed_pairIPN3map5PointENS_9allocatorIS2_EEE6secondB6v15006Ev
	.p2align	2
__ZNSt3__117__compressed_pairIPN3map5PointENS_9allocatorIS2_EEE6secondB6v15006Ev: ; @_ZNSt3__117__compressed_pairIPN3map5PointENS_9allocatorIS2_EEE6secondB6v15006Ev
	.cfi_startproc
; %bb.0:
	sub	sp, sp, #32
	.cfi_def_cfa_offset 32
	stp	x29, x30, [sp, #16]             ; 16-byte Folded Spill
	add	x29, sp, #16
	.cfi_def_cfa w29, 16
	.cfi_offset w30, -8
	.cfi_offset w29, -16
	str	x0, [sp, #8]
	ldr	x0, [sp, #8]
	bl	__ZNSt3__122__compressed_pair_elemINS_9allocatorIN3map5PointEEELi1ELb1EE5__getB6v15006Ev
	ldp	x29, x30, [sp, #16]             ; 16-byte Folded Reload
	add	sp, sp, #32
	ret
	.cfi_endproc
                                        ; -- End function
	.private_extern	__ZNSt3__122__compressed_pair_elemINS_9allocatorIN3map5PointEEELi1ELb1EE5__getB6v15006Ev ; -- Begin function _ZNSt3__122__compressed_pair_elemINS_9allocatorIN3map5PointEEELi1ELb1EE5__getB6v15006Ev
	.globl	__ZNSt3__122__compressed_pair_elemINS_9allocatorIN3map5PointEEELi1ELb1EE5__getB6v15006Ev
	.weak_definition	__ZNSt3__122__compressed_pair_elemINS_9allocatorIN3map5PointEEELi1ELb1EE5__getB6v15006Ev
	.p2align	2
__ZNSt3__122__compressed_pair_elemINS_9allocatorIN3map5PointEEELi1ELb1EE5__getB6v15006Ev: ; @_ZNSt3__122__compressed_pair_elemINS_9allocatorIN3map5PointEEELi1ELb1EE5__getB6v15006Ev
	.cfi_startproc
; %bb.0:
	sub	sp, sp, #16
	.cfi_def_cfa_offset 16
	str	x0, [sp, #8]
	ldr	x0, [sp, #8]
	add	sp, sp, #16
	ret
	.cfi_endproc
                                        ; -- End function
	.private_extern	__ZNKSt3__16vectorIN3map5PointENS_9allocatorIS2_EEE9__end_capB6v15006Ev ; -- Begin function _ZNKSt3__16vectorIN3map5PointENS_9allocatorIS2_EEE9__end_capB6v15006Ev
	.globl	__ZNKSt3__16vectorIN3map5PointENS_9allocatorIS2_EEE9__end_capB6v15006Ev
	.weak_definition	__ZNKSt3__16vectorIN3map5PointENS_9allocatorIS2_EEE9__end_capB6v15006Ev
	.p2align	2
__ZNKSt3__16vectorIN3map5PointENS_9allocatorIS2_EEE9__end_capB6v15006Ev: ; @_ZNKSt3__16vectorIN3map5PointENS_9allocatorIS2_EEE9__end_capB6v15006Ev
	.cfi_startproc
; %bb.0:
	sub	sp, sp, #32
	.cfi_def_cfa_offset 32
	stp	x29, x30, [sp, #16]             ; 16-byte Folded Spill
	add	x29, sp, #16
	.cfi_def_cfa w29, 16
	.cfi_offset w30, -8
	.cfi_offset w29, -16
	str	x0, [sp, #8]
	ldr	x8, [sp, #8]
	add	x0, x8, #16
	bl	__ZNKSt3__117__compressed_pairIPN3map5PointENS_9allocatorIS2_EEE5firstB6v15006Ev
	ldp	x29, x30, [sp, #16]             ; 16-byte Folded Reload
	add	sp, sp, #32
	ret
	.cfi_endproc
                                        ; -- End function
	.private_extern	__ZNKSt3__117__compressed_pairIPN3map5PointENS_9allocatorIS2_EEE5firstB6v15006Ev ; -- Begin function _ZNKSt3__117__compressed_pairIPN3map5PointENS_9allocatorIS2_EEE5firstB6v15006Ev
	.globl	__ZNKSt3__117__compressed_pairIPN3map5PointENS_9allocatorIS2_EEE5firstB6v15006Ev
	.weak_definition	__ZNKSt3__117__compressed_pairIPN3map5PointENS_9allocatorIS2_EEE5firstB6v15006Ev
	.p2align	2
__ZNKSt3__117__compressed_pairIPN3map5PointENS_9allocatorIS2_EEE5firstB6v15006Ev: ; @_ZNKSt3__117__compressed_pairIPN3map5PointENS_9allocatorIS2_EEE5firstB6v15006Ev
	.cfi_startproc
; %bb.0:
	sub	sp, sp, #32
	.cfi_def_cfa_offset 32
	stp	x29, x30, [sp, #16]             ; 16-byte Folded Spill
	add	x29, sp, #16
	.cfi_def_cfa w29, 16
	.cfi_offset w30, -8
	.cfi_offset w29, -16
	str	x0, [sp, #8]
	ldr	x0, [sp, #8]
	bl	__ZNKSt3__122__compressed_pair_elemIPN3map5PointELi0ELb0EE5__getB6v15006Ev
	ldp	x29, x30, [sp, #16]             ; 16-byte Folded Reload
	add	sp, sp, #32
	ret
	.cfi_endproc
                                        ; -- End function
	.private_extern	__ZNKSt3__122__compressed_pair_elemIPN3map5PointELi0ELb0EE5__getB6v15006Ev ; -- Begin function _ZNKSt3__122__compressed_pair_elemIPN3map5PointELi0ELb0EE5__getB6v15006Ev
	.globl	__ZNKSt3__122__compressed_pair_elemIPN3map5PointELi0ELb0EE5__getB6v15006Ev
	.weak_definition	__ZNKSt3__122__compressed_pair_elemIPN3map5PointELi0ELb0EE5__getB6v15006Ev
	.p2align	2
__ZNKSt3__122__compressed_pair_elemIPN3map5PointELi0ELb0EE5__getB6v15006Ev: ; @_ZNKSt3__122__compressed_pair_elemIPN3map5PointELi0ELb0EE5__getB6v15006Ev
	.cfi_startproc
; %bb.0:
	sub	sp, sp, #16
	.cfi_def_cfa_offset 16
	str	x0, [sp, #8]
	ldr	x0, [sp, #8]
	add	sp, sp, #16
	ret
	.cfi_endproc
                                        ; -- End function
	.globl	__ZN3map5PointC2Ev              ; -- Begin function _ZN3map5PointC2Ev
	.weak_def_can_be_hidden	__ZN3map5PointC2Ev
	.p2align	2
__ZN3map5PointC2Ev:                     ; @_ZN3map5PointC2Ev
	.cfi_startproc
; %bb.0:
	sub	sp, sp, #16
	.cfi_def_cfa_offset 16
	str	x0, [sp, #8]
	ldr	x0, [sp, #8]
	movi	d0, #0000000000000000
	str	d0, [x0]
	str	d0, [x0, #8]
	add	sp, sp, #16
	ret
	.cfi_endproc
                                        ; -- End function
	.globl	__ZN3map6shapes6CircleD2Ev      ; -- Begin function _ZN3map6shapes6CircleD2Ev
	.weak_def_can_be_hidden	__ZN3map6shapes6CircleD2Ev
	.p2align	2
__ZN3map6shapes6CircleD2Ev:             ; @_ZN3map6shapes6CircleD2Ev
	.cfi_startproc
; %bb.0:
	sub	sp, sp, #32
	.cfi_def_cfa_offset 32
	stp	x29, x30, [sp, #16]             ; 16-byte Folded Spill
	add	x29, sp, #16
	.cfi_def_cfa w29, 16
	.cfi_offset w30, -8
	.cfi_offset w29, -16
	str	x0, [sp, #8]
	ldr	x0, [sp, #8]
	str	x0, [sp]                        ; 8-byte Folded Spill
	bl	__ZN3map6shapes5ShapeD2Ev
	ldr	x0, [sp]                        ; 8-byte Folded Reload
	ldp	x29, x30, [sp, #16]             ; 16-byte Folded Reload
	add	sp, sp, #32
	ret
	.cfi_endproc
                                        ; -- End function
	.private_extern	__ZNSt3__117basic_string_viewIcNS_11char_traitsIcEEEC2B6v15006EPKc ; -- Begin function _ZNSt3__117basic_string_viewIcNS_11char_traitsIcEEEC2B6v15006EPKc
	.globl	__ZNSt3__117basic_string_viewIcNS_11char_traitsIcEEEC2B6v15006EPKc
	.weak_def_can_be_hidden	__ZNSt3__117basic_string_viewIcNS_11char_traitsIcEEEC2B6v15006EPKc
	.p2align	2
__ZNSt3__117basic_string_viewIcNS_11char_traitsIcEEEC2B6v15006EPKc: ; @_ZNSt3__117basic_string_viewIcNS_11char_traitsIcEEEC2B6v15006EPKc
	.cfi_startproc
; %bb.0:
	sub	sp, sp, #48
	.cfi_def_cfa_offset 48
	stp	x29, x30, [sp, #32]             ; 16-byte Folded Spill
	add	x29, sp, #32
	.cfi_def_cfa w29, 16
	.cfi_offset w30, -8
	.cfi_offset w29, -16
	stur	x0, [x29, #-8]
	str	x1, [sp, #16]
	ldur	x9, [x29, #-8]
	str	x9, [sp, #8]                    ; 8-byte Folded Spill
	ldr	x8, [sp, #16]
	str	x8, [x9]
	ldr	x0, [sp, #16]
	bl	__ZNSt3__128__char_traits_length_checkedB6v15006INS_11char_traitsIcEEEEmPKNT_9char_typeE
	mov	x8, x0
	ldr	x0, [sp, #8]                    ; 8-byte Folded Reload
	str	x8, [x0, #8]
	ldp	x29, x30, [sp, #32]             ; 16-byte Folded Reload
	add	sp, sp, #48
	ret
	.cfi_endproc
                                        ; -- End function
	.private_extern	__ZNSt3__128__char_traits_length_checkedB6v15006INS_11char_traitsIcEEEEmPKNT_9char_typeE ; -- Begin function _ZNSt3__128__char_traits_length_checkedB6v15006INS_11char_traitsIcEEEEmPKNT_9char_typeE
	.globl	__ZNSt3__128__char_traits_length_checkedB6v15006INS_11char_traitsIcEEEEmPKNT_9char_typeE
	.weak_definition	__ZNSt3__128__char_traits_length_checkedB6v15006INS_11char_traitsIcEEEEmPKNT_9char_typeE
	.p2align	2
__ZNSt3__128__char_traits_length_checkedB6v15006INS_11char_traitsIcEEEEmPKNT_9char_typeE: ; @_ZNSt3__128__char_traits_length_checkedB6v15006INS_11char_traitsIcEEEEmPKNT_9char_typeE
	.cfi_startproc
; %bb.0:
	sub	sp, sp, #32
	.cfi_def_cfa_offset 32
	stp	x29, x30, [sp, #16]             ; 16-byte Folded Spill
	add	x29, sp, #16
	.cfi_def_cfa w29, 16
	.cfi_offset w30, -8
	.cfi_offset w29, -16
	str	x0, [sp, #8]
	ldr	x0, [sp, #8]
	bl	__ZNSt3__111char_traitsIcE6lengthEPKc
	ldp	x29, x30, [sp, #16]             ; 16-byte Folded Reload
	add	sp, sp, #32
	ret
	.cfi_endproc
                                        ; -- End function
	.globl	__ZNSt3__111char_traitsIcE6lengthEPKc ; -- Begin function _ZNSt3__111char_traitsIcE6lengthEPKc
	.weak_definition	__ZNSt3__111char_traitsIcE6lengthEPKc
	.p2align	2
__ZNSt3__111char_traitsIcE6lengthEPKc:  ; @_ZNSt3__111char_traitsIcE6lengthEPKc
	.cfi_startproc
; %bb.0:
	sub	sp, sp, #32
	.cfi_def_cfa_offset 32
	stp	x29, x30, [sp, #16]             ; 16-byte Folded Spill
	add	x29, sp, #16
	.cfi_def_cfa w29, 16
	.cfi_offset w30, -8
	.cfi_offset w29, -16
	str	x0, [sp, #8]
	ldr	x0, [sp, #8]
	bl	_strlen
	ldp	x29, x30, [sp, #16]             ; 16-byte Folded Reload
	add	sp, sp, #32
	ret
	.cfi_endproc
                                        ; -- End function
	.private_extern	__ZNKSt3__117basic_string_viewIcNS_11char_traitsIcEEE4sizeB6v15006Ev ; -- Begin function _ZNKSt3__117basic_string_viewIcNS_11char_traitsIcEEE4sizeB6v15006Ev
	.globl	__ZNKSt3__117basic_string_viewIcNS_11char_traitsIcEEE4sizeB6v15006Ev
	.weak_definition	__ZNKSt3__117basic_string_viewIcNS_11char_traitsIcEEE4sizeB6v15006Ev
	.p2align	2
__ZNKSt3__117basic_string_viewIcNS_11char_traitsIcEEE4sizeB6v15006Ev: ; @_ZNKSt3__117basic_string_viewIcNS_11char_traitsIcEEE4sizeB6v15006Ev
	.cfi_startproc
; %bb.0:
	sub	sp, sp, #16
	.cfi_def_cfa_offset 16
	str	x0, [sp, #8]
	ldr	x8, [sp, #8]
	ldr	x0, [x8, #8]
	add	sp, sp, #16
	ret
	.cfi_endproc
                                        ; -- End function
	.globl	__ZNKSt3__117basic_string_viewIcNS_11char_traitsIcEEE7compareES3_ ; -- Begin function _ZNKSt3__117basic_string_viewIcNS_11char_traitsIcEEE7compareES3_
	.weak_definition	__ZNKSt3__117basic_string_viewIcNS_11char_traitsIcEEE7compareES3_
	.p2align	2
__ZNKSt3__117basic_string_viewIcNS_11char_traitsIcEEE7compareES3_: ; @_ZNKSt3__117basic_string_viewIcNS_11char_traitsIcEEE7compareES3_
Lfunc_begin7:
	.cfi_startproc
	.cfi_personality 155, ___gxx_personality_v0
	.cfi_lsda 16, Lexception7
; %bb.0:
	sub	sp, sp, #144
	.cfi_def_cfa_offset 144
	stp	x29, x30, [sp, #128]            ; 16-byte Folded Spill
	add	x29, sp, #128
	.cfi_def_cfa w29, 16
	.cfi_offset w30, -8
	.cfi_offset w29, -16
	sub	x8, x29, #16
	str	x8, [sp, #48]                   ; 8-byte Folded Spill
	stur	x1, [x29, #-16]
	stur	x2, [x29, #-8]
	stur	x0, [x29, #-24]
	ldur	x0, [x29, #-24]
	str	x0, [sp, #40]                   ; 8-byte Folded Spill
	bl	__ZNKSt3__117basic_string_viewIcNS_11char_traitsIcEEE4sizeB6v15006Ev
	mov	x8, x0
	ldr	x0, [sp, #48]                   ; 8-byte Folded Reload
	sub	x9, x29, #40
	str	x9, [sp, #56]                   ; 8-byte Folded Spill
	stur	x8, [x29, #-40]
	bl	__ZNKSt3__117basic_string_viewIcNS_11char_traitsIcEEE4sizeB6v15006Ev
	mov	x8, x0
	ldr	x0, [sp, #56]                   ; 8-byte Folded Reload
	sub	x1, x29, #48
	stur	x8, [x29, #-48]
Ltmp83:
	bl	__ZNSt3__13minB6v15006ImEERKT_S3_S3_
	str	x0, [sp, #64]                   ; 8-byte Folded Spill
Ltmp84:
	b	LBB72_1
LBB72_1:
	ldr	x0, [sp, #40]                   ; 8-byte Folded Reload
	ldr	x8, [sp, #64]                   ; 8-byte Folded Reload
	ldr	x8, [x8]
	stur	x8, [x29, #-32]
	bl	__ZNKSt3__117basic_string_viewIcNS_11char_traitsIcEEE4dataB6v15006Ev
	str	x0, [sp, #32]                   ; 8-byte Folded Spill
	sub	x0, x29, #16
	bl	__ZNKSt3__117basic_string_viewIcNS_11char_traitsIcEEE4dataB6v15006Ev
	mov	x1, x0
	ldr	x0, [sp, #32]                   ; 8-byte Folded Reload
	ldur	x2, [x29, #-32]
	bl	__ZNSt3__111char_traitsIcE7compareEPKcS3_m
	stur	w0, [x29, #-52]
	ldur	w8, [x29, #-52]
	subs	w8, w8, #0
	cset	w8, ne
	tbnz	w8, #0, LBB72_6
	b	LBB72_2
LBB72_2:
	ldr	x0, [sp, #40]                   ; 8-byte Folded Reload
	bl	__ZNKSt3__117basic_string_viewIcNS_11char_traitsIcEEE4sizeB6v15006Ev
	str	x0, [sp, #24]                   ; 8-byte Folded Spill
	sub	x0, x29, #16
	bl	__ZNKSt3__117basic_string_viewIcNS_11char_traitsIcEEE4sizeB6v15006Ev
	mov	x8, x0
	ldr	x0, [sp, #24]                   ; 8-byte Folded Reload
	subs	x8, x0, x8
	cset	w8, ne
	tbnz	w8, #0, LBB72_4
	b	LBB72_3
LBB72_3:
	mov	w8, #0
	str	w8, [sp, #20]                   ; 4-byte Folded Spill
	b	LBB72_5
LBB72_4:
	ldr	x0, [sp, #40]                   ; 8-byte Folded Reload
	bl	__ZNKSt3__117basic_string_viewIcNS_11char_traitsIcEEE4sizeB6v15006Ev
	str	x0, [sp, #8]                    ; 8-byte Folded Spill
	sub	x0, x29, #16
	bl	__ZNKSt3__117basic_string_viewIcNS_11char_traitsIcEEE4sizeB6v15006Ev
	mov	x8, x0
	ldr	x0, [sp, #8]                    ; 8-byte Folded Reload
	subs	x8, x0, x8
	cset	w8, lo
	and	w9, w8, #0x1
	mov	w8, #1
	ands	w9, w9, #0x1
	csinv	w8, w8, wzr, eq
	str	w8, [sp, #20]                   ; 4-byte Folded Spill
	b	LBB72_5
LBB72_5:
	ldr	w8, [sp, #20]                   ; 4-byte Folded Reload
	stur	w8, [x29, #-52]
	b	LBB72_6
LBB72_6:
	ldur	w0, [x29, #-52]
	ldp	x29, x30, [sp, #128]            ; 16-byte Folded Reload
	add	sp, sp, #144
	ret
LBB72_7:
Ltmp85:
	bl	___clang_call_terminate
Lfunc_end7:
	.cfi_endproc
	.section	__TEXT,__gcc_except_tab
	.p2align	2
GCC_except_table72:
Lexception7:
	.byte	255                             ; @LPStart Encoding = omit
	.byte	155                             ; @TType Encoding = indirect pcrel sdata4
	.uleb128 Lttbase4-Lttbaseref4
Lttbaseref4:
	.byte	1                               ; Call site Encoding = uleb128
	.uleb128 Lcst_end7-Lcst_begin7
Lcst_begin7:
	.uleb128 Ltmp83-Lfunc_begin7            ; >> Call Site 1 <<
	.uleb128 Ltmp84-Ltmp83                  ;   Call between Ltmp83 and Ltmp84
	.uleb128 Ltmp85-Lfunc_begin7            ;     jumps to Ltmp85
	.byte	1                               ;   On action: 1
Lcst_end7:
	.byte	1                               ; >> Action Record 1 <<
                                        ;   Catch TypeInfo 1
	.byte	0                               ;   No further actions
	.p2align	2
                                        ; >> Catch TypeInfos <<
	.long	0                               ; TypeInfo 1
Lttbase4:
	.p2align	2
                                        ; -- End function
	.section	__TEXT,__text,regular,pure_instructions
	.private_extern	__ZNSt3__13minB6v15006ImEERKT_S3_S3_ ; -- Begin function _ZNSt3__13minB6v15006ImEERKT_S3_S3_
	.globl	__ZNSt3__13minB6v15006ImEERKT_S3_S3_
	.weak_definition	__ZNSt3__13minB6v15006ImEERKT_S3_S3_
	.p2align	2
__ZNSt3__13minB6v15006ImEERKT_S3_S3_:   ; @_ZNSt3__13minB6v15006ImEERKT_S3_S3_
	.cfi_startproc
; %bb.0:
	sub	sp, sp, #48
	.cfi_def_cfa_offset 48
	stp	x29, x30, [sp, #32]             ; 16-byte Folded Spill
	add	x29, sp, #32
	.cfi_def_cfa w29, 16
	.cfi_offset w30, -8
	.cfi_offset w29, -16
	stur	x0, [x29, #-8]
	str	x1, [sp, #16]
	ldur	x0, [x29, #-8]
	ldr	x1, [sp, #16]
	bl	__ZNSt3__13minB6v15006ImNS_6__lessImmEEEERKT_S5_S5_T0_
	ldp	x29, x30, [sp, #32]             ; 16-byte Folded Reload
	add	sp, sp, #48
	ret
	.cfi_endproc
                                        ; -- End function
	.globl	__ZNSt3__111char_traitsIcE7compareEPKcS3_m ; -- Begin function _ZNSt3__111char_traitsIcE7compareEPKcS3_m
	.weak_definition	__ZNSt3__111char_traitsIcE7compareEPKcS3_m
	.p2align	2
__ZNSt3__111char_traitsIcE7compareEPKcS3_m: ; @_ZNSt3__111char_traitsIcE7compareEPKcS3_m
	.cfi_startproc
; %bb.0:
	sub	sp, sp, #48
	.cfi_def_cfa_offset 48
	stp	x29, x30, [sp, #32]             ; 16-byte Folded Spill
	add	x29, sp, #32
	.cfi_def_cfa w29, 16
	.cfi_offset w30, -8
	.cfi_offset w29, -16
	str	x0, [sp, #16]
	str	x1, [sp, #8]
	str	x2, [sp]
	ldr	x8, [sp]
	subs	x8, x8, #0
	cset	w8, ne
	tbnz	w8, #0, LBB74_2
	b	LBB74_1
LBB74_1:
	stur	wzr, [x29, #-4]
	b	LBB74_3
LBB74_2:
	ldr	x0, [sp, #16]
	ldr	x1, [sp, #8]
	ldr	x2, [sp]
	bl	_memcmp
	stur	w0, [x29, #-4]
	b	LBB74_3
LBB74_3:
	ldur	w0, [x29, #-4]
	ldp	x29, x30, [sp, #32]             ; 16-byte Folded Reload
	add	sp, sp, #48
	ret
	.cfi_endproc
                                        ; -- End function
	.private_extern	__ZNKSt3__117basic_string_viewIcNS_11char_traitsIcEEE4dataB6v15006Ev ; -- Begin function _ZNKSt3__117basic_string_viewIcNS_11char_traitsIcEEE4dataB6v15006Ev
	.globl	__ZNKSt3__117basic_string_viewIcNS_11char_traitsIcEEE4dataB6v15006Ev
	.weak_definition	__ZNKSt3__117basic_string_viewIcNS_11char_traitsIcEEE4dataB6v15006Ev
	.p2align	2
__ZNKSt3__117basic_string_viewIcNS_11char_traitsIcEEE4dataB6v15006Ev: ; @_ZNKSt3__117basic_string_viewIcNS_11char_traitsIcEEE4dataB6v15006Ev
	.cfi_startproc
; %bb.0:
	sub	sp, sp, #16
	.cfi_def_cfa_offset 16
	str	x0, [sp, #8]
	ldr	x8, [sp, #8]
	ldr	x0, [x8]
	add	sp, sp, #16
	ret
	.cfi_endproc
                                        ; -- End function
	.private_extern	__ZNSt3__13minB6v15006ImNS_6__lessImmEEEERKT_S5_S5_T0_ ; -- Begin function _ZNSt3__13minB6v15006ImNS_6__lessImmEEEERKT_S5_S5_T0_
	.globl	__ZNSt3__13minB6v15006ImNS_6__lessImmEEEERKT_S5_S5_T0_
	.weak_definition	__ZNSt3__13minB6v15006ImNS_6__lessImmEEEERKT_S5_S5_T0_
	.p2align	2
__ZNSt3__13minB6v15006ImNS_6__lessImmEEEERKT_S5_S5_T0_: ; @_ZNSt3__13minB6v15006ImNS_6__lessImmEEEERKT_S5_S5_T0_
	.cfi_startproc
; %bb.0:
	sub	sp, sp, #48
	.cfi_def_cfa_offset 48
	stp	x29, x30, [sp, #32]             ; 16-byte Folded Spill
	add	x29, sp, #32
	.cfi_def_cfa w29, 16
	.cfi_offset w30, -8
	.cfi_offset w29, -16
	str	x0, [sp, #16]
	str	x1, [sp, #8]
	ldr	x1, [sp, #8]
	ldr	x2, [sp, #16]
	sub	x0, x29, #1
	bl	__ZNKSt3__16__lessImmEclB6v15006ERKmS3_
	tbz	w0, #0, LBB76_2
	b	LBB76_1
LBB76_1:
	ldr	x8, [sp, #8]
	str	x8, [sp]                        ; 8-byte Folded Spill
	b	LBB76_3
LBB76_2:
	ldr	x8, [sp, #16]
	str	x8, [sp]                        ; 8-byte Folded Spill
	b	LBB76_3
LBB76_3:
	ldr	x0, [sp]                        ; 8-byte Folded Reload
	ldp	x29, x30, [sp, #32]             ; 16-byte Folded Reload
	add	sp, sp, #48
	ret
	.cfi_endproc
                                        ; -- End function
	.private_extern	__ZNKSt3__16__lessImmEclB6v15006ERKmS3_ ; -- Begin function _ZNKSt3__16__lessImmEclB6v15006ERKmS3_
	.globl	__ZNKSt3__16__lessImmEclB6v15006ERKmS3_
	.weak_definition	__ZNKSt3__16__lessImmEclB6v15006ERKmS3_
	.p2align	2
__ZNKSt3__16__lessImmEclB6v15006ERKmS3_: ; @_ZNKSt3__16__lessImmEclB6v15006ERKmS3_
	.cfi_startproc
; %bb.0:
	sub	sp, sp, #32
	.cfi_def_cfa_offset 32
	str	x0, [sp, #24]
	str	x1, [sp, #16]
	str	x2, [sp, #8]
	ldr	x8, [sp, #16]
	ldr	x8, [x8]
	ldr	x9, [sp, #8]
	ldr	x9, [x9]
	subs	x8, x8, x9
	cset	w8, lo
	and	w0, w8, #0x1
	add	sp, sp, #32
	ret
	.cfi_endproc
                                        ; -- End function
	.globl	__ZNSt3__112basic_stringIcNS_11char_traitsIcEENS_9allocatorIcEEEC2B6v15006IDnEEPKc ; -- Begin function _ZNSt3__112basic_stringIcNS_11char_traitsIcEENS_9allocatorIcEEEC2B6v15006IDnEEPKc
	.weak_def_can_be_hidden	__ZNSt3__112basic_stringIcNS_11char_traitsIcEENS_9allocatorIcEEEC2B6v15006IDnEEPKc
	.p2align	2
__ZNSt3__112basic_stringIcNS_11char_traitsIcEENS_9allocatorIcEEEC2B6v15006IDnEEPKc: ; @_ZNSt3__112basic_stringIcNS_11char_traitsIcEENS_9allocatorIcEEEC2B6v15006IDnEEPKc
	.cfi_startproc
; %bb.0:
	sub	sp, sp, #64
	.cfi_def_cfa_offset 64
	stp	x29, x30, [sp, #48]             ; 16-byte Folded Spill
	add	x29, sp, #48
	.cfi_def_cfa w29, 16
	.cfi_offset w30, -8
	.cfi_offset w29, -16
	stur	x0, [x29, #-8]
	stur	x1, [x29, #-16]
	ldur	x0, [x29, #-8]
	str	x0, [sp, #16]                   ; 8-byte Folded Spill
	sub	x1, x29, #17
	sub	x2, x29, #18
	bl	__ZNSt3__117__compressed_pairINS_12basic_stringIcNS_11char_traitsIcEENS_9allocatorIcEEE5__repES5_EC1B6v15006INS_18__default_init_tagESA_EEOT_OT0_
	ldur	x8, [x29, #-16]
	str	x8, [sp, #8]                    ; 8-byte Folded Spill
	ldur	x0, [x29, #-16]
	bl	__ZNSt3__111char_traitsIcE6lengthEPKc
	ldr	x1, [sp, #8]                    ; 8-byte Folded Reload
	mov	x2, x0
	ldr	x0, [sp, #16]                   ; 8-byte Folded Reload
	bl	__ZNSt3__112basic_stringIcNS_11char_traitsIcEENS_9allocatorIcEEE6__initEPKcm
	ldr	x0, [sp, #16]                   ; 8-byte Folded Reload
	bl	__ZNSt3__119__debug_db_insert_cB6v15006INS_12basic_stringIcNS_11char_traitsIcEENS_9allocatorIcEEEEEEvPT_
	ldr	x0, [sp, #16]                   ; 8-byte Folded Reload
	ldp	x29, x30, [sp, #48]             ; 16-byte Folded Reload
	add	sp, sp, #64
	ret
	.cfi_endproc
                                        ; -- End function
	.globl	__ZNSt3__117__compressed_pairINS_12basic_stringIcNS_11char_traitsIcEENS_9allocatorIcEEE5__repES5_EC1B6v15006INS_18__default_init_tagESA_EEOT_OT0_ ; -- Begin function _ZNSt3__117__compressed_pairINS_12basic_stringIcNS_11char_traitsIcEENS_9allocatorIcEEE5__repES5_EC1B6v15006INS_18__default_init_tagESA_EEOT_OT0_
	.weak_def_can_be_hidden	__ZNSt3__117__compressed_pairINS_12basic_stringIcNS_11char_traitsIcEENS_9allocatorIcEEE5__repES5_EC1B6v15006INS_18__default_init_tagESA_EEOT_OT0_
	.p2align	2
__ZNSt3__117__compressed_pairINS_12basic_stringIcNS_11char_traitsIcEENS_9allocatorIcEEE5__repES5_EC1B6v15006INS_18__default_init_tagESA_EEOT_OT0_: ; @_ZNSt3__117__compressed_pairINS_12basic_stringIcNS_11char_traitsIcEENS_9allocatorIcEEE5__repES5_EC1B6v15006INS_18__default_init_tagESA_EEOT_OT0_
	.cfi_startproc
; %bb.0:
	sub	sp, sp, #48
	.cfi_def_cfa_offset 48
	stp	x29, x30, [sp, #32]             ; 16-byte Folded Spill
	add	x29, sp, #32
	.cfi_def_cfa w29, 16
	.cfi_offset w30, -8
	.cfi_offset w29, -16
	stur	x0, [x29, #-8]
	str	x1, [sp, #16]
	str	x2, [sp, #8]
	ldur	x0, [x29, #-8]
	str	x0, [sp]                        ; 8-byte Folded Spill
	ldr	x1, [sp, #16]
	ldr	x2, [sp, #8]
	bl	__ZNSt3__117__compressed_pairINS_12basic_stringIcNS_11char_traitsIcEENS_9allocatorIcEEE5__repES5_EC2B6v15006INS_18__default_init_tagESA_EEOT_OT0_
	ldr	x0, [sp]                        ; 8-byte Folded Reload
	ldp	x29, x30, [sp, #32]             ; 16-byte Folded Reload
	add	sp, sp, #48
	ret
	.cfi_endproc
                                        ; -- End function
	.private_extern	__ZNSt3__119__debug_db_insert_cB6v15006INS_12basic_stringIcNS_11char_traitsIcEENS_9allocatorIcEEEEEEvPT_ ; -- Begin function _ZNSt3__119__debug_db_insert_cB6v15006INS_12basic_stringIcNS_11char_traitsIcEENS_9allocatorIcEEEEEEvPT_
	.globl	__ZNSt3__119__debug_db_insert_cB6v15006INS_12basic_stringIcNS_11char_traitsIcEENS_9allocatorIcEEEEEEvPT_
	.weak_definition	__ZNSt3__119__debug_db_insert_cB6v15006INS_12basic_stringIcNS_11char_traitsIcEENS_9allocatorIcEEEEEEvPT_
	.p2align	2
__ZNSt3__119__debug_db_insert_cB6v15006INS_12basic_stringIcNS_11char_traitsIcEENS_9allocatorIcEEEEEEvPT_: ; @_ZNSt3__119__debug_db_insert_cB6v15006INS_12basic_stringIcNS_11char_traitsIcEENS_9allocatorIcEEEEEEvPT_
	.cfi_startproc
; %bb.0:
	sub	sp, sp, #16
	.cfi_def_cfa_offset 16
	str	x0, [sp, #8]
	add	sp, sp, #16
	ret
	.cfi_endproc
                                        ; -- End function
	.globl	__ZNSt3__117__compressed_pairINS_12basic_stringIcNS_11char_traitsIcEENS_9allocatorIcEEE5__repES5_EC2B6v15006INS_18__default_init_tagESA_EEOT_OT0_ ; -- Begin function _ZNSt3__117__compressed_pairINS_12basic_stringIcNS_11char_traitsIcEENS_9allocatorIcEEE5__repES5_EC2B6v15006INS_18__default_init_tagESA_EEOT_OT0_
	.weak_def_can_be_hidden	__ZNSt3__117__compressed_pairINS_12basic_stringIcNS_11char_traitsIcEENS_9allocatorIcEEE5__repES5_EC2B6v15006INS_18__default_init_tagESA_EEOT_OT0_
	.p2align	2
__ZNSt3__117__compressed_pairINS_12basic_stringIcNS_11char_traitsIcEENS_9allocatorIcEEE5__repES5_EC2B6v15006INS_18__default_init_tagESA_EEOT_OT0_: ; @_ZNSt3__117__compressed_pairINS_12basic_stringIcNS_11char_traitsIcEENS_9allocatorIcEEE5__repES5_EC2B6v15006INS_18__default_init_tagESA_EEOT_OT0_
	.cfi_startproc
; %bb.0:
	sub	sp, sp, #64
	.cfi_def_cfa_offset 64
	stp	x29, x30, [sp, #48]             ; 16-byte Folded Spill
	add	x29, sp, #48
	.cfi_def_cfa w29, 16
	.cfi_offset w30, -8
	.cfi_offset w29, -16
	stur	x0, [x29, #-8]
	stur	x1, [x29, #-16]
	str	x2, [sp, #24]
	ldur	x0, [x29, #-8]
	str	x0, [sp, #8]                    ; 8-byte Folded Spill
	bl	__ZNSt3__122__compressed_pair_elemINS_12basic_stringIcNS_11char_traitsIcEENS_9allocatorIcEEE5__repELi0ELb0EEC2B6v15006ENS_18__default_init_tagE
	ldr	x0, [sp, #8]                    ; 8-byte Folded Reload
	bl	__ZNSt3__122__compressed_pair_elemINS_9allocatorIcEELi1ELb1EEC2B6v15006ENS_18__default_init_tagE
	ldr	x0, [sp, #8]                    ; 8-byte Folded Reload
	ldp	x29, x30, [sp, #48]             ; 16-byte Folded Reload
	add	sp, sp, #64
	ret
	.cfi_endproc
                                        ; -- End function
	.private_extern	__ZNSt3__122__compressed_pair_elemINS_12basic_stringIcNS_11char_traitsIcEENS_9allocatorIcEEE5__repELi0ELb0EEC2B6v15006ENS_18__default_init_tagE ; -- Begin function _ZNSt3__122__compressed_pair_elemINS_12basic_stringIcNS_11char_traitsIcEENS_9allocatorIcEEE5__repELi0ELb0EEC2B6v15006ENS_18__default_init_tagE
	.globl	__ZNSt3__122__compressed_pair_elemINS_12basic_stringIcNS_11char_traitsIcEENS_9allocatorIcEEE5__repELi0ELb0EEC2B6v15006ENS_18__default_init_tagE
	.weak_def_can_be_hidden	__ZNSt3__122__compressed_pair_elemINS_12basic_stringIcNS_11char_traitsIcEENS_9allocatorIcEEE5__repELi0ELb0EEC2B6v15006ENS_18__default_init_tagE
	.p2align	2
__ZNSt3__122__compressed_pair_elemINS_12basic_stringIcNS_11char_traitsIcEENS_9allocatorIcEEE5__repELi0ELb0EEC2B6v15006ENS_18__default_init_tagE: ; @_ZNSt3__122__compressed_pair_elemINS_12basic_stringIcNS_11char_traitsIcEENS_9allocatorIcEEE5__repELi0ELb0EEC2B6v15006ENS_18__default_init_tagE
	.cfi_startproc
; %bb.0:
	sub	sp, sp, #16
	.cfi_def_cfa_offset 16
	str	x0, [sp]
	ldr	x0, [sp]
	add	sp, sp, #16
	ret
	.cfi_endproc
                                        ; -- End function
	.private_extern	__ZNSt3__122__compressed_pair_elemINS_9allocatorIcEELi1ELb1EEC2B6v15006ENS_18__default_init_tagE ; -- Begin function _ZNSt3__122__compressed_pair_elemINS_9allocatorIcEELi1ELb1EEC2B6v15006ENS_18__default_init_tagE
	.globl	__ZNSt3__122__compressed_pair_elemINS_9allocatorIcEELi1ELb1EEC2B6v15006ENS_18__default_init_tagE
	.weak_def_can_be_hidden	__ZNSt3__122__compressed_pair_elemINS_9allocatorIcEELi1ELb1EEC2B6v15006ENS_18__default_init_tagE
	.p2align	2
__ZNSt3__122__compressed_pair_elemINS_9allocatorIcEELi1ELb1EEC2B6v15006ENS_18__default_init_tagE: ; @_ZNSt3__122__compressed_pair_elemINS_9allocatorIcEELi1ELb1EEC2B6v15006ENS_18__default_init_tagE
	.cfi_startproc
; %bb.0:
	sub	sp, sp, #48
	.cfi_def_cfa_offset 48
	stp	x29, x30, [sp, #32]             ; 16-byte Folded Spill
	add	x29, sp, #32
	.cfi_def_cfa w29, 16
	.cfi_offset w30, -8
	.cfi_offset w29, -16
	str	x0, [sp, #16]
	ldr	x0, [sp, #16]
	str	x0, [sp, #8]                    ; 8-byte Folded Spill
	bl	__ZNSt3__19allocatorIcEC2B6v15006Ev
	ldr	x0, [sp, #8]                    ; 8-byte Folded Reload
	ldp	x29, x30, [sp, #32]             ; 16-byte Folded Reload
	add	sp, sp, #48
	ret
	.cfi_endproc
                                        ; -- End function
	.private_extern	__ZNSt3__19allocatorIcEC2B6v15006Ev ; -- Begin function _ZNSt3__19allocatorIcEC2B6v15006Ev
	.globl	__ZNSt3__19allocatorIcEC2B6v15006Ev
	.weak_def_can_be_hidden	__ZNSt3__19allocatorIcEC2B6v15006Ev
	.p2align	2
__ZNSt3__19allocatorIcEC2B6v15006Ev:    ; @_ZNSt3__19allocatorIcEC2B6v15006Ev
	.cfi_startproc
; %bb.0:
	sub	sp, sp, #32
	.cfi_def_cfa_offset 32
	stp	x29, x30, [sp, #16]             ; 16-byte Folded Spill
	add	x29, sp, #16
	.cfi_def_cfa w29, 16
	.cfi_offset w30, -8
	.cfi_offset w29, -16
	str	x0, [sp, #8]
	ldr	x0, [sp, #8]
	str	x0, [sp]                        ; 8-byte Folded Spill
	bl	__ZNSt3__116__non_trivial_ifILb1ENS_9allocatorIcEEEC2B6v15006Ev
	ldr	x0, [sp]                        ; 8-byte Folded Reload
	ldp	x29, x30, [sp, #16]             ; 16-byte Folded Reload
	add	sp, sp, #32
	ret
	.cfi_endproc
                                        ; -- End function
	.private_extern	__ZNSt3__116__non_trivial_ifILb1ENS_9allocatorIcEEEC2B6v15006Ev ; -- Begin function _ZNSt3__116__non_trivial_ifILb1ENS_9allocatorIcEEEC2B6v15006Ev
	.globl	__ZNSt3__116__non_trivial_ifILb1ENS_9allocatorIcEEEC2B6v15006Ev
	.weak_def_can_be_hidden	__ZNSt3__116__non_trivial_ifILb1ENS_9allocatorIcEEEC2B6v15006Ev
	.p2align	2
__ZNSt3__116__non_trivial_ifILb1ENS_9allocatorIcEEEC2B6v15006Ev: ; @_ZNSt3__116__non_trivial_ifILb1ENS_9allocatorIcEEEC2B6v15006Ev
	.cfi_startproc
; %bb.0:
	sub	sp, sp, #16
	.cfi_def_cfa_offset 16
	str	x0, [sp, #8]
	ldr	x0, [sp, #8]
	add	sp, sp, #16
	ret
	.cfi_endproc
                                        ; -- End function
	.private_extern	__ZNKSt3__112basic_stringIcNS_11char_traitsIcEENS_9allocatorIcEEE4sizeB6v15006Ev ; -- Begin function _ZNKSt3__112basic_stringIcNS_11char_traitsIcEENS_9allocatorIcEEE4sizeB6v15006Ev
	.globl	__ZNKSt3__112basic_stringIcNS_11char_traitsIcEENS_9allocatorIcEEE4sizeB6v15006Ev
	.weak_definition	__ZNKSt3__112basic_stringIcNS_11char_traitsIcEENS_9allocatorIcEEE4sizeB6v15006Ev
	.p2align	2
__ZNKSt3__112basic_stringIcNS_11char_traitsIcEENS_9allocatorIcEEE4sizeB6v15006Ev: ; @_ZNKSt3__112basic_stringIcNS_11char_traitsIcEENS_9allocatorIcEEE4sizeB6v15006Ev
	.cfi_startproc
; %bb.0:
	sub	sp, sp, #48
	.cfi_def_cfa_offset 48
	stp	x29, x30, [sp, #32]             ; 16-byte Folded Spill
	add	x29, sp, #32
	.cfi_def_cfa w29, 16
	.cfi_offset w30, -8
	.cfi_offset w29, -16
	stur	x0, [x29, #-8]
	ldur	x0, [x29, #-8]
	str	x0, [sp, #16]                   ; 8-byte Folded Spill
	bl	__ZNKSt3__112basic_stringIcNS_11char_traitsIcEENS_9allocatorIcEEE9__is_longB6v15006Ev
	tbz	w0, #0, LBB86_2
	b	LBB86_1
LBB86_1:
	ldr	x0, [sp, #16]                   ; 8-byte Folded Reload
	bl	__ZNKSt3__112basic_stringIcNS_11char_traitsIcEENS_9allocatorIcEEE15__get_long_sizeB6v15006Ev
	str	x0, [sp, #8]                    ; 8-byte Folded Spill
	b	LBB86_3
LBB86_2:
	ldr	x0, [sp, #16]                   ; 8-byte Folded Reload
	bl	__ZNKSt3__112basic_stringIcNS_11char_traitsIcEENS_9allocatorIcEEE16__get_short_sizeB6v15006Ev
	str	x0, [sp, #8]                    ; 8-byte Folded Spill
	b	LBB86_3
LBB86_3:
	ldr	x0, [sp, #8]                    ; 8-byte Folded Reload
	ldp	x29, x30, [sp, #32]             ; 16-byte Folded Reload
	add	sp, sp, #48
	ret
	.cfi_endproc
                                        ; -- End function
	.private_extern	__ZNKSt3__112basic_stringIcNS_11char_traitsIcEENS_9allocatorIcEEE9__is_longB6v15006Ev ; -- Begin function _ZNKSt3__112basic_stringIcNS_11char_traitsIcEENS_9allocatorIcEEE9__is_longB6v15006Ev
	.globl	__ZNKSt3__112basic_stringIcNS_11char_traitsIcEENS_9allocatorIcEEE9__is_longB6v15006Ev
	.weak_definition	__ZNKSt3__112basic_stringIcNS_11char_traitsIcEENS_9allocatorIcEEE9__is_longB6v15006Ev
	.p2align	2
__ZNKSt3__112basic_stringIcNS_11char_traitsIcEENS_9allocatorIcEEE9__is_longB6v15006Ev: ; @_ZNKSt3__112basic_stringIcNS_11char_traitsIcEENS_9allocatorIcEEE9__is_longB6v15006Ev
	.cfi_startproc
; %bb.0:
	sub	sp, sp, #32
	.cfi_def_cfa_offset 32
	stp	x29, x30, [sp, #16]             ; 16-byte Folded Spill
	add	x29, sp, #16
	.cfi_def_cfa w29, 16
	.cfi_offset w30, -8
	.cfi_offset w29, -16
	str	x0, [sp, #8]
	ldr	x0, [sp, #8]
	bl	__ZNKSt3__117__compressed_pairINS_12basic_stringIcNS_11char_traitsIcEENS_9allocatorIcEEE5__repES5_E5firstB6v15006Ev
	ldrb	w8, [x0, #23]
	lsr	w8, w8, #7
	ands	w8, w8, #0xff
	cset	w8, ne
	and	w0, w8, #0x1
	ldp	x29, x30, [sp, #16]             ; 16-byte Folded Reload
	add	sp, sp, #32
	ret
	.cfi_endproc
                                        ; -- End function
	.private_extern	__ZNKSt3__112basic_stringIcNS_11char_traitsIcEENS_9allocatorIcEEE15__get_long_sizeB6v15006Ev ; -- Begin function _ZNKSt3__112basic_stringIcNS_11char_traitsIcEENS_9allocatorIcEEE15__get_long_sizeB6v15006Ev
	.globl	__ZNKSt3__112basic_stringIcNS_11char_traitsIcEENS_9allocatorIcEEE15__get_long_sizeB6v15006Ev
	.weak_definition	__ZNKSt3__112basic_stringIcNS_11char_traitsIcEENS_9allocatorIcEEE15__get_long_sizeB6v15006Ev
	.p2align	2
__ZNKSt3__112basic_stringIcNS_11char_traitsIcEENS_9allocatorIcEEE15__get_long_sizeB6v15006Ev: ; @_ZNKSt3__112basic_stringIcNS_11char_traitsIcEENS_9allocatorIcEEE15__get_long_sizeB6v15006Ev
	.cfi_startproc
; %bb.0:
	sub	sp, sp, #32
	.cfi_def_cfa_offset 32
	stp	x29, x30, [sp, #16]             ; 16-byte Folded Spill
	add	x29, sp, #16
	.cfi_def_cfa w29, 16
	.cfi_offset w30, -8
	.cfi_offset w29, -16
	str	x0, [sp, #8]
	ldr	x0, [sp, #8]
	bl	__ZNKSt3__117__compressed_pairINS_12basic_stringIcNS_11char_traitsIcEENS_9allocatorIcEEE5__repES5_E5firstB6v15006Ev
	ldr	x0, [x0, #8]
	ldp	x29, x30, [sp, #16]             ; 16-byte Folded Reload
	add	sp, sp, #32
	ret
	.cfi_endproc
                                        ; -- End function
	.private_extern	__ZNKSt3__112basic_stringIcNS_11char_traitsIcEENS_9allocatorIcEEE16__get_short_sizeB6v15006Ev ; -- Begin function _ZNKSt3__112basic_stringIcNS_11char_traitsIcEENS_9allocatorIcEEE16__get_short_sizeB6v15006Ev
	.globl	__ZNKSt3__112basic_stringIcNS_11char_traitsIcEENS_9allocatorIcEEE16__get_short_sizeB6v15006Ev
	.weak_definition	__ZNKSt3__112basic_stringIcNS_11char_traitsIcEENS_9allocatorIcEEE16__get_short_sizeB6v15006Ev
	.p2align	2
__ZNKSt3__112basic_stringIcNS_11char_traitsIcEENS_9allocatorIcEEE16__get_short_sizeB6v15006Ev: ; @_ZNKSt3__112basic_stringIcNS_11char_traitsIcEENS_9allocatorIcEEE16__get_short_sizeB6v15006Ev
	.cfi_startproc
; %bb.0:
	sub	sp, sp, #32
	.cfi_def_cfa_offset 32
	stp	x29, x30, [sp, #16]             ; 16-byte Folded Spill
	add	x29, sp, #16
	.cfi_def_cfa w29, 16
	.cfi_offset w30, -8
	.cfi_offset w29, -16
	str	x0, [sp, #8]
	ldr	x0, [sp, #8]
	bl	__ZNKSt3__117__compressed_pairINS_12basic_stringIcNS_11char_traitsIcEENS_9allocatorIcEEE5__repES5_E5firstB6v15006Ev
	ldrb	w8, [x0, #23]
	and	w9, w8, #0x7f
                                        ; implicit-def: $x8
	mov	x8, x9
	and	x0, x8, #0xff
	ldp	x29, x30, [sp, #16]             ; 16-byte Folded Reload
	add	sp, sp, #32
	ret
	.cfi_endproc
                                        ; -- End function
	.private_extern	__ZNKSt3__117__compressed_pairINS_12basic_stringIcNS_11char_traitsIcEENS_9allocatorIcEEE5__repES5_E5firstB6v15006Ev ; -- Begin function _ZNKSt3__117__compressed_pairINS_12basic_stringIcNS_11char_traitsIcEENS_9allocatorIcEEE5__repES5_E5firstB6v15006Ev
	.globl	__ZNKSt3__117__compressed_pairINS_12basic_stringIcNS_11char_traitsIcEENS_9allocatorIcEEE5__repES5_E5firstB6v15006Ev
	.weak_definition	__ZNKSt3__117__compressed_pairINS_12basic_stringIcNS_11char_traitsIcEENS_9allocatorIcEEE5__repES5_E5firstB6v15006Ev
	.p2align	2
__ZNKSt3__117__compressed_pairINS_12basic_stringIcNS_11char_traitsIcEENS_9allocatorIcEEE5__repES5_E5firstB6v15006Ev: ; @_ZNKSt3__117__compressed_pairINS_12basic_stringIcNS_11char_traitsIcEENS_9allocatorIcEEE5__repES5_E5firstB6v15006Ev
	.cfi_startproc
; %bb.0:
	sub	sp, sp, #32
	.cfi_def_cfa_offset 32
	stp	x29, x30, [sp, #16]             ; 16-byte Folded Spill
	add	x29, sp, #16
	.cfi_def_cfa w29, 16
	.cfi_offset w30, -8
	.cfi_offset w29, -16
	str	x0, [sp, #8]
	ldr	x0, [sp, #8]
	bl	__ZNKSt3__122__compressed_pair_elemINS_12basic_stringIcNS_11char_traitsIcEENS_9allocatorIcEEE5__repELi0ELb0EE5__getB6v15006Ev
	ldp	x29, x30, [sp, #16]             ; 16-byte Folded Reload
	add	sp, sp, #32
	ret
	.cfi_endproc
                                        ; -- End function
	.private_extern	__ZNKSt3__122__compressed_pair_elemINS_12basic_stringIcNS_11char_traitsIcEENS_9allocatorIcEEE5__repELi0ELb0EE5__getB6v15006Ev ; -- Begin function _ZNKSt3__122__compressed_pair_elemINS_12basic_stringIcNS_11char_traitsIcEENS_9allocatorIcEEE5__repELi0ELb0EE5__getB6v15006Ev
	.globl	__ZNKSt3__122__compressed_pair_elemINS_12basic_stringIcNS_11char_traitsIcEENS_9allocatorIcEEE5__repELi0ELb0EE5__getB6v15006Ev
	.weak_definition	__ZNKSt3__122__compressed_pair_elemINS_12basic_stringIcNS_11char_traitsIcEENS_9allocatorIcEEE5__repELi0ELb0EE5__getB6v15006Ev
	.p2align	2
__ZNKSt3__122__compressed_pair_elemINS_12basic_stringIcNS_11char_traitsIcEENS_9allocatorIcEEE5__repELi0ELb0EE5__getB6v15006Ev: ; @_ZNKSt3__122__compressed_pair_elemINS_12basic_stringIcNS_11char_traitsIcEENS_9allocatorIcEEE5__repELi0ELb0EE5__getB6v15006Ev
	.cfi_startproc
; %bb.0:
	sub	sp, sp, #16
	.cfi_def_cfa_offset 16
	str	x0, [sp, #8]
	ldr	x0, [sp, #8]
	add	sp, sp, #16
	ret
	.cfi_endproc
                                        ; -- End function
	.private_extern	__ZNKSt3__112basic_stringIcNS_11char_traitsIcEENS_9allocatorIcEEE7__allocB6v15006Ev ; -- Begin function _ZNKSt3__112basic_stringIcNS_11char_traitsIcEENS_9allocatorIcEEE7__allocB6v15006Ev
	.globl	__ZNKSt3__112basic_stringIcNS_11char_traitsIcEENS_9allocatorIcEEE7__allocB6v15006Ev
	.weak_definition	__ZNKSt3__112basic_stringIcNS_11char_traitsIcEENS_9allocatorIcEEE7__allocB6v15006Ev
	.p2align	2
__ZNKSt3__112basic_stringIcNS_11char_traitsIcEENS_9allocatorIcEEE7__allocB6v15006Ev: ; @_ZNKSt3__112basic_stringIcNS_11char_traitsIcEENS_9allocatorIcEEE7__allocB6v15006Ev
	.cfi_startproc
; %bb.0:
	sub	sp, sp, #32
	.cfi_def_cfa_offset 32
	stp	x29, x30, [sp, #16]             ; 16-byte Folded Spill
	add	x29, sp, #16
	.cfi_def_cfa w29, 16
	.cfi_offset w30, -8
	.cfi_offset w29, -16
	str	x0, [sp, #8]
	ldr	x0, [sp, #8]
	bl	__ZNKSt3__117__compressed_pairINS_12basic_stringIcNS_11char_traitsIcEENS_9allocatorIcEEE5__repES5_E6secondB6v15006Ev
	ldp	x29, x30, [sp, #16]             ; 16-byte Folded Reload
	add	sp, sp, #32
	ret
	.cfi_endproc
                                        ; -- End function
	.private_extern	__ZNKSt3__117__compressed_pairINS_12basic_stringIcNS_11char_traitsIcEENS_9allocatorIcEEE5__repES5_E6secondB6v15006Ev ; -- Begin function _ZNKSt3__117__compressed_pairINS_12basic_stringIcNS_11char_traitsIcEENS_9allocatorIcEEE5__repES5_E6secondB6v15006Ev
	.globl	__ZNKSt3__117__compressed_pairINS_12basic_stringIcNS_11char_traitsIcEENS_9allocatorIcEEE5__repES5_E6secondB6v15006Ev
	.weak_definition	__ZNKSt3__117__compressed_pairINS_12basic_stringIcNS_11char_traitsIcEENS_9allocatorIcEEE5__repES5_E6secondB6v15006Ev
	.p2align	2
__ZNKSt3__117__compressed_pairINS_12basic_stringIcNS_11char_traitsIcEENS_9allocatorIcEEE5__repES5_E6secondB6v15006Ev: ; @_ZNKSt3__117__compressed_pairINS_12basic_stringIcNS_11char_traitsIcEENS_9allocatorIcEEE5__repES5_E6secondB6v15006Ev
	.cfi_startproc
; %bb.0:
	sub	sp, sp, #32
	.cfi_def_cfa_offset 32
	stp	x29, x30, [sp, #16]             ; 16-byte Folded Spill
	add	x29, sp, #16
	.cfi_def_cfa w29, 16
	.cfi_offset w30, -8
	.cfi_offset w29, -16
	str	x0, [sp, #8]
	ldr	x0, [sp, #8]
	bl	__ZNKSt3__122__compressed_pair_elemINS_9allocatorIcEELi1ELb1EE5__getB6v15006Ev
	ldp	x29, x30, [sp, #16]             ; 16-byte Folded Reload
	add	sp, sp, #32
	ret
	.cfi_endproc
                                        ; -- End function
	.private_extern	__ZNKSt3__122__compressed_pair_elemINS_9allocatorIcEELi1ELb1EE5__getB6v15006Ev ; -- Begin function _ZNKSt3__122__compressed_pair_elemINS_9allocatorIcEELi1ELb1EE5__getB6v15006Ev
	.globl	__ZNKSt3__122__compressed_pair_elemINS_9allocatorIcEELi1ELb1EE5__getB6v15006Ev
	.weak_definition	__ZNKSt3__122__compressed_pair_elemINS_9allocatorIcEELi1ELb1EE5__getB6v15006Ev
	.p2align	2
__ZNKSt3__122__compressed_pair_elemINS_9allocatorIcEELi1ELb1EE5__getB6v15006Ev: ; @_ZNKSt3__122__compressed_pair_elemINS_9allocatorIcEELi1ELb1EE5__getB6v15006Ev
	.cfi_startproc
; %bb.0:
	sub	sp, sp, #16
	.cfi_def_cfa_offset 16
	str	x0, [sp, #8]
	ldr	x0, [sp, #8]
	add	sp, sp, #16
	ret
	.cfi_endproc
                                        ; -- End function
	.private_extern	__ZNSt3__112basic_stringIcNS_11char_traitsIcEENS_9allocatorIcEEE13__move_assignB6v15006ERS5_NS_17integral_constantIbLb1EEE ; -- Begin function _ZNSt3__112basic_stringIcNS_11char_traitsIcEENS_9allocatorIcEEE13__move_assignB6v15006ERS5_NS_17integral_constantIbLb1EEE
	.globl	__ZNSt3__112basic_stringIcNS_11char_traitsIcEENS_9allocatorIcEEE13__move_assignB6v15006ERS5_NS_17integral_constantIbLb1EEE
	.weak_definition	__ZNSt3__112basic_stringIcNS_11char_traitsIcEENS_9allocatorIcEEE13__move_assignB6v15006ERS5_NS_17integral_constantIbLb1EEE
	.p2align	2
__ZNSt3__112basic_stringIcNS_11char_traitsIcEENS_9allocatorIcEEE13__move_assignB6v15006ERS5_NS_17integral_constantIbLb1EEE: ; @_ZNSt3__112basic_stringIcNS_11char_traitsIcEENS_9allocatorIcEEE13__move_assignB6v15006ERS5_NS_17integral_constantIbLb1EEE
	.cfi_startproc
; %bb.0:
	sub	sp, sp, #80
	.cfi_def_cfa_offset 80
	stp	x29, x30, [sp, #64]             ; 16-byte Folded Spill
	add	x29, sp, #64
	.cfi_def_cfa w29, 16
	.cfi_offset w30, -8
	.cfi_offset w29, -16
	stur	x0, [x29, #-16]
	stur	x1, [x29, #-24]
	ldur	x0, [x29, #-16]
	str	x0, [sp, #24]                   ; 8-byte Folded Spill
	bl	__ZNKSt3__112basic_stringIcNS_11char_traitsIcEENS_9allocatorIcEEE9__is_longB6v15006Ev
	tbz	w0, #0, LBB95_2
	b	LBB95_1
LBB95_1:
	ldr	x0, [sp, #24]                   ; 8-byte Folded Reload
	bl	__ZNSt3__112basic_stringIcNS_11char_traitsIcEENS_9allocatorIcEEE7__allocB6v15006Ev
	mov	x1, x0
	ldr	x0, [sp, #24]                   ; 8-byte Folded Reload
	str	x1, [sp, #16]                   ; 8-byte Folded Spill
	bl	__ZNSt3__112basic_stringIcNS_11char_traitsIcEENS_9allocatorIcEEE18__get_long_pointerB6v15006Ev
	mov	x1, x0
	ldr	x0, [sp, #24]                   ; 8-byte Folded Reload
	str	x1, [sp, #8]                    ; 8-byte Folded Spill
	bl	__ZNKSt3__112basic_stringIcNS_11char_traitsIcEENS_9allocatorIcEEE14__get_long_capB6v15006Ev
	ldr	x1, [sp, #8]                    ; 8-byte Folded Reload
	mov	x2, x0
	ldr	x0, [sp, #16]                   ; 8-byte Folded Reload
	bl	__ZNSt3__116allocator_traitsINS_9allocatorIcEEE10deallocateB6v15006ERS2_Pcm
	b	LBB95_2
LBB95_2:
	ldr	x0, [sp, #24]                   ; 8-byte Folded Reload
	ldur	x1, [x29, #-24]
	bl	__ZNSt3__112basic_stringIcNS_11char_traitsIcEENS_9allocatorIcEEE19__move_assign_allocB6v15006ERS5_
	ldur	x0, [x29, #-24]
	bl	__ZNSt3__117__compressed_pairINS_12basic_stringIcNS_11char_traitsIcEENS_9allocatorIcEEE5__repES5_E5firstB6v15006Ev
	mov	x8, x0
	ldr	x0, [sp, #24]                   ; 8-byte Folded Reload
	str	x8, [sp]                        ; 8-byte Folded Spill
	bl	__ZNSt3__117__compressed_pairINS_12basic_stringIcNS_11char_traitsIcEENS_9allocatorIcEEE5__repES5_E5firstB6v15006Ev
	ldr	x8, [sp]                        ; 8-byte Folded Reload
	ldr	q0, [x8]
	str	q0, [x0]
	ldr	x8, [x8, #16]
	str	x8, [x0, #16]
	ldur	x0, [x29, #-24]
	mov	x1, #0
	bl	__ZNSt3__112basic_stringIcNS_11char_traitsIcEENS_9allocatorIcEEE16__set_short_sizeB6v15006Em
	ldur	x0, [x29, #-24]
	bl	__ZNSt3__112basic_stringIcNS_11char_traitsIcEENS_9allocatorIcEEE19__get_short_pointerB6v15006Ev
	sub	x1, x29, #25
	sturb	wzr, [x29, #-25]
	bl	__ZNSt3__111char_traitsIcE6assignERcRKc
	ldp	x29, x30, [sp, #64]             ; 16-byte Folded Reload
	add	sp, sp, #80
	ret
	.cfi_endproc
                                        ; -- End function
	.private_extern	__ZNSt3__116allocator_traitsINS_9allocatorIcEEE10deallocateB6v15006ERS2_Pcm ; -- Begin function _ZNSt3__116allocator_traitsINS_9allocatorIcEEE10deallocateB6v15006ERS2_Pcm
	.globl	__ZNSt3__116allocator_traitsINS_9allocatorIcEEE10deallocateB6v15006ERS2_Pcm
	.weak_definition	__ZNSt3__116allocator_traitsINS_9allocatorIcEEE10deallocateB6v15006ERS2_Pcm
	.p2align	2
__ZNSt3__116allocator_traitsINS_9allocatorIcEEE10deallocateB6v15006ERS2_Pcm: ; @_ZNSt3__116allocator_traitsINS_9allocatorIcEEE10deallocateB6v15006ERS2_Pcm
	.cfi_startproc
; %bb.0:
	sub	sp, sp, #48
	.cfi_def_cfa_offset 48
	stp	x29, x30, [sp, #32]             ; 16-byte Folded Spill
	add	x29, sp, #32
	.cfi_def_cfa w29, 16
	.cfi_offset w30, -8
	.cfi_offset w29, -16
	stur	x0, [x29, #-8]
	str	x1, [sp, #16]
	str	x2, [sp, #8]
	ldur	x0, [x29, #-8]
	ldr	x1, [sp, #16]
	ldr	x2, [sp, #8]
	bl	__ZNSt3__19allocatorIcE10deallocateB6v15006EPcm
	ldp	x29, x30, [sp, #32]             ; 16-byte Folded Reload
	add	sp, sp, #48
	ret
	.cfi_endproc
                                        ; -- End function
	.private_extern	__ZNSt3__112basic_stringIcNS_11char_traitsIcEENS_9allocatorIcEEE7__allocB6v15006Ev ; -- Begin function _ZNSt3__112basic_stringIcNS_11char_traitsIcEENS_9allocatorIcEEE7__allocB6v15006Ev
	.globl	__ZNSt3__112basic_stringIcNS_11char_traitsIcEENS_9allocatorIcEEE7__allocB6v15006Ev
	.weak_definition	__ZNSt3__112basic_stringIcNS_11char_traitsIcEENS_9allocatorIcEEE7__allocB6v15006Ev
	.p2align	2
__ZNSt3__112basic_stringIcNS_11char_traitsIcEENS_9allocatorIcEEE7__allocB6v15006Ev: ; @_ZNSt3__112basic_stringIcNS_11char_traitsIcEENS_9allocatorIcEEE7__allocB6v15006Ev
	.cfi_startproc
; %bb.0:
	sub	sp, sp, #32
	.cfi_def_cfa_offset 32
	stp	x29, x30, [sp, #16]             ; 16-byte Folded Spill
	add	x29, sp, #16
	.cfi_def_cfa w29, 16
	.cfi_offset w30, -8
	.cfi_offset w29, -16
	str	x0, [sp, #8]
	ldr	x0, [sp, #8]
	bl	__ZNSt3__117__compressed_pairINS_12basic_stringIcNS_11char_traitsIcEENS_9allocatorIcEEE5__repES5_E6secondB6v15006Ev
	ldp	x29, x30, [sp, #16]             ; 16-byte Folded Reload
	add	sp, sp, #32
	ret
	.cfi_endproc
                                        ; -- End function
	.private_extern	__ZNSt3__112basic_stringIcNS_11char_traitsIcEENS_9allocatorIcEEE18__get_long_pointerB6v15006Ev ; -- Begin function _ZNSt3__112basic_stringIcNS_11char_traitsIcEENS_9allocatorIcEEE18__get_long_pointerB6v15006Ev
	.globl	__ZNSt3__112basic_stringIcNS_11char_traitsIcEENS_9allocatorIcEEE18__get_long_pointerB6v15006Ev
	.weak_definition	__ZNSt3__112basic_stringIcNS_11char_traitsIcEENS_9allocatorIcEEE18__get_long_pointerB6v15006Ev
	.p2align	2
__ZNSt3__112basic_stringIcNS_11char_traitsIcEENS_9allocatorIcEEE18__get_long_pointerB6v15006Ev: ; @_ZNSt3__112basic_stringIcNS_11char_traitsIcEENS_9allocatorIcEEE18__get_long_pointerB6v15006Ev
	.cfi_startproc
; %bb.0:
	sub	sp, sp, #32
	.cfi_def_cfa_offset 32
	stp	x29, x30, [sp, #16]             ; 16-byte Folded Spill
	add	x29, sp, #16
	.cfi_def_cfa w29, 16
	.cfi_offset w30, -8
	.cfi_offset w29, -16
	str	x0, [sp, #8]
	ldr	x0, [sp, #8]
	bl	__ZNSt3__117__compressed_pairINS_12basic_stringIcNS_11char_traitsIcEENS_9allocatorIcEEE5__repES5_E5firstB6v15006Ev
	ldr	x0, [x0]
	ldp	x29, x30, [sp, #16]             ; 16-byte Folded Reload
	add	sp, sp, #32
	ret
	.cfi_endproc
                                        ; -- End function
	.private_extern	__ZNKSt3__112basic_stringIcNS_11char_traitsIcEENS_9allocatorIcEEE14__get_long_capB6v15006Ev ; -- Begin function _ZNKSt3__112basic_stringIcNS_11char_traitsIcEENS_9allocatorIcEEE14__get_long_capB6v15006Ev
	.globl	__ZNKSt3__112basic_stringIcNS_11char_traitsIcEENS_9allocatorIcEEE14__get_long_capB6v15006Ev
	.weak_definition	__ZNKSt3__112basic_stringIcNS_11char_traitsIcEENS_9allocatorIcEEE14__get_long_capB6v15006Ev
	.p2align	2
__ZNKSt3__112basic_stringIcNS_11char_traitsIcEENS_9allocatorIcEEE14__get_long_capB6v15006Ev: ; @_ZNKSt3__112basic_stringIcNS_11char_traitsIcEENS_9allocatorIcEEE14__get_long_capB6v15006Ev
	.cfi_startproc
; %bb.0:
	sub	sp, sp, #32
	.cfi_def_cfa_offset 32
	stp	x29, x30, [sp, #16]             ; 16-byte Folded Spill
	add	x29, sp, #16
	.cfi_def_cfa w29, 16
	.cfi_offset w30, -8
	.cfi_offset w29, -16
	str	x0, [sp, #8]
	ldr	x0, [sp, #8]
	bl	__ZNKSt3__117__compressed_pairINS_12basic_stringIcNS_11char_traitsIcEENS_9allocatorIcEEE5__repES5_E5firstB6v15006Ev
	ldr	x8, [x0, #16]
	and	x8, x8, #0x7fffffffffffffff
	lsr	x0, x8, #0
	ldp	x29, x30, [sp, #16]             ; 16-byte Folded Reload
	add	sp, sp, #32
	ret
	.cfi_endproc
                                        ; -- End function
	.private_extern	__ZNSt3__112basic_stringIcNS_11char_traitsIcEENS_9allocatorIcEEE19__move_assign_allocB6v15006ERS5_ ; -- Begin function _ZNSt3__112basic_stringIcNS_11char_traitsIcEENS_9allocatorIcEEE19__move_assign_allocB6v15006ERS5_
	.globl	__ZNSt3__112basic_stringIcNS_11char_traitsIcEENS_9allocatorIcEEE19__move_assign_allocB6v15006ERS5_
	.weak_definition	__ZNSt3__112basic_stringIcNS_11char_traitsIcEENS_9allocatorIcEEE19__move_assign_allocB6v15006ERS5_
	.p2align	2
__ZNSt3__112basic_stringIcNS_11char_traitsIcEENS_9allocatorIcEEE19__move_assign_allocB6v15006ERS5_: ; @_ZNSt3__112basic_stringIcNS_11char_traitsIcEENS_9allocatorIcEEE19__move_assign_allocB6v15006ERS5_
	.cfi_startproc
; %bb.0:
	sub	sp, sp, #48
	.cfi_def_cfa_offset 48
	stp	x29, x30, [sp, #32]             ; 16-byte Folded Spill
	add	x29, sp, #32
	.cfi_def_cfa w29, 16
	.cfi_offset w30, -8
	.cfi_offset w29, -16
	stur	x0, [x29, #-8]
	str	x1, [sp, #16]
	ldur	x0, [x29, #-8]
	ldr	x1, [sp, #16]
	bl	__ZNSt3__112basic_stringIcNS_11char_traitsIcEENS_9allocatorIcEEE19__move_assign_allocB6v15006ERS5_NS_17integral_constantIbLb1EEE
	ldp	x29, x30, [sp, #32]             ; 16-byte Folded Reload
	add	sp, sp, #48
	ret
	.cfi_endproc
                                        ; -- End function
	.private_extern	__ZNSt3__117__compressed_pairINS_12basic_stringIcNS_11char_traitsIcEENS_9allocatorIcEEE5__repES5_E5firstB6v15006Ev ; -- Begin function _ZNSt3__117__compressed_pairINS_12basic_stringIcNS_11char_traitsIcEENS_9allocatorIcEEE5__repES5_E5firstB6v15006Ev
	.globl	__ZNSt3__117__compressed_pairINS_12basic_stringIcNS_11char_traitsIcEENS_9allocatorIcEEE5__repES5_E5firstB6v15006Ev
	.weak_definition	__ZNSt3__117__compressed_pairINS_12basic_stringIcNS_11char_traitsIcEENS_9allocatorIcEEE5__repES5_E5firstB6v15006Ev
	.p2align	2
__ZNSt3__117__compressed_pairINS_12basic_stringIcNS_11char_traitsIcEENS_9allocatorIcEEE5__repES5_E5firstB6v15006Ev: ; @_ZNSt3__117__compressed_pairINS_12basic_stringIcNS_11char_traitsIcEENS_9allocatorIcEEE5__repES5_E5firstB6v15006Ev
	.cfi_startproc
; %bb.0:
	sub	sp, sp, #32
	.cfi_def_cfa_offset 32
	stp	x29, x30, [sp, #16]             ; 16-byte Folded Spill
	add	x29, sp, #16
	.cfi_def_cfa w29, 16
	.cfi_offset w30, -8
	.cfi_offset w29, -16
	str	x0, [sp, #8]
	ldr	x0, [sp, #8]
	bl	__ZNSt3__122__compressed_pair_elemINS_12basic_stringIcNS_11char_traitsIcEENS_9allocatorIcEEE5__repELi0ELb0EE5__getB6v15006Ev
	ldp	x29, x30, [sp, #16]             ; 16-byte Folded Reload
	add	sp, sp, #32
	ret
	.cfi_endproc
                                        ; -- End function
	.private_extern	__ZNSt3__112basic_stringIcNS_11char_traitsIcEENS_9allocatorIcEEE16__set_short_sizeB6v15006Em ; -- Begin function _ZNSt3__112basic_stringIcNS_11char_traitsIcEENS_9allocatorIcEEE16__set_short_sizeB6v15006Em
	.globl	__ZNSt3__112basic_stringIcNS_11char_traitsIcEENS_9allocatorIcEEE16__set_short_sizeB6v15006Em
	.weak_definition	__ZNSt3__112basic_stringIcNS_11char_traitsIcEENS_9allocatorIcEEE16__set_short_sizeB6v15006Em
	.p2align	2
__ZNSt3__112basic_stringIcNS_11char_traitsIcEENS_9allocatorIcEEE16__set_short_sizeB6v15006Em: ; @_ZNSt3__112basic_stringIcNS_11char_traitsIcEENS_9allocatorIcEEE16__set_short_sizeB6v15006Em
	.cfi_startproc
; %bb.0:
	sub	sp, sp, #64
	.cfi_def_cfa_offset 64
	stp	x29, x30, [sp, #48]             ; 16-byte Folded Spill
	add	x29, sp, #48
	.cfi_def_cfa w29, 16
	.cfi_offset w30, -8
	.cfi_offset w29, -16
	stur	x0, [x29, #-8]
	stur	x1, [x29, #-16]
	ldur	x0, [x29, #-8]
	str	x0, [sp, #16]                   ; 8-byte Folded Spill
	ldur	x8, [x29, #-16]
	str	x8, [sp, #8]                    ; 8-byte Folded Spill
	bl	__ZNSt3__117__compressed_pairINS_12basic_stringIcNS_11char_traitsIcEENS_9allocatorIcEEE5__repES5_E5firstB6v15006Ev
	ldr	x10, [sp, #8]                   ; 8-byte Folded Reload
	mov	x9, x0
	ldr	x0, [sp, #16]                   ; 8-byte Folded Reload
	ldrb	w8, [x9, #23]
                                        ; kill: def $w10 killed $w10 killed $x10
	mov	w11, #127
	stur	w11, [x29, #-20]                ; 4-byte Folded Spill
	and	w10, w10, #0x7f
	and	w8, w8, #0xffffff80
	orr	w8, w8, w10
	strb	w8, [x9, #23]
	bl	__ZNSt3__117__compressed_pairINS_12basic_stringIcNS_11char_traitsIcEENS_9allocatorIcEEE5__repES5_E5firstB6v15006Ev
	ldur	w9, [x29, #-20]                 ; 4-byte Folded Reload
	ldrb	w8, [x0, #23]
	and	w8, w8, w9
	mov	w9, #0
	orr	w8, w8, w9
	strb	w8, [x0, #23]
	ldp	x29, x30, [sp, #48]             ; 16-byte Folded Reload
	add	sp, sp, #64
	ret
	.cfi_endproc
                                        ; -- End function
	.globl	__ZNSt3__111char_traitsIcE6assignERcRKc ; -- Begin function _ZNSt3__111char_traitsIcE6assignERcRKc
	.weak_definition	__ZNSt3__111char_traitsIcE6assignERcRKc
	.p2align	2
__ZNSt3__111char_traitsIcE6assignERcRKc: ; @_ZNSt3__111char_traitsIcE6assignERcRKc
	.cfi_startproc
; %bb.0:
	sub	sp, sp, #16
	.cfi_def_cfa_offset 16
	str	x0, [sp, #8]
	str	x1, [sp]
	ldr	x8, [sp]
	ldrb	w8, [x8]
	ldr	x9, [sp, #8]
	strb	w8, [x9]
	add	sp, sp, #16
	ret
	.cfi_endproc
                                        ; -- End function
	.private_extern	__ZNSt3__112basic_stringIcNS_11char_traitsIcEENS_9allocatorIcEEE19__get_short_pointerB6v15006Ev ; -- Begin function _ZNSt3__112basic_stringIcNS_11char_traitsIcEENS_9allocatorIcEEE19__get_short_pointerB6v15006Ev
	.globl	__ZNSt3__112basic_stringIcNS_11char_traitsIcEENS_9allocatorIcEEE19__get_short_pointerB6v15006Ev
	.weak_definition	__ZNSt3__112basic_stringIcNS_11char_traitsIcEENS_9allocatorIcEEE19__get_short_pointerB6v15006Ev
	.p2align	2
__ZNSt3__112basic_stringIcNS_11char_traitsIcEENS_9allocatorIcEEE19__get_short_pointerB6v15006Ev: ; @_ZNSt3__112basic_stringIcNS_11char_traitsIcEENS_9allocatorIcEEE19__get_short_pointerB6v15006Ev
	.cfi_startproc
; %bb.0:
	sub	sp, sp, #32
	.cfi_def_cfa_offset 32
	stp	x29, x30, [sp, #16]             ; 16-byte Folded Spill
	add	x29, sp, #16
	.cfi_def_cfa w29, 16
	.cfi_offset w30, -8
	.cfi_offset w29, -16
	str	x0, [sp, #8]
	ldr	x0, [sp, #8]
	bl	__ZNSt3__117__compressed_pairINS_12basic_stringIcNS_11char_traitsIcEENS_9allocatorIcEEE5__repES5_E5firstB6v15006Ev
	bl	__ZNSt3__114pointer_traitsIPcE10pointer_toB6v15006ERc
	ldp	x29, x30, [sp, #16]             ; 16-byte Folded Reload
	add	sp, sp, #32
	ret
	.cfi_endproc
                                        ; -- End function
	.private_extern	__ZNSt3__19allocatorIcE10deallocateB6v15006EPcm ; -- Begin function _ZNSt3__19allocatorIcE10deallocateB6v15006EPcm
	.globl	__ZNSt3__19allocatorIcE10deallocateB6v15006EPcm
	.weak_definition	__ZNSt3__19allocatorIcE10deallocateB6v15006EPcm
	.p2align	2
__ZNSt3__19allocatorIcE10deallocateB6v15006EPcm: ; @_ZNSt3__19allocatorIcE10deallocateB6v15006EPcm
Lfunc_begin8:
	.cfi_startproc
	.cfi_personality 155, ___gxx_personality_v0
	.cfi_lsda 16, Lexception8
; %bb.0:
	sub	sp, sp, #48
	.cfi_def_cfa_offset 48
	stp	x29, x30, [sp, #32]             ; 16-byte Folded Spill
	add	x29, sp, #32
	.cfi_def_cfa w29, 16
	.cfi_offset w30, -8
	.cfi_offset w29, -16
	stur	x0, [x29, #-8]
	str	x1, [sp, #16]
	str	x2, [sp, #8]
	ldr	x0, [sp, #16]
	ldr	x8, [sp, #8]
	lsr	x1, x8, #0
Ltmp94:
	mov	x2, #1
	bl	__ZNSt3__119__libcpp_deallocateB6v15006EPvmm
Ltmp95:
	b	LBB105_1
LBB105_1:
	ldp	x29, x30, [sp, #32]             ; 16-byte Folded Reload
	add	sp, sp, #48
	ret
LBB105_2:
Ltmp96:
	bl	___clang_call_terminate
Lfunc_end8:
	.cfi_endproc
	.section	__TEXT,__gcc_except_tab
	.p2align	2
GCC_except_table105:
Lexception8:
	.byte	255                             ; @LPStart Encoding = omit
	.byte	155                             ; @TType Encoding = indirect pcrel sdata4
	.uleb128 Lttbase5-Lttbaseref5
Lttbaseref5:
	.byte	1                               ; Call site Encoding = uleb128
	.uleb128 Lcst_end8-Lcst_begin8
Lcst_begin8:
	.uleb128 Ltmp94-Lfunc_begin8            ; >> Call Site 1 <<
	.uleb128 Ltmp95-Ltmp94                  ;   Call between Ltmp94 and Ltmp95
	.uleb128 Ltmp96-Lfunc_begin8            ;     jumps to Ltmp96
	.byte	1                               ;   On action: 1
Lcst_end8:
	.byte	1                               ; >> Action Record 1 <<
                                        ;   Catch TypeInfo 1
	.byte	0                               ;   No further actions
	.p2align	2
                                        ; >> Catch TypeInfos <<
	.long	0                               ; TypeInfo 1
Lttbase5:
	.p2align	2
                                        ; -- End function
	.section	__TEXT,__text,regular,pure_instructions
	.private_extern	__ZNSt3__117__compressed_pairINS_12basic_stringIcNS_11char_traitsIcEENS_9allocatorIcEEE5__repES5_E6secondB6v15006Ev ; -- Begin function _ZNSt3__117__compressed_pairINS_12basic_stringIcNS_11char_traitsIcEENS_9allocatorIcEEE5__repES5_E6secondB6v15006Ev
	.globl	__ZNSt3__117__compressed_pairINS_12basic_stringIcNS_11char_traitsIcEENS_9allocatorIcEEE5__repES5_E6secondB6v15006Ev
	.weak_definition	__ZNSt3__117__compressed_pairINS_12basic_stringIcNS_11char_traitsIcEENS_9allocatorIcEEE5__repES5_E6secondB6v15006Ev
	.p2align	2
__ZNSt3__117__compressed_pairINS_12basic_stringIcNS_11char_traitsIcEENS_9allocatorIcEEE5__repES5_E6secondB6v15006Ev: ; @_ZNSt3__117__compressed_pairINS_12basic_stringIcNS_11char_traitsIcEENS_9allocatorIcEEE5__repES5_E6secondB6v15006Ev
	.cfi_startproc
; %bb.0:
	sub	sp, sp, #32
	.cfi_def_cfa_offset 32
	stp	x29, x30, [sp, #16]             ; 16-byte Folded Spill
	add	x29, sp, #16
	.cfi_def_cfa w29, 16
	.cfi_offset w30, -8
	.cfi_offset w29, -16
	str	x0, [sp, #8]
	ldr	x0, [sp, #8]
	bl	__ZNSt3__122__compressed_pair_elemINS_9allocatorIcEELi1ELb1EE5__getB6v15006Ev
	ldp	x29, x30, [sp, #16]             ; 16-byte Folded Reload
	add	sp, sp, #32
	ret
	.cfi_endproc
                                        ; -- End function
	.private_extern	__ZNSt3__122__compressed_pair_elemINS_9allocatorIcEELi1ELb1EE5__getB6v15006Ev ; -- Begin function _ZNSt3__122__compressed_pair_elemINS_9allocatorIcEELi1ELb1EE5__getB6v15006Ev
	.globl	__ZNSt3__122__compressed_pair_elemINS_9allocatorIcEELi1ELb1EE5__getB6v15006Ev
	.weak_definition	__ZNSt3__122__compressed_pair_elemINS_9allocatorIcEELi1ELb1EE5__getB6v15006Ev
	.p2align	2
__ZNSt3__122__compressed_pair_elemINS_9allocatorIcEELi1ELb1EE5__getB6v15006Ev: ; @_ZNSt3__122__compressed_pair_elemINS_9allocatorIcEELi1ELb1EE5__getB6v15006Ev
	.cfi_startproc
; %bb.0:
	sub	sp, sp, #16
	.cfi_def_cfa_offset 16
	str	x0, [sp, #8]
	ldr	x0, [sp, #8]
	add	sp, sp, #16
	ret
	.cfi_endproc
                                        ; -- End function
	.private_extern	__ZNSt3__112basic_stringIcNS_11char_traitsIcEENS_9allocatorIcEEE19__move_assign_allocB6v15006ERS5_NS_17integral_constantIbLb1EEE ; -- Begin function _ZNSt3__112basic_stringIcNS_11char_traitsIcEENS_9allocatorIcEEE19__move_assign_allocB6v15006ERS5_NS_17integral_constantIbLb1EEE
	.globl	__ZNSt3__112basic_stringIcNS_11char_traitsIcEENS_9allocatorIcEEE19__move_assign_allocB6v15006ERS5_NS_17integral_constantIbLb1EEE
	.weak_definition	__ZNSt3__112basic_stringIcNS_11char_traitsIcEENS_9allocatorIcEEE19__move_assign_allocB6v15006ERS5_NS_17integral_constantIbLb1EEE
	.p2align	2
__ZNSt3__112basic_stringIcNS_11char_traitsIcEENS_9allocatorIcEEE19__move_assign_allocB6v15006ERS5_NS_17integral_constantIbLb1EEE: ; @_ZNSt3__112basic_stringIcNS_11char_traitsIcEENS_9allocatorIcEEE19__move_assign_allocB6v15006ERS5_NS_17integral_constantIbLb1EEE
	.cfi_startproc
; %bb.0:
	sub	sp, sp, #48
	.cfi_def_cfa_offset 48
	stp	x29, x30, [sp, #32]             ; 16-byte Folded Spill
	add	x29, sp, #32
	.cfi_def_cfa w29, 16
	.cfi_offset w30, -8
	.cfi_offset w29, -16
	str	x0, [sp, #16]
	str	x1, [sp, #8]
	ldr	x8, [sp, #16]
	str	x8, [sp]                        ; 8-byte Folded Spill
	ldr	x0, [sp, #8]
	bl	__ZNSt3__112basic_stringIcNS_11char_traitsIcEENS_9allocatorIcEEE7__allocB6v15006Ev
	ldr	x0, [sp]                        ; 8-byte Folded Reload
	bl	__ZNSt3__112basic_stringIcNS_11char_traitsIcEENS_9allocatorIcEEE7__allocB6v15006Ev
	ldp	x29, x30, [sp, #32]             ; 16-byte Folded Reload
	add	sp, sp, #48
	ret
	.cfi_endproc
                                        ; -- End function
	.private_extern	__ZNSt3__122__compressed_pair_elemINS_12basic_stringIcNS_11char_traitsIcEENS_9allocatorIcEEE5__repELi0ELb0EE5__getB6v15006Ev ; -- Begin function _ZNSt3__122__compressed_pair_elemINS_12basic_stringIcNS_11char_traitsIcEENS_9allocatorIcEEE5__repELi0ELb0EE5__getB6v15006Ev
	.globl	__ZNSt3__122__compressed_pair_elemINS_12basic_stringIcNS_11char_traitsIcEENS_9allocatorIcEEE5__repELi0ELb0EE5__getB6v15006Ev
	.weak_definition	__ZNSt3__122__compressed_pair_elemINS_12basic_stringIcNS_11char_traitsIcEENS_9allocatorIcEEE5__repELi0ELb0EE5__getB6v15006Ev
	.p2align	2
__ZNSt3__122__compressed_pair_elemINS_12basic_stringIcNS_11char_traitsIcEENS_9allocatorIcEEE5__repELi0ELb0EE5__getB6v15006Ev: ; @_ZNSt3__122__compressed_pair_elemINS_12basic_stringIcNS_11char_traitsIcEENS_9allocatorIcEEE5__repELi0ELb0EE5__getB6v15006Ev
	.cfi_startproc
; %bb.0:
	sub	sp, sp, #16
	.cfi_def_cfa_offset 16
	str	x0, [sp, #8]
	ldr	x0, [sp, #8]
	add	sp, sp, #16
	ret
	.cfi_endproc
                                        ; -- End function
	.private_extern	__ZNSt3__114pointer_traitsIPcE10pointer_toB6v15006ERc ; -- Begin function _ZNSt3__114pointer_traitsIPcE10pointer_toB6v15006ERc
	.globl	__ZNSt3__114pointer_traitsIPcE10pointer_toB6v15006ERc
	.weak_definition	__ZNSt3__114pointer_traitsIPcE10pointer_toB6v15006ERc
	.p2align	2
__ZNSt3__114pointer_traitsIPcE10pointer_toB6v15006ERc: ; @_ZNSt3__114pointer_traitsIPcE10pointer_toB6v15006ERc
	.cfi_startproc
; %bb.0:
	sub	sp, sp, #16
	.cfi_def_cfa_offset 16
	str	x0, [sp, #8]
	ldr	x0, [sp, #8]
	add	sp, sp, #16
	ret
	.cfi_endproc
                                        ; -- End function
	.private_extern	__ZNSt3__18optionalIN3map6MapperEEC2B6v15006Ev ; -- Begin function _ZNSt3__18optionalIN3map6MapperEEC2B6v15006Ev
	.globl	__ZNSt3__18optionalIN3map6MapperEEC2B6v15006Ev
	.weak_def_can_be_hidden	__ZNSt3__18optionalIN3map6MapperEEC2B6v15006Ev
	.p2align	2
__ZNSt3__18optionalIN3map6MapperEEC2B6v15006Ev: ; @_ZNSt3__18optionalIN3map6MapperEEC2B6v15006Ev
	.cfi_startproc
; %bb.0:
	sub	sp, sp, #32
	.cfi_def_cfa_offset 32
	stp	x29, x30, [sp, #16]             ; 16-byte Folded Spill
	add	x29, sp, #16
	.cfi_def_cfa w29, 16
	.cfi_offset w30, -8
	.cfi_offset w29, -16
	str	x0, [sp, #8]
	ldr	x0, [sp, #8]
	str	x0, [sp]                        ; 8-byte Folded Spill
	bl	__ZNSt3__127__optional_move_assign_baseIN3map6MapperELb0EEC2B6v15006Ev
	ldr	x0, [sp]                        ; 8-byte Folded Reload
	ldp	x29, x30, [sp, #16]             ; 16-byte Folded Reload
	add	sp, sp, #32
	ret
	.cfi_endproc
                                        ; -- End function
	.private_extern	__ZNSt3__127__optional_move_assign_baseIN3map6MapperELb0EEC2B6v15006Ev ; -- Begin function _ZNSt3__127__optional_move_assign_baseIN3map6MapperELb0EEC2B6v15006Ev
	.globl	__ZNSt3__127__optional_move_assign_baseIN3map6MapperELb0EEC2B6v15006Ev
	.weak_def_can_be_hidden	__ZNSt3__127__optional_move_assign_baseIN3map6MapperELb0EEC2B6v15006Ev
	.p2align	2
__ZNSt3__127__optional_move_assign_baseIN3map6MapperELb0EEC2B6v15006Ev: ; @_ZNSt3__127__optional_move_assign_baseIN3map6MapperELb0EEC2B6v15006Ev
	.cfi_startproc
; %bb.0:
	sub	sp, sp, #32
	.cfi_def_cfa_offset 32
	stp	x29, x30, [sp, #16]             ; 16-byte Folded Spill
	add	x29, sp, #16
	.cfi_def_cfa w29, 16
	.cfi_offset w30, -8
	.cfi_offset w29, -16
	str	x0, [sp, #8]
	ldr	x0, [sp, #8]
	str	x0, [sp]                        ; 8-byte Folded Spill
	bl	__ZNSt3__127__optional_copy_assign_baseIN3map6MapperELb0EEC2B6v15006Ev
	ldr	x0, [sp]                        ; 8-byte Folded Reload
	ldp	x29, x30, [sp, #16]             ; 16-byte Folded Reload
	add	sp, sp, #32
	ret
	.cfi_endproc
                                        ; -- End function
	.private_extern	__ZNSt3__127__optional_copy_assign_baseIN3map6MapperELb0EEC2B6v15006Ev ; -- Begin function _ZNSt3__127__optional_copy_assign_baseIN3map6MapperELb0EEC2B6v15006Ev
	.globl	__ZNSt3__127__optional_copy_assign_baseIN3map6MapperELb0EEC2B6v15006Ev
	.weak_def_can_be_hidden	__ZNSt3__127__optional_copy_assign_baseIN3map6MapperELb0EEC2B6v15006Ev
	.p2align	2
__ZNSt3__127__optional_copy_assign_baseIN3map6MapperELb0EEC2B6v15006Ev: ; @_ZNSt3__127__optional_copy_assign_baseIN3map6MapperELb0EEC2B6v15006Ev
	.cfi_startproc
; %bb.0:
	sub	sp, sp, #32
	.cfi_def_cfa_offset 32
	stp	x29, x30, [sp, #16]             ; 16-byte Folded Spill
	add	x29, sp, #16
	.cfi_def_cfa w29, 16
	.cfi_offset w30, -8
	.cfi_offset w29, -16
	str	x0, [sp, #8]
	ldr	x0, [sp, #8]
	str	x0, [sp]                        ; 8-byte Folded Spill
	bl	__ZNSt3__120__optional_move_baseIN3map6MapperELb0EEC2B6v15006Ev
	ldr	x0, [sp]                        ; 8-byte Folded Reload
	ldp	x29, x30, [sp, #16]             ; 16-byte Folded Reload
	add	sp, sp, #32
	ret
	.cfi_endproc
                                        ; -- End function
	.private_extern	__ZNSt3__120__optional_move_baseIN3map6MapperELb0EEC2B6v15006Ev ; -- Begin function _ZNSt3__120__optional_move_baseIN3map6MapperELb0EEC2B6v15006Ev
	.globl	__ZNSt3__120__optional_move_baseIN3map6MapperELb0EEC2B6v15006Ev
	.weak_def_can_be_hidden	__ZNSt3__120__optional_move_baseIN3map6MapperELb0EEC2B6v15006Ev
	.p2align	2
__ZNSt3__120__optional_move_baseIN3map6MapperELb0EEC2B6v15006Ev: ; @_ZNSt3__120__optional_move_baseIN3map6MapperELb0EEC2B6v15006Ev
	.cfi_startproc
; %bb.0:
	sub	sp, sp, #32
	.cfi_def_cfa_offset 32
	stp	x29, x30, [sp, #16]             ; 16-byte Folded Spill
	add	x29, sp, #16
	.cfi_def_cfa w29, 16
	.cfi_offset w30, -8
	.cfi_offset w29, -16
	str	x0, [sp, #8]
	ldr	x0, [sp, #8]
	str	x0, [sp]                        ; 8-byte Folded Spill
	bl	__ZNSt3__120__optional_copy_baseIN3map6MapperELb0EEC2B6v15006Ev
	ldr	x0, [sp]                        ; 8-byte Folded Reload
	ldp	x29, x30, [sp, #16]             ; 16-byte Folded Reload
	add	sp, sp, #32
	ret
	.cfi_endproc
                                        ; -- End function
	.private_extern	__ZNSt3__120__optional_copy_baseIN3map6MapperELb0EEC2B6v15006Ev ; -- Begin function _ZNSt3__120__optional_copy_baseIN3map6MapperELb0EEC2B6v15006Ev
	.globl	__ZNSt3__120__optional_copy_baseIN3map6MapperELb0EEC2B6v15006Ev
	.weak_def_can_be_hidden	__ZNSt3__120__optional_copy_baseIN3map6MapperELb0EEC2B6v15006Ev
	.p2align	2
__ZNSt3__120__optional_copy_baseIN3map6MapperELb0EEC2B6v15006Ev: ; @_ZNSt3__120__optional_copy_baseIN3map6MapperELb0EEC2B6v15006Ev
	.cfi_startproc
; %bb.0:
	sub	sp, sp, #32
	.cfi_def_cfa_offset 32
	stp	x29, x30, [sp, #16]             ; 16-byte Folded Spill
	add	x29, sp, #16
	.cfi_def_cfa w29, 16
	.cfi_offset w30, -8
	.cfi_offset w29, -16
	str	x0, [sp, #8]
	ldr	x0, [sp, #8]
	str	x0, [sp]                        ; 8-byte Folded Spill
	bl	__ZNSt3__123__optional_storage_baseIN3map6MapperELb0EEC2Ev
	ldr	x0, [sp]                        ; 8-byte Folded Reload
	ldp	x29, x30, [sp, #16]             ; 16-byte Folded Reload
	add	sp, sp, #32
	ret
	.cfi_endproc
                                        ; -- End function
	.globl	__ZNSt3__123__optional_storage_baseIN3map6MapperELb0EEC2Ev ; -- Begin function _ZNSt3__123__optional_storage_baseIN3map6MapperELb0EEC2Ev
	.weak_def_can_be_hidden	__ZNSt3__123__optional_storage_baseIN3map6MapperELb0EEC2Ev
	.p2align	2
__ZNSt3__123__optional_storage_baseIN3map6MapperELb0EEC2Ev: ; @_ZNSt3__123__optional_storage_baseIN3map6MapperELb0EEC2Ev
	.cfi_startproc
; %bb.0:
	sub	sp, sp, #32
	.cfi_def_cfa_offset 32
	stp	x29, x30, [sp, #16]             ; 16-byte Folded Spill
	add	x29, sp, #16
	.cfi_def_cfa w29, 16
	.cfi_offset w30, -8
	.cfi_offset w29, -16
	str	x0, [sp, #8]
	ldr	x0, [sp, #8]
	str	x0, [sp]                        ; 8-byte Folded Spill
	bl	__ZNSt3__124__optional_destruct_baseIN3map6MapperELb0EEC2B6v15006Ev
	ldr	x0, [sp]                        ; 8-byte Folded Reload
	ldp	x29, x30, [sp, #16]             ; 16-byte Folded Reload
	add	sp, sp, #32
	ret
	.cfi_endproc
                                        ; -- End function
	.private_extern	__ZNSt3__124__optional_destruct_baseIN3map6MapperELb0EEC2B6v15006Ev ; -- Begin function _ZNSt3__124__optional_destruct_baseIN3map6MapperELb0EEC2B6v15006Ev
	.globl	__ZNSt3__124__optional_destruct_baseIN3map6MapperELb0EEC2B6v15006Ev
	.weak_def_can_be_hidden	__ZNSt3__124__optional_destruct_baseIN3map6MapperELb0EEC2B6v15006Ev
	.p2align	2
__ZNSt3__124__optional_destruct_baseIN3map6MapperELb0EEC2B6v15006Ev: ; @_ZNSt3__124__optional_destruct_baseIN3map6MapperELb0EEC2B6v15006Ev
	.cfi_startproc
; %bb.0:
	sub	sp, sp, #16
	.cfi_def_cfa_offset 16
	str	x0, [sp, #8]
	ldr	x0, [sp, #8]
	strb	wzr, [x0]
	strb	wzr, [x0, #120]
	add	sp, sp, #16
	ret
	.cfi_endproc
                                        ; -- End function
	.private_extern	__ZNSt3__124__optional_destruct_baseIN3map6MapperELb0EE5resetB6v15006Ev ; -- Begin function _ZNSt3__124__optional_destruct_baseIN3map6MapperELb0EE5resetB6v15006Ev
	.globl	__ZNSt3__124__optional_destruct_baseIN3map6MapperELb0EE5resetB6v15006Ev
	.weak_definition	__ZNSt3__124__optional_destruct_baseIN3map6MapperELb0EE5resetB6v15006Ev
	.p2align	2
__ZNSt3__124__optional_destruct_baseIN3map6MapperELb0EE5resetB6v15006Ev: ; @_ZNSt3__124__optional_destruct_baseIN3map6MapperELb0EE5resetB6v15006Ev
	.cfi_startproc
; %bb.0:
	sub	sp, sp, #32
	.cfi_def_cfa_offset 32
	stp	x29, x30, [sp, #16]             ; 16-byte Folded Spill
	add	x29, sp, #16
	.cfi_def_cfa w29, 16
	.cfi_offset w30, -8
	.cfi_offset w29, -16
	str	x0, [sp, #8]
	ldr	x8, [sp, #8]
	str	x8, [sp]                        ; 8-byte Folded Spill
	ldrb	w8, [x8, #120]
	tbz	w8, #0, LBB118_2
	b	LBB118_1
LBB118_1:
	ldr	x0, [sp]                        ; 8-byte Folded Reload
	bl	__ZN3map6MapperD1Ev
	ldr	x8, [sp]                        ; 8-byte Folded Reload
	strb	wzr, [x8, #120]
	b	LBB118_2
LBB118_2:
	ldp	x29, x30, [sp, #16]             ; 16-byte Folded Reload
	add	sp, sp, #32
	ret
	.cfi_endproc
                                        ; -- End function
	.globl	__ZNSt3__123__optional_storage_baseIN3map6MapperELb0EE11__constructB6v15006IJRNS_12basic_stringIcNS_11char_traitsIcEENS_9allocatorIcEEEENS1_4SizeERiRNS1_8LoadtypeEEEEvDpOT_ ; -- Begin function _ZNSt3__123__optional_storage_baseIN3map6MapperELb0EE11__constructB6v15006IJRNS_12basic_stringIcNS_11char_traitsIcEENS_9allocatorIcEEEENS1_4SizeERiRNS1_8LoadtypeEEEEvDpOT_
	.weak_definition	__ZNSt3__123__optional_storage_baseIN3map6MapperELb0EE11__constructB6v15006IJRNS_12basic_stringIcNS_11char_traitsIcEENS_9allocatorIcEEEENS1_4SizeERiRNS1_8LoadtypeEEEEvDpOT_
	.p2align	2
__ZNSt3__123__optional_storage_baseIN3map6MapperELb0EE11__constructB6v15006IJRNS_12basic_stringIcNS_11char_traitsIcEENS_9allocatorIcEEEENS1_4SizeERiRNS1_8LoadtypeEEEEvDpOT_: ; @_ZNSt3__123__optional_storage_baseIN3map6MapperELb0EE11__constructB6v15006IJRNS_12basic_stringIcNS_11char_traitsIcEENS_9allocatorIcEEEENS1_4SizeERiRNS1_8LoadtypeEEEEvDpOT_
	.cfi_startproc
; %bb.0:
	sub	sp, sp, #64
	.cfi_def_cfa_offset 64
	stp	x29, x30, [sp, #48]             ; 16-byte Folded Spill
	add	x29, sp, #48
	.cfi_def_cfa w29, 16
	.cfi_offset w30, -8
	.cfi_offset w29, -16
	stur	x0, [x29, #-8]
	stur	x1, [x29, #-16]
	str	x2, [sp, #24]
	str	x3, [sp, #16]
	str	x4, [sp, #8]
	ldur	x0, [x29, #-8]
	str	x0, [sp]                        ; 8-byte Folded Spill
	ldur	x1, [x29, #-16]
	ldr	x2, [sp, #24]
	ldr	x3, [sp, #16]
	ldr	x4, [sp, #8]
	bl	__ZNSt3__112construct_atB6v15006IN3map6MapperEJRNS_12basic_stringIcNS_11char_traitsIcEENS_9allocatorIcEEEENS1_4SizeERiRNS1_8LoadtypeEEPS2_EEPT_SG_DpOT0_
	ldr	x9, [sp]                        ; 8-byte Folded Reload
	mov	w8, #1
	strb	w8, [x9, #120]
	ldp	x29, x30, [sp, #48]             ; 16-byte Folded Reload
	add	sp, sp, #64
	ret
	.cfi_endproc
                                        ; -- End function
	.private_extern	__ZNRSt3__123__optional_storage_baseIN3map6MapperELb0EE5__getB6v15006Ev ; -- Begin function _ZNRSt3__123__optional_storage_baseIN3map6MapperELb0EE5__getB6v15006Ev
	.globl	__ZNRSt3__123__optional_storage_baseIN3map6MapperELb0EE5__getB6v15006Ev
	.weak_definition	__ZNRSt3__123__optional_storage_baseIN3map6MapperELb0EE5__getB6v15006Ev
	.p2align	2
__ZNRSt3__123__optional_storage_baseIN3map6MapperELb0EE5__getB6v15006Ev: ; @_ZNRSt3__123__optional_storage_baseIN3map6MapperELb0EE5__getB6v15006Ev
	.cfi_startproc
; %bb.0:
	sub	sp, sp, #16
	.cfi_def_cfa_offset 16
	str	x0, [sp, #8]
	ldr	x0, [sp, #8]
	add	sp, sp, #16
	ret
	.cfi_endproc
                                        ; -- End function
	.private_extern	__ZNSt3__112construct_atB6v15006IN3map6MapperEJRNS_12basic_stringIcNS_11char_traitsIcEENS_9allocatorIcEEEENS1_4SizeERiRNS1_8LoadtypeEEPS2_EEPT_SG_DpOT0_ ; -- Begin function _ZNSt3__112construct_atB6v15006IN3map6MapperEJRNS_12basic_stringIcNS_11char_traitsIcEENS_9allocatorIcEEEENS1_4SizeERiRNS1_8LoadtypeEEPS2_EEPT_SG_DpOT0_
	.globl	__ZNSt3__112construct_atB6v15006IN3map6MapperEJRNS_12basic_stringIcNS_11char_traitsIcEENS_9allocatorIcEEEENS1_4SizeERiRNS1_8LoadtypeEEPS2_EEPT_SG_DpOT0_
	.weak_definition	__ZNSt3__112construct_atB6v15006IN3map6MapperEJRNS_12basic_stringIcNS_11char_traitsIcEENS_9allocatorIcEEEENS1_4SizeERiRNS1_8LoadtypeEEPS2_EEPT_SG_DpOT0_
	.p2align	2
__ZNSt3__112construct_atB6v15006IN3map6MapperEJRNS_12basic_stringIcNS_11char_traitsIcEENS_9allocatorIcEEEENS1_4SizeERiRNS1_8LoadtypeEEPS2_EEPT_SG_DpOT0_: ; @_ZNSt3__112construct_atB6v15006IN3map6MapperEJRNS_12basic_stringIcNS_11char_traitsIcEENS_9allocatorIcEEEENS1_4SizeERiRNS1_8LoadtypeEEPS2_EEPT_SG_DpOT0_
Lfunc_begin9:
	.cfi_startproc
	.cfi_personality 155, ___gxx_personality_v0
	.cfi_lsda 16, Lexception9
; %bb.0:
	sub	sp, sp, #128
	.cfi_def_cfa_offset 128
	stp	x29, x30, [sp, #112]            ; 16-byte Folded Spill
	add	x29, sp, #112
	.cfi_def_cfa w29, 16
	.cfi_offset w30, -8
	.cfi_offset w29, -16
	stur	x0, [x29, #-16]
	stur	x1, [x29, #-24]
	stur	x2, [x29, #-32]
	stur	x3, [x29, #-40]
	stur	x4, [x29, #-48]
	ldur	x8, [x29, #-16]
	stur	x8, [x29, #-8]
	ldur	x8, [x29, #-8]
	str	x8, [sp]                        ; 8-byte Folded Spill
	ldur	x1, [x29, #-24]
	add	x0, sp, #40
	str	x0, [sp, #8]                    ; 8-byte Folded Spill
	bl	__ZNSt3__112basic_stringIcNS_11char_traitsIcEENS_9allocatorIcEEEC1ERKS5_
	ldr	x0, [sp]                        ; 8-byte Folded Reload
	ldr	x1, [sp, #8]                    ; 8-byte Folded Reload
	ldur	x8, [x29, #-32]
	ldr	x8, [x8]
	str	x8, [sp, #32]
	ldur	x8, [x29, #-40]
	ldr	w3, [x8]
	ldur	x8, [x29, #-48]
	ldr	w4, [x8]
	ldr	x2, [sp, #32]
Ltmp102:
	bl	__ZN3map6MapperC1ENSt3__112basic_stringIcNS1_11char_traitsIcEENS1_9allocatorIcEEEENS_4SizeEiNS_8LoadtypeE
Ltmp103:
	b	LBB121_1
LBB121_1:
	add	x0, sp, #40
	bl	__ZNSt3__112basic_stringIcNS_11char_traitsIcEENS_9allocatorIcEEED1Ev
	ldr	x0, [sp]                        ; 8-byte Folded Reload
	ldp	x29, x30, [sp, #112]            ; 16-byte Folded Reload
	add	sp, sp, #128
	ret
LBB121_2:
Ltmp104:
	mov	x8, x1
	str	x0, [sp, #24]
	str	w8, [sp, #20]
	add	x0, sp, #40
	bl	__ZNSt3__112basic_stringIcNS_11char_traitsIcEENS_9allocatorIcEEED1Ev
	b	LBB121_3
LBB121_3:
	ldr	x0, [sp, #24]
	bl	__Unwind_Resume
Lfunc_end9:
	.cfi_endproc
	.section	__TEXT,__gcc_except_tab
	.p2align	2
GCC_except_table121:
Lexception9:
	.byte	255                             ; @LPStart Encoding = omit
	.byte	255                             ; @TType Encoding = omit
	.byte	1                               ; Call site Encoding = uleb128
	.uleb128 Lcst_end9-Lcst_begin9
Lcst_begin9:
	.uleb128 Lfunc_begin9-Lfunc_begin9      ; >> Call Site 1 <<
	.uleb128 Ltmp102-Lfunc_begin9           ;   Call between Lfunc_begin9 and Ltmp102
	.byte	0                               ;     has no landing pad
	.byte	0                               ;   On action: cleanup
	.uleb128 Ltmp102-Lfunc_begin9           ; >> Call Site 2 <<
	.uleb128 Ltmp103-Ltmp102                ;   Call between Ltmp102 and Ltmp103
	.uleb128 Ltmp104-Lfunc_begin9           ;     jumps to Ltmp104
	.byte	0                               ;   On action: cleanup
	.uleb128 Ltmp103-Lfunc_begin9           ; >> Call Site 3 <<
	.uleb128 Lfunc_end9-Ltmp103             ;   Call between Ltmp103 and Lfunc_end9
	.byte	0                               ;     has no landing pad
	.byte	0                               ;   On action: cleanup
Lcst_end9:
	.p2align	2
                                        ; -- End function
	.section	__TEXT,__text,regular,pure_instructions
	.globl	__ZNSt3__123__optional_storage_baseIN3map6MapperELb0EE11__constructB6v15006IJRNS_12basic_stringIcNS_11char_traitsIcEENS_9allocatorIcEEEENS1_4SizeERNS1_8LoadtypeEEEEvDpOT_ ; -- Begin function _ZNSt3__123__optional_storage_baseIN3map6MapperELb0EE11__constructB6v15006IJRNS_12basic_stringIcNS_11char_traitsIcEENS_9allocatorIcEEEENS1_4SizeERNS1_8LoadtypeEEEEvDpOT_
	.weak_definition	__ZNSt3__123__optional_storage_baseIN3map6MapperELb0EE11__constructB6v15006IJRNS_12basic_stringIcNS_11char_traitsIcEENS_9allocatorIcEEEENS1_4SizeERNS1_8LoadtypeEEEEvDpOT_
	.p2align	2
__ZNSt3__123__optional_storage_baseIN3map6MapperELb0EE11__constructB6v15006IJRNS_12basic_stringIcNS_11char_traitsIcEENS_9allocatorIcEEEENS1_4SizeERNS1_8LoadtypeEEEEvDpOT_: ; @_ZNSt3__123__optional_storage_baseIN3map6MapperELb0EE11__constructB6v15006IJRNS_12basic_stringIcNS_11char_traitsIcEENS_9allocatorIcEEEENS1_4SizeERNS1_8LoadtypeEEEEvDpOT_
	.cfi_startproc
; %bb.0:
	sub	sp, sp, #64
	.cfi_def_cfa_offset 64
	stp	x29, x30, [sp, #48]             ; 16-byte Folded Spill
	add	x29, sp, #48
	.cfi_def_cfa w29, 16
	.cfi_offset w30, -8
	.cfi_offset w29, -16
	stur	x0, [x29, #-8]
	stur	x1, [x29, #-16]
	str	x2, [sp, #24]
	str	x3, [sp, #16]
	ldur	x0, [x29, #-8]
	str	x0, [sp, #8]                    ; 8-byte Folded Spill
	ldur	x1, [x29, #-16]
	ldr	x2, [sp, #24]
	ldr	x3, [sp, #16]
	bl	__ZNSt3__112construct_atB6v15006IN3map6MapperEJRNS_12basic_stringIcNS_11char_traitsIcEENS_9allocatorIcEEEENS1_4SizeERNS1_8LoadtypeEEPS2_EEPT_SF_DpOT0_
	ldr	x9, [sp, #8]                    ; 8-byte Folded Reload
	mov	w8, #1
	strb	w8, [x9, #120]
	ldp	x29, x30, [sp, #48]             ; 16-byte Folded Reload
	add	sp, sp, #64
	ret
	.cfi_endproc
                                        ; -- End function
	.private_extern	__ZNSt3__112construct_atB6v15006IN3map6MapperEJRNS_12basic_stringIcNS_11char_traitsIcEENS_9allocatorIcEEEENS1_4SizeERNS1_8LoadtypeEEPS2_EEPT_SF_DpOT0_ ; -- Begin function _ZNSt3__112construct_atB6v15006IN3map6MapperEJRNS_12basic_stringIcNS_11char_traitsIcEENS_9allocatorIcEEEENS1_4SizeERNS1_8LoadtypeEEPS2_EEPT_SF_DpOT0_
	.globl	__ZNSt3__112construct_atB6v15006IN3map6MapperEJRNS_12basic_stringIcNS_11char_traitsIcEENS_9allocatorIcEEEENS1_4SizeERNS1_8LoadtypeEEPS2_EEPT_SF_DpOT0_
	.weak_definition	__ZNSt3__112construct_atB6v15006IN3map6MapperEJRNS_12basic_stringIcNS_11char_traitsIcEENS_9allocatorIcEEEENS1_4SizeERNS1_8LoadtypeEEPS2_EEPT_SF_DpOT0_
	.p2align	2
__ZNSt3__112construct_atB6v15006IN3map6MapperEJRNS_12basic_stringIcNS_11char_traitsIcEENS_9allocatorIcEEEENS1_4SizeERNS1_8LoadtypeEEPS2_EEPT_SF_DpOT0_: ; @_ZNSt3__112construct_atB6v15006IN3map6MapperEJRNS_12basic_stringIcNS_11char_traitsIcEENS_9allocatorIcEEEENS1_4SizeERNS1_8LoadtypeEEPS2_EEPT_SF_DpOT0_
Lfunc_begin10:
	.cfi_startproc
	.cfi_personality 155, ___gxx_personality_v0
	.cfi_lsda 16, Lexception10
; %bb.0:
	sub	sp, sp, #128
	.cfi_def_cfa_offset 128
	stp	x29, x30, [sp, #112]            ; 16-byte Folded Spill
	add	x29, sp, #112
	.cfi_def_cfa w29, 16
	.cfi_offset w30, -8
	.cfi_offset w29, -16
	stur	x0, [x29, #-16]
	stur	x1, [x29, #-24]
	stur	x2, [x29, #-32]
	stur	x3, [x29, #-40]
	ldur	x8, [x29, #-16]
	stur	x8, [x29, #-8]
	ldur	x8, [x29, #-8]
	str	x8, [sp, #8]                    ; 8-byte Folded Spill
	ldur	x1, [x29, #-24]
	add	x0, sp, #48
	str	x0, [sp, #16]                   ; 8-byte Folded Spill
	bl	__ZNSt3__112basic_stringIcNS_11char_traitsIcEENS_9allocatorIcEEEC1ERKS5_
	ldr	x0, [sp, #8]                    ; 8-byte Folded Reload
	ldr	x1, [sp, #16]                   ; 8-byte Folded Reload
	ldur	x8, [x29, #-32]
	ldr	x8, [x8]
	str	x8, [sp, #40]
	ldur	x8, [x29, #-40]
	ldr	w3, [x8]
	ldr	x2, [sp, #40]
Ltmp105:
	bl	__ZN3map6MapperC1ENSt3__112basic_stringIcNS1_11char_traitsIcEENS1_9allocatorIcEEEENS_4SizeENS_8LoadtypeE
Ltmp106:
	b	LBB123_1
LBB123_1:
	add	x0, sp, #48
	bl	__ZNSt3__112basic_stringIcNS_11char_traitsIcEENS_9allocatorIcEEED1Ev
	ldr	x0, [sp, #8]                    ; 8-byte Folded Reload
	ldp	x29, x30, [sp, #112]            ; 16-byte Folded Reload
	add	sp, sp, #128
	ret
LBB123_2:
Ltmp107:
	mov	x8, x1
	str	x0, [sp, #32]
	str	w8, [sp, #28]
	add	x0, sp, #48
	bl	__ZNSt3__112basic_stringIcNS_11char_traitsIcEENS_9allocatorIcEEED1Ev
	b	LBB123_3
LBB123_3:
	ldr	x0, [sp, #32]
	bl	__Unwind_Resume
Lfunc_end10:
	.cfi_endproc
	.section	__TEXT,__gcc_except_tab
	.p2align	2
GCC_except_table123:
Lexception10:
	.byte	255                             ; @LPStart Encoding = omit
	.byte	255                             ; @TType Encoding = omit
	.byte	1                               ; Call site Encoding = uleb128
	.uleb128 Lcst_end10-Lcst_begin10
Lcst_begin10:
	.uleb128 Lfunc_begin10-Lfunc_begin10    ; >> Call Site 1 <<
	.uleb128 Ltmp105-Lfunc_begin10          ;   Call between Lfunc_begin10 and Ltmp105
	.byte	0                               ;     has no landing pad
	.byte	0                               ;   On action: cleanup
	.uleb128 Ltmp105-Lfunc_begin10          ; >> Call Site 2 <<
	.uleb128 Ltmp106-Ltmp105                ;   Call between Ltmp105 and Ltmp106
	.uleb128 Ltmp107-Lfunc_begin10          ;     jumps to Ltmp107
	.byte	0                               ;   On action: cleanup
	.uleb128 Ltmp106-Lfunc_begin10          ; >> Call Site 3 <<
	.uleb128 Lfunc_end10-Ltmp106            ;   Call between Ltmp106 and Lfunc_end10
	.byte	0                               ;     has no landing pad
	.byte	0                               ;   On action: cleanup
Lcst_end10:
	.p2align	2
                                        ; -- End function
	.section	__TEXT,__text,regular,pure_instructions
	.private_extern	__ZNKSt3__16chrono15__duration_castINS0_8durationIxNS_5ratioILl1ELl1000000000EEEEENS2_IxNS3_ILl1ELl1000EEEEENS3_ILl1ELl1000000EEELb1ELb0EEclB6v15006ERKS5_ ; -- Begin function _ZNKSt3__16chrono15__duration_castINS0_8durationIxNS_5ratioILl1ELl1000000000EEEEENS2_IxNS3_ILl1ELl1000EEEEENS3_ILl1ELl1000000EEELb1ELb0EEclB6v15006ERKS5_
	.globl	__ZNKSt3__16chrono15__duration_castINS0_8durationIxNS_5ratioILl1ELl1000000000EEEEENS2_IxNS3_ILl1ELl1000EEEEENS3_ILl1ELl1000000EEELb1ELb0EEclB6v15006ERKS5_
	.weak_definition	__ZNKSt3__16chrono15__duration_castINS0_8durationIxNS_5ratioILl1ELl1000000000EEEEENS2_IxNS3_ILl1ELl1000EEEEENS3_ILl1ELl1000000EEELb1ELb0EEclB6v15006ERKS5_
	.p2align	2
__ZNKSt3__16chrono15__duration_castINS0_8durationIxNS_5ratioILl1ELl1000000000EEEEENS2_IxNS3_ILl1ELl1000EEEEENS3_ILl1ELl1000000EEELb1ELb0EEclB6v15006ERKS5_: ; @_ZNKSt3__16chrono15__duration_castINS0_8durationIxNS_5ratioILl1ELl1000000000EEEEENS2_IxNS3_ILl1ELl1000EEEEENS3_ILl1ELl1000000EEELb1ELb0EEclB6v15006ERKS5_
	.cfi_startproc
; %bb.0:
	sub	sp, sp, #48
	.cfi_def_cfa_offset 48
	stp	x29, x30, [sp, #32]             ; 16-byte Folded Spill
	add	x29, sp, #32
	.cfi_def_cfa w29, 16
	.cfi_offset w30, -8
	.cfi_offset w29, -16
	str	x0, [sp, #16]
	str	x1, [sp, #8]
	ldr	x0, [sp, #8]
	bl	__ZNKSt3__16chrono8durationIxNS_5ratioILl1ELl1000000000EEEE5countB6v15006Ev
	mov	x8, #16960
	movk	x8, #15, lsl #16
	sdiv	x8, x0, x8
	mov	x1, sp
	str	x8, [sp]
	sub	x0, x29, #8
	mov	x2, #0
	bl	__ZNSt3__16chrono8durationIxNS_5ratioILl1ELl1000EEEEC1B6v15006IxEERKT_PNS_9enable_ifIXaasr14is_convertibleIS8_xEE5valueooL_ZNS_17integral_constantIbLb0EE5valueEEntsr23treat_as_floating_pointIS6_EE5valueEvE4typeE
	ldur	x0, [x29, #-8]
	ldp	x29, x30, [sp, #32]             ; 16-byte Folded Reload
	add	sp, sp, #48
	ret
	.cfi_endproc
                                        ; -- End function
	.private_extern	__ZNKSt3__16chrono8durationIxNS_5ratioILl1ELl1000000000EEEE5countB6v15006Ev ; -- Begin function _ZNKSt3__16chrono8durationIxNS_5ratioILl1ELl1000000000EEEE5countB6v15006Ev
	.globl	__ZNKSt3__16chrono8durationIxNS_5ratioILl1ELl1000000000EEEE5countB6v15006Ev
	.weak_definition	__ZNKSt3__16chrono8durationIxNS_5ratioILl1ELl1000000000EEEE5countB6v15006Ev
	.p2align	2
__ZNKSt3__16chrono8durationIxNS_5ratioILl1ELl1000000000EEEE5countB6v15006Ev: ; @_ZNKSt3__16chrono8durationIxNS_5ratioILl1ELl1000000000EEEE5countB6v15006Ev
	.cfi_startproc
; %bb.0:
	sub	sp, sp, #16
	.cfi_def_cfa_offset 16
	str	x0, [sp, #8]
	ldr	x8, [sp, #8]
	ldr	x0, [x8]
	add	sp, sp, #16
	ret
	.cfi_endproc
                                        ; -- End function
	.globl	__ZNSt3__16chrono8durationIxNS_5ratioILl1ELl1000EEEEC1B6v15006IxEERKT_PNS_9enable_ifIXaasr14is_convertibleIS8_xEE5valueooL_ZNS_17integral_constantIbLb0EE5valueEEntsr23treat_as_floating_pointIS6_EE5valueEvE4typeE ; -- Begin function _ZNSt3__16chrono8durationIxNS_5ratioILl1ELl1000EEEEC1B6v15006IxEERKT_PNS_9enable_ifIXaasr14is_convertibleIS8_xEE5valueooL_ZNS_17integral_constantIbLb0EE5valueEEntsr23treat_as_floating_pointIS6_EE5valueEvE4typeE
	.weak_def_can_be_hidden	__ZNSt3__16chrono8durationIxNS_5ratioILl1ELl1000EEEEC1B6v15006IxEERKT_PNS_9enable_ifIXaasr14is_convertibleIS8_xEE5valueooL_ZNS_17integral_constantIbLb0EE5valueEEntsr23treat_as_floating_pointIS6_EE5valueEvE4typeE
	.p2align	2
__ZNSt3__16chrono8durationIxNS_5ratioILl1ELl1000EEEEC1B6v15006IxEERKT_PNS_9enable_ifIXaasr14is_convertibleIS8_xEE5valueooL_ZNS_17integral_constantIbLb0EE5valueEEntsr23treat_as_floating_pointIS6_EE5valueEvE4typeE: ; @_ZNSt3__16chrono8durationIxNS_5ratioILl1ELl1000EEEEC1B6v15006IxEERKT_PNS_9enable_ifIXaasr14is_convertibleIS8_xEE5valueooL_ZNS_17integral_constantIbLb0EE5valueEEntsr23treat_as_floating_pointIS6_EE5valueEvE4typeE
	.cfi_startproc
; %bb.0:
	sub	sp, sp, #48
	.cfi_def_cfa_offset 48
	stp	x29, x30, [sp, #32]             ; 16-byte Folded Spill
	add	x29, sp, #32
	.cfi_def_cfa w29, 16
	.cfi_offset w30, -8
	.cfi_offset w29, -16
	stur	x0, [x29, #-8]
	str	x1, [sp, #16]
	str	x2, [sp, #8]
	ldur	x0, [x29, #-8]
	str	x0, [sp]                        ; 8-byte Folded Spill
	ldr	x1, [sp, #16]
	ldr	x2, [sp, #8]
	bl	__ZNSt3__16chrono8durationIxNS_5ratioILl1ELl1000EEEEC2B6v15006IxEERKT_PNS_9enable_ifIXaasr14is_convertibleIS8_xEE5valueooL_ZNS_17integral_constantIbLb0EE5valueEEntsr23treat_as_floating_pointIS6_EE5valueEvE4typeE
	ldr	x0, [sp]                        ; 8-byte Folded Reload
	ldp	x29, x30, [sp, #32]             ; 16-byte Folded Reload
	add	sp, sp, #48
	ret
	.cfi_endproc
                                        ; -- End function
	.globl	__ZNSt3__16chrono8durationIxNS_5ratioILl1ELl1000EEEEC2B6v15006IxEERKT_PNS_9enable_ifIXaasr14is_convertibleIS8_xEE5valueooL_ZNS_17integral_constantIbLb0EE5valueEEntsr23treat_as_floating_pointIS6_EE5valueEvE4typeE ; -- Begin function _ZNSt3__16chrono8durationIxNS_5ratioILl1ELl1000EEEEC2B6v15006IxEERKT_PNS_9enable_ifIXaasr14is_convertibleIS8_xEE5valueooL_ZNS_17integral_constantIbLb0EE5valueEEntsr23treat_as_floating_pointIS6_EE5valueEvE4typeE
	.weak_def_can_be_hidden	__ZNSt3__16chrono8durationIxNS_5ratioILl1ELl1000EEEEC2B6v15006IxEERKT_PNS_9enable_ifIXaasr14is_convertibleIS8_xEE5valueooL_ZNS_17integral_constantIbLb0EE5valueEEntsr23treat_as_floating_pointIS6_EE5valueEvE4typeE
	.p2align	2
__ZNSt3__16chrono8durationIxNS_5ratioILl1ELl1000EEEEC2B6v15006IxEERKT_PNS_9enable_ifIXaasr14is_convertibleIS8_xEE5valueooL_ZNS_17integral_constantIbLb0EE5valueEEntsr23treat_as_floating_pointIS6_EE5valueEvE4typeE: ; @_ZNSt3__16chrono8durationIxNS_5ratioILl1ELl1000EEEEC2B6v15006IxEERKT_PNS_9enable_ifIXaasr14is_convertibleIS8_xEE5valueooL_ZNS_17integral_constantIbLb0EE5valueEEntsr23treat_as_floating_pointIS6_EE5valueEvE4typeE
	.cfi_startproc
; %bb.0:
	sub	sp, sp, #32
	.cfi_def_cfa_offset 32
	str	x0, [sp, #24]
	str	x1, [sp, #16]
	str	x2, [sp, #8]
	ldr	x0, [sp, #24]
	ldr	x8, [sp, #16]
	ldr	x8, [x8]
	str	x8, [x0]
	add	sp, sp, #32
	ret
	.cfi_endproc
                                        ; -- End function
	.private_extern	__ZNSt3__16chronomiB6v15006IxNS_5ratioILl1ELl1000000000EEExS3_EENS_11common_typeIJNS0_8durationIT_T0_EENS5_IT1_T2_EEEE4typeERKS8_RKSB_ ; -- Begin function _ZNSt3__16chronomiB6v15006IxNS_5ratioILl1ELl1000000000EEExS3_EENS_11common_typeIJNS0_8durationIT_T0_EENS5_IT1_T2_EEEE4typeERKS8_RKSB_
	.globl	__ZNSt3__16chronomiB6v15006IxNS_5ratioILl1ELl1000000000EEExS3_EENS_11common_typeIJNS0_8durationIT_T0_EENS5_IT1_T2_EEEE4typeERKS8_RKSB_
	.weak_definition	__ZNSt3__16chronomiB6v15006IxNS_5ratioILl1ELl1000000000EEExS3_EENS_11common_typeIJNS0_8durationIT_T0_EENS5_IT1_T2_EEEE4typeERKS8_RKSB_
	.p2align	2
__ZNSt3__16chronomiB6v15006IxNS_5ratioILl1ELl1000000000EEExS3_EENS_11common_typeIJNS0_8durationIT_T0_EENS5_IT1_T2_EEEE4typeERKS8_RKSB_: ; @_ZNSt3__16chronomiB6v15006IxNS_5ratioILl1ELl1000000000EEExS3_EENS_11common_typeIJNS0_8durationIT_T0_EENS5_IT1_T2_EEEE4typeERKS8_RKSB_
	.cfi_startproc
; %bb.0:
	sub	sp, sp, #80
	.cfi_def_cfa_offset 80
	stp	x29, x30, [sp, #64]             ; 16-byte Folded Spill
	add	x29, sp, #64
	.cfi_def_cfa w29, 16
	.cfi_offset w30, -8
	.cfi_offset w29, -16
	stur	x0, [x29, #-16]
	stur	x1, [x29, #-24]
	ldur	x8, [x29, #-16]
	ldr	x8, [x8]
	add	x0, sp, #24
	str	x8, [sp, #24]
	bl	__ZNKSt3__16chrono8durationIxNS_5ratioILl1ELl1000000000EEEE5countB6v15006Ev
	str	x0, [sp, #8]                    ; 8-byte Folded Spill
	ldur	x8, [x29, #-24]
	ldr	x8, [x8]
	add	x0, sp, #16
	str	x8, [sp, #16]
	bl	__ZNKSt3__16chrono8durationIxNS_5ratioILl1ELl1000000000EEEE5countB6v15006Ev
	mov	x8, x0
	ldr	x0, [sp, #8]                    ; 8-byte Folded Reload
	subs	x8, x0, x8
	add	x1, sp, #32
	str	x8, [sp, #32]
	sub	x0, x29, #8
	mov	x2, #0
	bl	__ZNSt3__16chrono8durationIxNS_5ratioILl1ELl1000000000EEEEC1B6v15006IxEERKT_PNS_9enable_ifIXaasr14is_convertibleIS8_xEE5valueooL_ZNS_17integral_constantIbLb0EE5valueEEntsr23treat_as_floating_pointIS6_EE5valueEvE4typeE
	ldur	x0, [x29, #-8]
	ldp	x29, x30, [sp, #64]             ; 16-byte Folded Reload
	add	sp, sp, #80
	ret
	.cfi_endproc
                                        ; -- End function
	.private_extern	__ZNKSt3__16chrono10time_pointINS0_12steady_clockENS0_8durationIxNS_5ratioILl1ELl1000000000EEEEEE16time_since_epochB6v15006Ev ; -- Begin function _ZNKSt3__16chrono10time_pointINS0_12steady_clockENS0_8durationIxNS_5ratioILl1ELl1000000000EEEEEE16time_since_epochB6v15006Ev
	.globl	__ZNKSt3__16chrono10time_pointINS0_12steady_clockENS0_8durationIxNS_5ratioILl1ELl1000000000EEEEEE16time_since_epochB6v15006Ev
	.weak_definition	__ZNKSt3__16chrono10time_pointINS0_12steady_clockENS0_8durationIxNS_5ratioILl1ELl1000000000EEEEEE16time_since_epochB6v15006Ev
	.p2align	2
__ZNKSt3__16chrono10time_pointINS0_12steady_clockENS0_8durationIxNS_5ratioILl1ELl1000000000EEEEEE16time_since_epochB6v15006Ev: ; @_ZNKSt3__16chrono10time_pointINS0_12steady_clockENS0_8durationIxNS_5ratioILl1ELl1000000000EEEEEE16time_since_epochB6v15006Ev
	.cfi_startproc
; %bb.0:
	sub	sp, sp, #16
	.cfi_def_cfa_offset 16
	str	x0, [sp]
	ldr	x8, [sp]
	ldr	x8, [x8]
	str	x8, [sp, #8]
	ldr	x0, [sp, #8]
	add	sp, sp, #16
	ret
	.cfi_endproc
                                        ; -- End function
	.globl	__ZNSt3__16chrono8durationIxNS_5ratioILl1ELl1000000000EEEEC1B6v15006IxEERKT_PNS_9enable_ifIXaasr14is_convertibleIS8_xEE5valueooL_ZNS_17integral_constantIbLb0EE5valueEEntsr23treat_as_floating_pointIS6_EE5valueEvE4typeE ; -- Begin function _ZNSt3__16chrono8durationIxNS_5ratioILl1ELl1000000000EEEEC1B6v15006IxEERKT_PNS_9enable_ifIXaasr14is_convertibleIS8_xEE5valueooL_ZNS_17integral_constantIbLb0EE5valueEEntsr23treat_as_floating_pointIS6_EE5valueEvE4typeE
	.weak_def_can_be_hidden	__ZNSt3__16chrono8durationIxNS_5ratioILl1ELl1000000000EEEEC1B6v15006IxEERKT_PNS_9enable_ifIXaasr14is_convertibleIS8_xEE5valueooL_ZNS_17integral_constantIbLb0EE5valueEEntsr23treat_as_floating_pointIS6_EE5valueEvE4typeE
	.p2align	2
__ZNSt3__16chrono8durationIxNS_5ratioILl1ELl1000000000EEEEC1B6v15006IxEERKT_PNS_9enable_ifIXaasr14is_convertibleIS8_xEE5valueooL_ZNS_17integral_constantIbLb0EE5valueEEntsr23treat_as_floating_pointIS6_EE5valueEvE4typeE: ; @_ZNSt3__16chrono8durationIxNS_5ratioILl1ELl1000000000EEEEC1B6v15006IxEERKT_PNS_9enable_ifIXaasr14is_convertibleIS8_xEE5valueooL_ZNS_17integral_constantIbLb0EE5valueEEntsr23treat_as_floating_pointIS6_EE5valueEvE4typeE
	.cfi_startproc
; %bb.0:
	sub	sp, sp, #48
	.cfi_def_cfa_offset 48
	stp	x29, x30, [sp, #32]             ; 16-byte Folded Spill
	add	x29, sp, #32
	.cfi_def_cfa w29, 16
	.cfi_offset w30, -8
	.cfi_offset w29, -16
	stur	x0, [x29, #-8]
	str	x1, [sp, #16]
	str	x2, [sp, #8]
	ldur	x0, [x29, #-8]
	str	x0, [sp]                        ; 8-byte Folded Spill
	ldr	x1, [sp, #16]
	ldr	x2, [sp, #8]
	bl	__ZNSt3__16chrono8durationIxNS_5ratioILl1ELl1000000000EEEEC2B6v15006IxEERKT_PNS_9enable_ifIXaasr14is_convertibleIS8_xEE5valueooL_ZNS_17integral_constantIbLb0EE5valueEEntsr23treat_as_floating_pointIS6_EE5valueEvE4typeE
	ldr	x0, [sp]                        ; 8-byte Folded Reload
	ldp	x29, x30, [sp, #32]             ; 16-byte Folded Reload
	add	sp, sp, #48
	ret
	.cfi_endproc
                                        ; -- End function
	.globl	__ZNSt3__16chrono8durationIxNS_5ratioILl1ELl1000000000EEEEC2B6v15006IxEERKT_PNS_9enable_ifIXaasr14is_convertibleIS8_xEE5valueooL_ZNS_17integral_constantIbLb0EE5valueEEntsr23treat_as_floating_pointIS6_EE5valueEvE4typeE ; -- Begin function _ZNSt3__16chrono8durationIxNS_5ratioILl1ELl1000000000EEEEC2B6v15006IxEERKT_PNS_9enable_ifIXaasr14is_convertibleIS8_xEE5valueooL_ZNS_17integral_constantIbLb0EE5valueEEntsr23treat_as_floating_pointIS6_EE5valueEvE4typeE
	.weak_def_can_be_hidden	__ZNSt3__16chrono8durationIxNS_5ratioILl1ELl1000000000EEEEC2B6v15006IxEERKT_PNS_9enable_ifIXaasr14is_convertibleIS8_xEE5valueooL_ZNS_17integral_constantIbLb0EE5valueEEntsr23treat_as_floating_pointIS6_EE5valueEvE4typeE
	.p2align	2
__ZNSt3__16chrono8durationIxNS_5ratioILl1ELl1000000000EEEEC2B6v15006IxEERKT_PNS_9enable_ifIXaasr14is_convertibleIS8_xEE5valueooL_ZNS_17integral_constantIbLb0EE5valueEEntsr23treat_as_floating_pointIS6_EE5valueEvE4typeE: ; @_ZNSt3__16chrono8durationIxNS_5ratioILl1ELl1000000000EEEEC2B6v15006IxEERKT_PNS_9enable_ifIXaasr14is_convertibleIS8_xEE5valueooL_ZNS_17integral_constantIbLb0EE5valueEEntsr23treat_as_floating_pointIS6_EE5valueEvE4typeE
	.cfi_startproc
; %bb.0:
	sub	sp, sp, #32
	.cfi_def_cfa_offset 32
	str	x0, [sp, #24]
	str	x1, [sp, #16]
	str	x2, [sp, #8]
	ldr	x0, [sp, #24]
	ldr	x8, [sp, #16]
	ldr	x8, [x8]
	str	x8, [x0]
	add	sp, sp, #32
	ret
	.cfi_endproc
                                        ; -- End function
	.globl	__ZNSt3__18optionalIN3map6MapperEED2Ev ; -- Begin function _ZNSt3__18optionalIN3map6MapperEED2Ev
	.weak_def_can_be_hidden	__ZNSt3__18optionalIN3map6MapperEED2Ev
	.p2align	2
__ZNSt3__18optionalIN3map6MapperEED2Ev: ; @_ZNSt3__18optionalIN3map6MapperEED2Ev
	.cfi_startproc
; %bb.0:
	sub	sp, sp, #32
	.cfi_def_cfa_offset 32
	stp	x29, x30, [sp, #16]             ; 16-byte Folded Spill
	add	x29, sp, #16
	.cfi_def_cfa w29, 16
	.cfi_offset w30, -8
	.cfi_offset w29, -16
	str	x0, [sp, #8]
	ldr	x0, [sp, #8]
	str	x0, [sp]                        ; 8-byte Folded Spill
	bl	__ZNSt3__127__optional_move_assign_baseIN3map6MapperELb0EED2Ev
	ldr	x0, [sp]                        ; 8-byte Folded Reload
	ldp	x29, x30, [sp, #16]             ; 16-byte Folded Reload
	add	sp, sp, #32
	ret
	.cfi_endproc
                                        ; -- End function
	.globl	__ZNSt3__127__optional_move_assign_baseIN3map6MapperELb0EED2Ev ; -- Begin function _ZNSt3__127__optional_move_assign_baseIN3map6MapperELb0EED2Ev
	.weak_def_can_be_hidden	__ZNSt3__127__optional_move_assign_baseIN3map6MapperELb0EED2Ev
	.p2align	2
__ZNSt3__127__optional_move_assign_baseIN3map6MapperELb0EED2Ev: ; @_ZNSt3__127__optional_move_assign_baseIN3map6MapperELb0EED2Ev
	.cfi_startproc
; %bb.0:
	sub	sp, sp, #32
	.cfi_def_cfa_offset 32
	stp	x29, x30, [sp, #16]             ; 16-byte Folded Spill
	add	x29, sp, #16
	.cfi_def_cfa w29, 16
	.cfi_offset w30, -8
	.cfi_offset w29, -16
	str	x0, [sp, #8]
	ldr	x0, [sp, #8]
	str	x0, [sp]                        ; 8-byte Folded Spill
	bl	__ZNSt3__127__optional_copy_assign_baseIN3map6MapperELb0EED2Ev
	ldr	x0, [sp]                        ; 8-byte Folded Reload
	ldp	x29, x30, [sp, #16]             ; 16-byte Folded Reload
	add	sp, sp, #32
	ret
	.cfi_endproc
                                        ; -- End function
	.globl	__ZNSt3__127__optional_copy_assign_baseIN3map6MapperELb0EED2Ev ; -- Begin function _ZNSt3__127__optional_copy_assign_baseIN3map6MapperELb0EED2Ev
	.weak_def_can_be_hidden	__ZNSt3__127__optional_copy_assign_baseIN3map6MapperELb0EED2Ev
	.p2align	2
__ZNSt3__127__optional_copy_assign_baseIN3map6MapperELb0EED2Ev: ; @_ZNSt3__127__optional_copy_assign_baseIN3map6MapperELb0EED2Ev
	.cfi_startproc
; %bb.0:
	sub	sp, sp, #32
	.cfi_def_cfa_offset 32
	stp	x29, x30, [sp, #16]             ; 16-byte Folded Spill
	add	x29, sp, #16
	.cfi_def_cfa w29, 16
	.cfi_offset w30, -8
	.cfi_offset w29, -16
	str	x0, [sp, #8]
	ldr	x0, [sp, #8]
	str	x0, [sp]                        ; 8-byte Folded Spill
	bl	__ZNSt3__120__optional_move_baseIN3map6MapperELb0EED2Ev
	ldr	x0, [sp]                        ; 8-byte Folded Reload
	ldp	x29, x30, [sp, #16]             ; 16-byte Folded Reload
	add	sp, sp, #32
	ret
	.cfi_endproc
                                        ; -- End function
	.globl	__ZNSt3__120__optional_move_baseIN3map6MapperELb0EED2Ev ; -- Begin function _ZNSt3__120__optional_move_baseIN3map6MapperELb0EED2Ev
	.weak_def_can_be_hidden	__ZNSt3__120__optional_move_baseIN3map6MapperELb0EED2Ev
	.p2align	2
__ZNSt3__120__optional_move_baseIN3map6MapperELb0EED2Ev: ; @_ZNSt3__120__optional_move_baseIN3map6MapperELb0EED2Ev
	.cfi_startproc
; %bb.0:
	sub	sp, sp, #32
	.cfi_def_cfa_offset 32
	stp	x29, x30, [sp, #16]             ; 16-byte Folded Spill
	add	x29, sp, #16
	.cfi_def_cfa w29, 16
	.cfi_offset w30, -8
	.cfi_offset w29, -16
	str	x0, [sp, #8]
	ldr	x0, [sp, #8]
	str	x0, [sp]                        ; 8-byte Folded Spill
	bl	__ZNSt3__120__optional_copy_baseIN3map6MapperELb0EED2Ev
	ldr	x0, [sp]                        ; 8-byte Folded Reload
	ldp	x29, x30, [sp, #16]             ; 16-byte Folded Reload
	add	sp, sp, #32
	ret
	.cfi_endproc
                                        ; -- End function
	.globl	__ZNSt3__120__optional_copy_baseIN3map6MapperELb0EED2Ev ; -- Begin function _ZNSt3__120__optional_copy_baseIN3map6MapperELb0EED2Ev
	.weak_def_can_be_hidden	__ZNSt3__120__optional_copy_baseIN3map6MapperELb0EED2Ev
	.p2align	2
__ZNSt3__120__optional_copy_baseIN3map6MapperELb0EED2Ev: ; @_ZNSt3__120__optional_copy_baseIN3map6MapperELb0EED2Ev
	.cfi_startproc
; %bb.0:
	sub	sp, sp, #32
	.cfi_def_cfa_offset 32
	stp	x29, x30, [sp, #16]             ; 16-byte Folded Spill
	add	x29, sp, #16
	.cfi_def_cfa w29, 16
	.cfi_offset w30, -8
	.cfi_offset w29, -16
	str	x0, [sp, #8]
	ldr	x0, [sp, #8]
	str	x0, [sp]                        ; 8-byte Folded Spill
	bl	__ZNSt3__123__optional_storage_baseIN3map6MapperELb0EED2Ev
	ldr	x0, [sp]                        ; 8-byte Folded Reload
	ldp	x29, x30, [sp, #16]             ; 16-byte Folded Reload
	add	sp, sp, #32
	ret
	.cfi_endproc
                                        ; -- End function
	.globl	__ZNSt3__123__optional_storage_baseIN3map6MapperELb0EED2Ev ; -- Begin function _ZNSt3__123__optional_storage_baseIN3map6MapperELb0EED2Ev
	.weak_def_can_be_hidden	__ZNSt3__123__optional_storage_baseIN3map6MapperELb0EED2Ev
	.p2align	2
__ZNSt3__123__optional_storage_baseIN3map6MapperELb0EED2Ev: ; @_ZNSt3__123__optional_storage_baseIN3map6MapperELb0EED2Ev
	.cfi_startproc
; %bb.0:
	sub	sp, sp, #32
	.cfi_def_cfa_offset 32
	stp	x29, x30, [sp, #16]             ; 16-byte Folded Spill
	add	x29, sp, #16
	.cfi_def_cfa w29, 16
	.cfi_offset w30, -8
	.cfi_offset w29, -16
	str	x0, [sp, #8]
	ldr	x0, [sp, #8]
	str	x0, [sp]                        ; 8-byte Folded Spill
	bl	__ZNSt3__124__optional_destruct_baseIN3map6MapperELb0EED2B6v15006Ev
	ldr	x0, [sp]                        ; 8-byte Folded Reload
	ldp	x29, x30, [sp, #16]             ; 16-byte Folded Reload
	add	sp, sp, #32
	ret
	.cfi_endproc
                                        ; -- End function
	.private_extern	__ZNSt3__124__optional_destruct_baseIN3map6MapperELb0EED2B6v15006Ev ; -- Begin function _ZNSt3__124__optional_destruct_baseIN3map6MapperELb0EED2B6v15006Ev
	.globl	__ZNSt3__124__optional_destruct_baseIN3map6MapperELb0EED2B6v15006Ev
	.weak_def_can_be_hidden	__ZNSt3__124__optional_destruct_baseIN3map6MapperELb0EED2B6v15006Ev
	.p2align	2
__ZNSt3__124__optional_destruct_baseIN3map6MapperELb0EED2B6v15006Ev: ; @_ZNSt3__124__optional_destruct_baseIN3map6MapperELb0EED2B6v15006Ev
	.cfi_startproc
; %bb.0:
	sub	sp, sp, #48
	.cfi_def_cfa_offset 48
	stp	x29, x30, [sp, #32]             ; 16-byte Folded Spill
	add	x29, sp, #32
	.cfi_def_cfa w29, 16
	.cfi_offset w30, -8
	.cfi_offset w29, -16
	str	x0, [sp, #16]
	ldr	x8, [sp, #16]
	str	x8, [sp, #8]                    ; 8-byte Folded Spill
	mov	x9, x8
	stur	x9, [x29, #-8]
	ldrb	w8, [x8, #120]
	tbz	w8, #0, LBB138_2
	b	LBB138_1
LBB138_1:
	ldr	x0, [sp, #8]                    ; 8-byte Folded Reload
	bl	__ZN3map6MapperD1Ev
	b	LBB138_2
LBB138_2:
	ldur	x0, [x29, #-8]
	ldp	x29, x30, [sp, #32]             ; 16-byte Folded Reload
	add	sp, sp, #48
	ret
	.cfi_endproc
                                        ; -- End function
	.globl	__ZNSt3__124__put_character_sequenceIcNS_11char_traitsIcEEEERNS_13basic_ostreamIT_T0_EES7_PKS4_m ; -- Begin function _ZNSt3__124__put_character_sequenceIcNS_11char_traitsIcEEEERNS_13basic_ostreamIT_T0_EES7_PKS4_m
	.weak_definition	__ZNSt3__124__put_character_sequenceIcNS_11char_traitsIcEEEERNS_13basic_ostreamIT_T0_EES7_PKS4_m
	.p2align	2
__ZNSt3__124__put_character_sequenceIcNS_11char_traitsIcEEEERNS_13basic_ostreamIT_T0_EES7_PKS4_m: ; @_ZNSt3__124__put_character_sequenceIcNS_11char_traitsIcEEEERNS_13basic_ostreamIT_T0_EES7_PKS4_m
Lfunc_begin11:
	.cfi_startproc
	.cfi_personality 155, ___gxx_personality_v0
	.cfi_lsda 16, Lexception11
; %bb.0:
	sub	sp, sp, #160
	.cfi_def_cfa_offset 160
	stp	x29, x30, [sp, #144]            ; 16-byte Folded Spill
	add	x29, sp, #144
	.cfi_def_cfa w29, 16
	.cfi_offset w30, -8
	.cfi_offset w29, -16
	stur	x0, [x29, #-8]
	stur	x1, [x29, #-16]
	stur	x2, [x29, #-24]
	ldur	x1, [x29, #-8]
Ltmp112:
	sub	x0, x29, #40
	bl	__ZNSt3__113basic_ostreamIcNS_11char_traitsIcEEE6sentryC1ERS3_
Ltmp113:
	b	LBB139_1
LBB139_1:
Ltmp115:
	sub	x0, x29, #40
	bl	__ZNKSt3__113basic_ostreamIcNS_11char_traitsIcEEE6sentrycvbB6v15006Ev
	str	w0, [sp, #68]                   ; 4-byte Folded Spill
Ltmp116:
	b	LBB139_2
LBB139_2:
	ldr	w8, [sp, #68]                   ; 4-byte Folded Reload
	tbz	w8, #0, LBB139_18
	b	LBB139_3
LBB139_3:
	ldur	x1, [x29, #-8]
	add	x0, sp, #72
	bl	__ZNSt3__119ostreambuf_iteratorIcNS_11char_traitsIcEEEC1B6v15006ERNS_13basic_ostreamIcS2_EE
	ldur	x8, [x29, #-16]
	str	x8, [sp, #56]                   ; 8-byte Folded Spill
	ldur	x8, [x29, #-8]
	ldr	x9, [x8]
	ldur	x9, [x9, #-24]
	add	x0, x8, x9
Ltmp117:
	bl	__ZNKSt3__18ios_base5flagsB6v15006Ev
	str	w0, [sp, #64]                   ; 4-byte Folded Spill
Ltmp118:
	b	LBB139_4
LBB139_4:
	ldr	w8, [sp, #64]                   ; 4-byte Folded Reload
	mov	w9, #176
	and	w8, w8, w9
	subs	w8, w8, #32
	cset	w8, ne
	tbnz	w8, #0, LBB139_6
	b	LBB139_5
LBB139_5:
	ldur	x8, [x29, #-16]
	ldur	x9, [x29, #-24]
	add	x8, x8, x9
	str	x8, [sp, #48]                   ; 8-byte Folded Spill
	b	LBB139_7
LBB139_6:
	ldur	x8, [x29, #-16]
	str	x8, [sp, #48]                   ; 8-byte Folded Spill
	b	LBB139_7
LBB139_7:
	ldr	x8, [sp, #48]                   ; 8-byte Folded Reload
	str	x8, [sp, #16]                   ; 8-byte Folded Spill
	ldur	x8, [x29, #-16]
	ldur	x9, [x29, #-24]
	add	x8, x8, x9
	str	x8, [sp, #24]                   ; 8-byte Folded Spill
	ldur	x8, [x29, #-8]
	ldr	x9, [x8]
	ldur	x9, [x9, #-24]
	add	x8, x8, x9
	str	x8, [sp, #32]                   ; 8-byte Folded Spill
	ldur	x8, [x29, #-8]
	ldr	x9, [x8]
	ldur	x9, [x9, #-24]
	add	x0, x8, x9
Ltmp119:
	bl	__ZNKSt3__19basic_iosIcNS_11char_traitsIcEEE4fillB6v15006Ev
	str	w0, [sp, #44]                   ; 4-byte Folded Spill
Ltmp120:
	b	LBB139_8
LBB139_8:
	ldr	w8, [sp, #44]                   ; 4-byte Folded Reload
	ldr	x4, [sp, #32]                   ; 8-byte Folded Reload
	ldr	x3, [sp, #24]                   ; 8-byte Folded Reload
	ldr	x2, [sp, #16]                   ; 8-byte Folded Reload
	ldr	x1, [sp, #56]                   ; 8-byte Folded Reload
	ldr	x0, [sp, #72]
Ltmp121:
	sxtb	w5, w8
	bl	__ZNSt3__116__pad_and_outputIcNS_11char_traitsIcEEEENS_19ostreambuf_iteratorIT_T0_EES6_PKS4_S8_S8_RNS_8ios_baseES4_
	str	x0, [sp, #8]                    ; 8-byte Folded Spill
Ltmp122:
	b	LBB139_9
LBB139_9:
	ldr	x8, [sp, #8]                    ; 8-byte Folded Reload
	sub	x0, x29, #64
	stur	x8, [x29, #-64]
	bl	__ZNKSt3__119ostreambuf_iteratorIcNS_11char_traitsIcEEE6failedB6v15006Ev
	tbz	w0, #0, LBB139_17
	b	LBB139_10
LBB139_10:
	ldur	x8, [x29, #-8]
	ldr	x9, [x8]
	ldur	x9, [x9, #-24]
	add	x0, x8, x9
Ltmp123:
	mov	w1, #5
	bl	__ZNSt3__19basic_iosIcNS_11char_traitsIcEEE8setstateB6v15006Ej
Ltmp124:
	b	LBB139_11
LBB139_11:
	b	LBB139_17
LBB139_12:
Ltmp114:
	mov	x8, x1
	stur	x0, [x29, #-48]
	stur	w8, [x29, #-52]
	b	LBB139_14
LBB139_13:
Ltmp125:
	mov	x8, x1
	stur	x0, [x29, #-48]
	stur	w8, [x29, #-52]
	sub	x0, x29, #40
	bl	__ZNSt3__113basic_ostreamIcNS_11char_traitsIcEEE6sentryD1Ev
	b	LBB139_14
LBB139_14:
	ldur	x0, [x29, #-48]
	bl	___cxa_begin_catch
	ldur	x8, [x29, #-8]
	ldr	x9, [x8]
	ldur	x9, [x9, #-24]
	add	x0, x8, x9
Ltmp126:
	bl	__ZNSt3__18ios_base33__set_badbit_and_consider_rethrowEv
Ltmp127:
	b	LBB139_15
LBB139_15:
	bl	___cxa_end_catch
	b	LBB139_16
LBB139_16:
	ldur	x0, [x29, #-8]
	ldp	x29, x30, [sp, #144]            ; 16-byte Folded Reload
	add	sp, sp, #160
	ret
LBB139_17:
	b	LBB139_18
LBB139_18:
	sub	x0, x29, #40
	bl	__ZNSt3__113basic_ostreamIcNS_11char_traitsIcEEE6sentryD1Ev
	b	LBB139_16
LBB139_19:
Ltmp128:
	mov	x8, x1
	stur	x0, [x29, #-48]
	stur	w8, [x29, #-52]
Ltmp129:
	bl	___cxa_end_catch
Ltmp130:
	b	LBB139_20
LBB139_20:
	b	LBB139_21
LBB139_21:
	ldur	x0, [x29, #-48]
	bl	__Unwind_Resume
LBB139_22:
Ltmp131:
	bl	___clang_call_terminate
Lfunc_end11:
	.cfi_endproc
	.section	__TEXT,__gcc_except_tab
	.p2align	2
GCC_except_table139:
Lexception11:
	.byte	255                             ; @LPStart Encoding = omit
	.byte	155                             ; @TType Encoding = indirect pcrel sdata4
	.uleb128 Lttbase6-Lttbaseref6
Lttbaseref6:
	.byte	1                               ; Call site Encoding = uleb128
	.uleb128 Lcst_end11-Lcst_begin11
Lcst_begin11:
	.uleb128 Ltmp112-Lfunc_begin11          ; >> Call Site 1 <<
	.uleb128 Ltmp113-Ltmp112                ;   Call between Ltmp112 and Ltmp113
	.uleb128 Ltmp114-Lfunc_begin11          ;     jumps to Ltmp114
	.byte	1                               ;   On action: 1
	.uleb128 Ltmp115-Lfunc_begin11          ; >> Call Site 2 <<
	.uleb128 Ltmp124-Ltmp115                ;   Call between Ltmp115 and Ltmp124
	.uleb128 Ltmp125-Lfunc_begin11          ;     jumps to Ltmp125
	.byte	1                               ;   On action: 1
	.uleb128 Ltmp124-Lfunc_begin11          ; >> Call Site 3 <<
	.uleb128 Ltmp126-Ltmp124                ;   Call between Ltmp124 and Ltmp126
	.byte	0                               ;     has no landing pad
	.byte	0                               ;   On action: cleanup
	.uleb128 Ltmp126-Lfunc_begin11          ; >> Call Site 4 <<
	.uleb128 Ltmp127-Ltmp126                ;   Call between Ltmp126 and Ltmp127
	.uleb128 Ltmp128-Lfunc_begin11          ;     jumps to Ltmp128
	.byte	0                               ;   On action: cleanup
	.uleb128 Ltmp127-Lfunc_begin11          ; >> Call Site 5 <<
	.uleb128 Ltmp129-Ltmp127                ;   Call between Ltmp127 and Ltmp129
	.byte	0                               ;     has no landing pad
	.byte	0                               ;   On action: cleanup
	.uleb128 Ltmp129-Lfunc_begin11          ; >> Call Site 6 <<
	.uleb128 Ltmp130-Ltmp129                ;   Call between Ltmp129 and Ltmp130
	.uleb128 Ltmp131-Lfunc_begin11          ;     jumps to Ltmp131
	.byte	1                               ;   On action: 1
	.uleb128 Ltmp130-Lfunc_begin11          ; >> Call Site 7 <<
	.uleb128 Lfunc_end11-Ltmp130            ;   Call between Ltmp130 and Lfunc_end11
	.byte	0                               ;     has no landing pad
	.byte	0                               ;   On action: cleanup
Lcst_end11:
	.byte	1                               ; >> Action Record 1 <<
                                        ;   Catch TypeInfo 1
	.byte	0                               ;   No further actions
	.p2align	2
                                        ; >> Catch TypeInfos <<
	.long	0                               ; TypeInfo 1
Lttbase6:
	.p2align	2
                                        ; -- End function
	.section	__TEXT,__text,regular,pure_instructions
	.private_extern	__ZNKSt3__113basic_ostreamIcNS_11char_traitsIcEEE6sentrycvbB6v15006Ev ; -- Begin function _ZNKSt3__113basic_ostreamIcNS_11char_traitsIcEEE6sentrycvbB6v15006Ev
	.globl	__ZNKSt3__113basic_ostreamIcNS_11char_traitsIcEEE6sentrycvbB6v15006Ev
	.weak_definition	__ZNKSt3__113basic_ostreamIcNS_11char_traitsIcEEE6sentrycvbB6v15006Ev
	.p2align	2
__ZNKSt3__113basic_ostreamIcNS_11char_traitsIcEEE6sentrycvbB6v15006Ev: ; @_ZNKSt3__113basic_ostreamIcNS_11char_traitsIcEEE6sentrycvbB6v15006Ev
	.cfi_startproc
; %bb.0:
	sub	sp, sp, #16
	.cfi_def_cfa_offset 16
	str	x0, [sp, #8]
	ldr	x8, [sp, #8]
	ldrb	w8, [x8]
	and	w0, w8, #0x1
	add	sp, sp, #16
	ret
	.cfi_endproc
                                        ; -- End function
	.private_extern	__ZNSt3__116__pad_and_outputIcNS_11char_traitsIcEEEENS_19ostreambuf_iteratorIT_T0_EES6_PKS4_S8_S8_RNS_8ios_baseES4_ ; -- Begin function _ZNSt3__116__pad_and_outputIcNS_11char_traitsIcEEEENS_19ostreambuf_iteratorIT_T0_EES6_PKS4_S8_S8_RNS_8ios_baseES4_
	.globl	__ZNSt3__116__pad_and_outputIcNS_11char_traitsIcEEEENS_19ostreambuf_iteratorIT_T0_EES6_PKS4_S8_S8_RNS_8ios_baseES4_
	.weak_definition	__ZNSt3__116__pad_and_outputIcNS_11char_traitsIcEEEENS_19ostreambuf_iteratorIT_T0_EES6_PKS4_S8_S8_RNS_8ios_baseES4_
	.p2align	2
__ZNSt3__116__pad_and_outputIcNS_11char_traitsIcEEEENS_19ostreambuf_iteratorIT_T0_EES6_PKS4_S8_S8_RNS_8ios_baseES4_: ; @_ZNSt3__116__pad_and_outputIcNS_11char_traitsIcEEEENS_19ostreambuf_iteratorIT_T0_EES6_PKS4_S8_S8_RNS_8ios_baseES4_
Lfunc_begin12:
	.cfi_startproc
	.cfi_personality 155, ___gxx_personality_v0
	.cfi_lsda 16, Lexception12
; %bb.0:
	sub	sp, sp, #160
	.cfi_def_cfa_offset 160
	stp	x29, x30, [sp, #144]            ; 16-byte Folded Spill
	add	x29, sp, #144
	.cfi_def_cfa w29, 16
	.cfi_offset w30, -8
	.cfi_offset w29, -16
	stur	x0, [x29, #-16]
	stur	x1, [x29, #-24]
	stur	x2, [x29, #-32]
	stur	x3, [x29, #-40]
	stur	x4, [x29, #-48]
	sturb	w5, [x29, #-49]
	ldur	x8, [x29, #-16]
	subs	x8, x8, #0
	cset	w8, ne
	tbnz	w8, #0, LBB141_2
	b	LBB141_1
LBB141_1:
	ldur	x8, [x29, #-16]
	stur	x8, [x29, #-8]
	b	LBB141_23
LBB141_2:
	ldur	x8, [x29, #-40]
	ldur	x9, [x29, #-24]
	subs	x8, x8, x9
	stur	x8, [x29, #-64]
	ldur	x0, [x29, #-48]
	bl	__ZNKSt3__18ios_base5widthB6v15006Ev
	str	x0, [sp, #72]
	ldr	x8, [sp, #72]
	ldur	x9, [x29, #-64]
	subs	x8, x8, x9
	cset	w8, le
	tbnz	w8, #0, LBB141_4
	b	LBB141_3
LBB141_3:
	ldur	x9, [x29, #-64]
	ldr	x8, [sp, #72]
	subs	x8, x8, x9
	str	x8, [sp, #72]
	b	LBB141_5
LBB141_4:
	str	xzr, [sp, #72]
	b	LBB141_5
LBB141_5:
	ldur	x8, [x29, #-32]
	ldur	x9, [x29, #-24]
	subs	x8, x8, x9
	str	x8, [sp, #64]
	ldr	x8, [sp, #64]
	subs	x8, x8, #0
	cset	w8, le
	tbnz	w8, #0, LBB141_9
	b	LBB141_6
LBB141_6:
	ldur	x0, [x29, #-16]
	ldur	x1, [x29, #-24]
	ldr	x2, [sp, #64]
	bl	__ZNSt3__115basic_streambufIcNS_11char_traitsIcEEE5sputnB6v15006EPKcl
	ldr	x8, [sp, #64]
	subs	x8, x0, x8
	cset	w8, eq
	tbnz	w8, #0, LBB141_8
	b	LBB141_7
LBB141_7:
                                        ; kill: def $x8 killed $xzr
	stur	xzr, [x29, #-16]
	ldur	x8, [x29, #-16]
	stur	x8, [x29, #-8]
	b	LBB141_23
LBB141_8:
	b	LBB141_9
LBB141_9:
	ldr	x8, [sp, #72]
	subs	x8, x8, #0
	cset	w8, le
	tbnz	w8, #0, LBB141_18
	b	LBB141_10
LBB141_10:
	ldr	x1, [sp, #72]
	ldursb	w2, [x29, #-49]
	add	x0, sp, #40
	str	x0, [sp]                        ; 8-byte Folded Spill
	bl	__ZNSt3__112basic_stringIcNS_11char_traitsIcEENS_9allocatorIcEEEC1B6v15006Emc
	ldr	x0, [sp]                        ; 8-byte Folded Reload
	ldur	x8, [x29, #-16]
	str	x8, [sp, #8]                    ; 8-byte Folded Spill
	bl	__ZNSt3__112basic_stringIcNS_11char_traitsIcEENS_9allocatorIcEEE4dataB6v15006Ev
	mov	x1, x0
	ldr	x0, [sp, #8]                    ; 8-byte Folded Reload
	ldr	x2, [sp, #72]
Ltmp133:
	bl	__ZNSt3__115basic_streambufIcNS_11char_traitsIcEEE5sputnB6v15006EPKcl
	str	x0, [sp, #16]                   ; 8-byte Folded Spill
Ltmp134:
	b	LBB141_11
LBB141_11:
	ldr	x8, [sp, #16]                   ; 8-byte Folded Reload
	ldr	x9, [sp, #72]
	subs	x8, x8, x9
	cset	w8, eq
	tbnz	w8, #0, LBB141_14
	b	LBB141_12
LBB141_12:
                                        ; kill: def $x8 killed $xzr
	stur	xzr, [x29, #-16]
	ldur	x8, [x29, #-16]
	stur	x8, [x29, #-8]
	mov	w8, #1
	str	w8, [sp, #24]
	b	LBB141_15
LBB141_13:
Ltmp135:
	mov	x8, x1
	str	x0, [sp, #32]
	str	w8, [sp, #28]
	add	x0, sp, #40
	bl	__ZNSt3__112basic_stringIcNS_11char_traitsIcEENS_9allocatorIcEEED1Ev
	b	LBB141_24
LBB141_14:
	str	wzr, [sp, #24]
	b	LBB141_15
LBB141_15:
	add	x0, sp, #40
	bl	__ZNSt3__112basic_stringIcNS_11char_traitsIcEENS_9allocatorIcEEED1Ev
	ldr	w8, [sp, #24]
	subs	w8, w8, #0
	cset	w8, eq
	tbnz	w8, #0, LBB141_17
	b	LBB141_16
LBB141_16:
	b	LBB141_23
LBB141_17:
	b	LBB141_18
LBB141_18:
	ldur	x8, [x29, #-40]
	ldur	x9, [x29, #-32]
	subs	x8, x8, x9
	str	x8, [sp, #64]
	ldr	x8, [sp, #64]
	subs	x8, x8, #0
	cset	w8, le
	tbnz	w8, #0, LBB141_22
	b	LBB141_19
LBB141_19:
	ldur	x0, [x29, #-16]
	ldur	x1, [x29, #-32]
	ldr	x2, [sp, #64]
	bl	__ZNSt3__115basic_streambufIcNS_11char_traitsIcEEE5sputnB6v15006EPKcl
	ldr	x8, [sp, #64]
	subs	x8, x0, x8
	cset	w8, eq
	tbnz	w8, #0, LBB141_21
	b	LBB141_20
LBB141_20:
                                        ; kill: def $x8 killed $xzr
	stur	xzr, [x29, #-16]
	ldur	x8, [x29, #-16]
	stur	x8, [x29, #-8]
	b	LBB141_23
LBB141_21:
	b	LBB141_22
LBB141_22:
	ldur	x0, [x29, #-48]
	mov	x1, #0
	bl	__ZNSt3__18ios_base5widthB6v15006El
	ldur	x8, [x29, #-16]
	stur	x8, [x29, #-8]
	b	LBB141_23
LBB141_23:
	ldur	x0, [x29, #-8]
	ldp	x29, x30, [sp, #144]            ; 16-byte Folded Reload
	add	sp, sp, #160
	ret
LBB141_24:
	ldr	x0, [sp, #32]
	bl	__Unwind_Resume
; %bb.25:
Lfunc_end12:
	.cfi_endproc
	.section	__TEXT,__gcc_except_tab
	.p2align	2
GCC_except_table141:
Lexception12:
	.byte	255                             ; @LPStart Encoding = omit
	.byte	255                             ; @TType Encoding = omit
	.byte	1                               ; Call site Encoding = uleb128
	.uleb128 Lcst_end12-Lcst_begin12
Lcst_begin12:
	.uleb128 Lfunc_begin12-Lfunc_begin12    ; >> Call Site 1 <<
	.uleb128 Ltmp133-Lfunc_begin12          ;   Call between Lfunc_begin12 and Ltmp133
	.byte	0                               ;     has no landing pad
	.byte	0                               ;   On action: cleanup
	.uleb128 Ltmp133-Lfunc_begin12          ; >> Call Site 2 <<
	.uleb128 Ltmp134-Ltmp133                ;   Call between Ltmp133 and Ltmp134
	.uleb128 Ltmp135-Lfunc_begin12          ;     jumps to Ltmp135
	.byte	0                               ;   On action: cleanup
	.uleb128 Ltmp134-Lfunc_begin12          ; >> Call Site 3 <<
	.uleb128 Lfunc_end12-Ltmp134            ;   Call between Ltmp134 and Lfunc_end12
	.byte	0                               ;     has no landing pad
	.byte	0                               ;   On action: cleanup
Lcst_end12:
	.p2align	2
                                        ; -- End function
	.section	__TEXT,__text,regular,pure_instructions
	.private_extern	__ZNSt3__119ostreambuf_iteratorIcNS_11char_traitsIcEEEC1B6v15006ERNS_13basic_ostreamIcS2_EE ; -- Begin function _ZNSt3__119ostreambuf_iteratorIcNS_11char_traitsIcEEEC1B6v15006ERNS_13basic_ostreamIcS2_EE
	.globl	__ZNSt3__119ostreambuf_iteratorIcNS_11char_traitsIcEEEC1B6v15006ERNS_13basic_ostreamIcS2_EE
	.weak_def_can_be_hidden	__ZNSt3__119ostreambuf_iteratorIcNS_11char_traitsIcEEEC1B6v15006ERNS_13basic_ostreamIcS2_EE
	.p2align	2
__ZNSt3__119ostreambuf_iteratorIcNS_11char_traitsIcEEEC1B6v15006ERNS_13basic_ostreamIcS2_EE: ; @_ZNSt3__119ostreambuf_iteratorIcNS_11char_traitsIcEEEC1B6v15006ERNS_13basic_ostreamIcS2_EE
	.cfi_startproc
; %bb.0:
	sub	sp, sp, #48
	.cfi_def_cfa_offset 48
	stp	x29, x30, [sp, #32]             ; 16-byte Folded Spill
	add	x29, sp, #32
	.cfi_def_cfa w29, 16
	.cfi_offset w30, -8
	.cfi_offset w29, -16
	stur	x0, [x29, #-8]
	str	x1, [sp, #16]
	ldur	x0, [x29, #-8]
	str	x0, [sp, #8]                    ; 8-byte Folded Spill
	ldr	x1, [sp, #16]
	bl	__ZNSt3__119ostreambuf_iteratorIcNS_11char_traitsIcEEEC2B6v15006ERNS_13basic_ostreamIcS2_EE
	ldr	x0, [sp, #8]                    ; 8-byte Folded Reload
	ldp	x29, x30, [sp, #32]             ; 16-byte Folded Reload
	add	sp, sp, #48
	ret
	.cfi_endproc
                                        ; -- End function
	.private_extern	__ZNKSt3__18ios_base5flagsB6v15006Ev ; -- Begin function _ZNKSt3__18ios_base5flagsB6v15006Ev
	.globl	__ZNKSt3__18ios_base5flagsB6v15006Ev
	.weak_definition	__ZNKSt3__18ios_base5flagsB6v15006Ev
	.p2align	2
__ZNKSt3__18ios_base5flagsB6v15006Ev:   ; @_ZNKSt3__18ios_base5flagsB6v15006Ev
	.cfi_startproc
; %bb.0:
	sub	sp, sp, #16
	.cfi_def_cfa_offset 16
	str	x0, [sp, #8]
	ldr	x8, [sp, #8]
	ldr	w0, [x8, #8]
	add	sp, sp, #16
	ret
	.cfi_endproc
                                        ; -- End function
	.private_extern	__ZNKSt3__19basic_iosIcNS_11char_traitsIcEEE4fillB6v15006Ev ; -- Begin function _ZNKSt3__19basic_iosIcNS_11char_traitsIcEEE4fillB6v15006Ev
	.globl	__ZNKSt3__19basic_iosIcNS_11char_traitsIcEEE4fillB6v15006Ev
	.weak_definition	__ZNKSt3__19basic_iosIcNS_11char_traitsIcEEE4fillB6v15006Ev
	.p2align	2
__ZNKSt3__19basic_iosIcNS_11char_traitsIcEEE4fillB6v15006Ev: ; @_ZNKSt3__19basic_iosIcNS_11char_traitsIcEEE4fillB6v15006Ev
	.cfi_startproc
; %bb.0:
	sub	sp, sp, #32
	.cfi_def_cfa_offset 32
	stp	x29, x30, [sp, #16]             ; 16-byte Folded Spill
	add	x29, sp, #16
	.cfi_def_cfa w29, 16
	.cfi_offset w30, -8
	.cfi_offset w29, -16
	str	x0, [sp, #8]
	ldr	x8, [sp, #8]
	str	x8, [sp]                        ; 8-byte Folded Spill
	bl	__ZNSt3__111char_traitsIcE3eofEv
	ldr	x8, [sp]                        ; 8-byte Folded Reload
	ldr	w1, [x8, #144]
	bl	__ZNSt3__111char_traitsIcE11eq_int_typeEii
	tbz	w0, #0, LBB144_2
	b	LBB144_1
LBB144_1:
	ldr	x0, [sp]                        ; 8-byte Folded Reload
	mov	w1, #32
	bl	__ZNKSt3__19basic_iosIcNS_11char_traitsIcEEE5widenB6v15006Ec
	ldr	x9, [sp]                        ; 8-byte Folded Reload
	sxtb	w8, w0
	str	w8, [x9, #144]
	b	LBB144_2
LBB144_2:
	ldr	x8, [sp]                        ; 8-byte Folded Reload
	ldr	w8, [x8, #144]
	sxtb	w0, w8
	ldp	x29, x30, [sp, #16]             ; 16-byte Folded Reload
	add	sp, sp, #32
	ret
	.cfi_endproc
                                        ; -- End function
	.private_extern	__ZNKSt3__119ostreambuf_iteratorIcNS_11char_traitsIcEEE6failedB6v15006Ev ; -- Begin function _ZNKSt3__119ostreambuf_iteratorIcNS_11char_traitsIcEEE6failedB6v15006Ev
	.globl	__ZNKSt3__119ostreambuf_iteratorIcNS_11char_traitsIcEEE6failedB6v15006Ev
	.weak_definition	__ZNKSt3__119ostreambuf_iteratorIcNS_11char_traitsIcEEE6failedB6v15006Ev
	.p2align	2
__ZNKSt3__119ostreambuf_iteratorIcNS_11char_traitsIcEEE6failedB6v15006Ev: ; @_ZNKSt3__119ostreambuf_iteratorIcNS_11char_traitsIcEEE6failedB6v15006Ev
	.cfi_startproc
; %bb.0:
	sub	sp, sp, #16
	.cfi_def_cfa_offset 16
	str	x0, [sp, #8]
	ldr	x8, [sp, #8]
	ldr	x8, [x8]
	subs	x8, x8, #0
	cset	w8, eq
	and	w0, w8, #0x1
	add	sp, sp, #16
	ret
	.cfi_endproc
                                        ; -- End function
	.private_extern	__ZNSt3__19basic_iosIcNS_11char_traitsIcEEE8setstateB6v15006Ej ; -- Begin function _ZNSt3__19basic_iosIcNS_11char_traitsIcEEE8setstateB6v15006Ej
	.globl	__ZNSt3__19basic_iosIcNS_11char_traitsIcEEE8setstateB6v15006Ej
	.weak_definition	__ZNSt3__19basic_iosIcNS_11char_traitsIcEEE8setstateB6v15006Ej
	.p2align	2
__ZNSt3__19basic_iosIcNS_11char_traitsIcEEE8setstateB6v15006Ej: ; @_ZNSt3__19basic_iosIcNS_11char_traitsIcEEE8setstateB6v15006Ej
	.cfi_startproc
; %bb.0:
	sub	sp, sp, #32
	.cfi_def_cfa_offset 32
	stp	x29, x30, [sp, #16]             ; 16-byte Folded Spill
	add	x29, sp, #16
	.cfi_def_cfa w29, 16
	.cfi_offset w30, -8
	.cfi_offset w29, -16
	str	x0, [sp, #8]
	str	w1, [sp, #4]
	ldr	x0, [sp, #8]
	ldr	w1, [sp, #4]
	bl	__ZNSt3__18ios_base8setstateB6v15006Ej
	ldp	x29, x30, [sp, #16]             ; 16-byte Folded Reload
	add	sp, sp, #32
	ret
	.cfi_endproc
                                        ; -- End function
	.private_extern	__ZNKSt3__18ios_base5widthB6v15006Ev ; -- Begin function _ZNKSt3__18ios_base5widthB6v15006Ev
	.globl	__ZNKSt3__18ios_base5widthB6v15006Ev
	.weak_definition	__ZNKSt3__18ios_base5widthB6v15006Ev
	.p2align	2
__ZNKSt3__18ios_base5widthB6v15006Ev:   ; @_ZNKSt3__18ios_base5widthB6v15006Ev
	.cfi_startproc
; %bb.0:
	sub	sp, sp, #16
	.cfi_def_cfa_offset 16
	str	x0, [sp, #8]
	ldr	x8, [sp, #8]
	ldr	x0, [x8, #24]
	add	sp, sp, #16
	ret
	.cfi_endproc
                                        ; -- End function
	.private_extern	__ZNSt3__115basic_streambufIcNS_11char_traitsIcEEE5sputnB6v15006EPKcl ; -- Begin function _ZNSt3__115basic_streambufIcNS_11char_traitsIcEEE5sputnB6v15006EPKcl
	.globl	__ZNSt3__115basic_streambufIcNS_11char_traitsIcEEE5sputnB6v15006EPKcl
	.weak_definition	__ZNSt3__115basic_streambufIcNS_11char_traitsIcEEE5sputnB6v15006EPKcl
	.p2align	2
__ZNSt3__115basic_streambufIcNS_11char_traitsIcEEE5sputnB6v15006EPKcl: ; @_ZNSt3__115basic_streambufIcNS_11char_traitsIcEEE5sputnB6v15006EPKcl
	.cfi_startproc
; %bb.0:
	sub	sp, sp, #48
	.cfi_def_cfa_offset 48
	stp	x29, x30, [sp, #32]             ; 16-byte Folded Spill
	add	x29, sp, #32
	.cfi_def_cfa w29, 16
	.cfi_offset w30, -8
	.cfi_offset w29, -16
	stur	x0, [x29, #-8]
	str	x1, [sp, #16]
	str	x2, [sp, #8]
	ldur	x0, [x29, #-8]
	ldr	x1, [sp, #16]
	ldr	x2, [sp, #8]
	ldr	x8, [x0]
	ldr	x8, [x8, #96]
	blr	x8
	ldp	x29, x30, [sp, #32]             ; 16-byte Folded Reload
	add	sp, sp, #48
	ret
	.cfi_endproc
                                        ; -- End function
	.private_extern	__ZNSt3__112basic_stringIcNS_11char_traitsIcEENS_9allocatorIcEEEC1B6v15006Emc ; -- Begin function _ZNSt3__112basic_stringIcNS_11char_traitsIcEENS_9allocatorIcEEEC1B6v15006Emc
	.globl	__ZNSt3__112basic_stringIcNS_11char_traitsIcEENS_9allocatorIcEEEC1B6v15006Emc
	.weak_def_can_be_hidden	__ZNSt3__112basic_stringIcNS_11char_traitsIcEENS_9allocatorIcEEEC1B6v15006Emc
	.p2align	2
__ZNSt3__112basic_stringIcNS_11char_traitsIcEENS_9allocatorIcEEEC1B6v15006Emc: ; @_ZNSt3__112basic_stringIcNS_11char_traitsIcEENS_9allocatorIcEEEC1B6v15006Emc
	.cfi_startproc
; %bb.0:
	sub	sp, sp, #48
	.cfi_def_cfa_offset 48
	stp	x29, x30, [sp, #32]             ; 16-byte Folded Spill
	add	x29, sp, #32
	.cfi_def_cfa w29, 16
	.cfi_offset w30, -8
	.cfi_offset w29, -16
	stur	x0, [x29, #-8]
	str	x1, [sp, #16]
	strb	w2, [sp, #15]
	ldur	x0, [x29, #-8]
	str	x0, [sp]                        ; 8-byte Folded Spill
	ldr	x1, [sp, #16]
	ldrsb	w2, [sp, #15]
	bl	__ZNSt3__112basic_stringIcNS_11char_traitsIcEENS_9allocatorIcEEEC2B6v15006Emc
	ldr	x0, [sp]                        ; 8-byte Folded Reload
	ldp	x29, x30, [sp, #32]             ; 16-byte Folded Reload
	add	sp, sp, #48
	ret
	.cfi_endproc
                                        ; -- End function
	.private_extern	__ZNSt3__112basic_stringIcNS_11char_traitsIcEENS_9allocatorIcEEE4dataB6v15006Ev ; -- Begin function _ZNSt3__112basic_stringIcNS_11char_traitsIcEENS_9allocatorIcEEE4dataB6v15006Ev
	.globl	__ZNSt3__112basic_stringIcNS_11char_traitsIcEENS_9allocatorIcEEE4dataB6v15006Ev
	.weak_definition	__ZNSt3__112basic_stringIcNS_11char_traitsIcEENS_9allocatorIcEEE4dataB6v15006Ev
	.p2align	2
__ZNSt3__112basic_stringIcNS_11char_traitsIcEENS_9allocatorIcEEE4dataB6v15006Ev: ; @_ZNSt3__112basic_stringIcNS_11char_traitsIcEENS_9allocatorIcEEE4dataB6v15006Ev
	.cfi_startproc
; %bb.0:
	sub	sp, sp, #32
	.cfi_def_cfa_offset 32
	stp	x29, x30, [sp, #16]             ; 16-byte Folded Spill
	add	x29, sp, #16
	.cfi_def_cfa w29, 16
	.cfi_offset w30, -8
	.cfi_offset w29, -16
	str	x0, [sp, #8]
	ldr	x0, [sp, #8]
	bl	__ZNSt3__112basic_stringIcNS_11char_traitsIcEENS_9allocatorIcEEE13__get_pointerB6v15006Ev
	bl	__ZNSt3__112__to_addressB6v15006IcEEPT_S2_
	ldp	x29, x30, [sp, #16]             ; 16-byte Folded Reload
	add	sp, sp, #32
	ret
	.cfi_endproc
                                        ; -- End function
	.private_extern	__ZNSt3__18ios_base5widthB6v15006El ; -- Begin function _ZNSt3__18ios_base5widthB6v15006El
	.globl	__ZNSt3__18ios_base5widthB6v15006El
	.weak_definition	__ZNSt3__18ios_base5widthB6v15006El
	.p2align	2
__ZNSt3__18ios_base5widthB6v15006El:    ; @_ZNSt3__18ios_base5widthB6v15006El
	.cfi_startproc
; %bb.0:
	sub	sp, sp, #32
	.cfi_def_cfa_offset 32
	str	x0, [sp, #24]
	str	x1, [sp, #16]
	ldr	x9, [sp, #24]
	ldr	x8, [x9, #24]
	str	x8, [sp, #8]
	ldr	x8, [sp, #16]
	str	x8, [x9, #24]
	ldr	x0, [sp, #8]
	add	sp, sp, #32
	ret
	.cfi_endproc
                                        ; -- End function
	.private_extern	__ZNSt3__112basic_stringIcNS_11char_traitsIcEENS_9allocatorIcEEEC2B6v15006Emc ; -- Begin function _ZNSt3__112basic_stringIcNS_11char_traitsIcEENS_9allocatorIcEEEC2B6v15006Emc
	.globl	__ZNSt3__112basic_stringIcNS_11char_traitsIcEENS_9allocatorIcEEEC2B6v15006Emc
	.weak_def_can_be_hidden	__ZNSt3__112basic_stringIcNS_11char_traitsIcEENS_9allocatorIcEEEC2B6v15006Emc
	.p2align	2
__ZNSt3__112basic_stringIcNS_11char_traitsIcEENS_9allocatorIcEEEC2B6v15006Emc: ; @_ZNSt3__112basic_stringIcNS_11char_traitsIcEENS_9allocatorIcEEEC2B6v15006Emc
	.cfi_startproc
; %bb.0:
	sub	sp, sp, #48
	.cfi_def_cfa_offset 48
	stp	x29, x30, [sp, #32]             ; 16-byte Folded Spill
	add	x29, sp, #32
	.cfi_def_cfa w29, 16
	.cfi_offset w30, -8
	.cfi_offset w29, -16
	stur	x0, [x29, #-8]
	str	x1, [sp, #16]
	strb	w2, [sp, #15]
	ldur	x0, [x29, #-8]
	str	x0, [sp]                        ; 8-byte Folded Spill
	add	x1, sp, #14
	add	x2, sp, #13
	bl	__ZNSt3__117__compressed_pairINS_12basic_stringIcNS_11char_traitsIcEENS_9allocatorIcEEE5__repES5_EC1B6v15006INS_18__default_init_tagESA_EEOT_OT0_
	ldr	x0, [sp]                        ; 8-byte Folded Reload
	ldr	x1, [sp, #16]
	ldrsb	w2, [sp, #15]
	bl	__ZNSt3__112basic_stringIcNS_11char_traitsIcEENS_9allocatorIcEEE6__initEmc
	ldr	x0, [sp]                        ; 8-byte Folded Reload
	bl	__ZNSt3__119__debug_db_insert_cB6v15006INS_12basic_stringIcNS_11char_traitsIcEENS_9allocatorIcEEEEEEvPT_
	ldr	x0, [sp]                        ; 8-byte Folded Reload
	ldp	x29, x30, [sp, #32]             ; 16-byte Folded Reload
	add	sp, sp, #48
	ret
	.cfi_endproc
                                        ; -- End function
	.private_extern	__ZNSt3__112__to_addressB6v15006IcEEPT_S2_ ; -- Begin function _ZNSt3__112__to_addressB6v15006IcEEPT_S2_
	.globl	__ZNSt3__112__to_addressB6v15006IcEEPT_S2_
	.weak_definition	__ZNSt3__112__to_addressB6v15006IcEEPT_S2_
	.p2align	2
__ZNSt3__112__to_addressB6v15006IcEEPT_S2_: ; @_ZNSt3__112__to_addressB6v15006IcEEPT_S2_
	.cfi_startproc
; %bb.0:
	sub	sp, sp, #16
	.cfi_def_cfa_offset 16
	str	x0, [sp, #8]
	ldr	x0, [sp, #8]
	add	sp, sp, #16
	ret
	.cfi_endproc
                                        ; -- End function
	.private_extern	__ZNSt3__112basic_stringIcNS_11char_traitsIcEENS_9allocatorIcEEE13__get_pointerB6v15006Ev ; -- Begin function _ZNSt3__112basic_stringIcNS_11char_traitsIcEENS_9allocatorIcEEE13__get_pointerB6v15006Ev
	.globl	__ZNSt3__112basic_stringIcNS_11char_traitsIcEENS_9allocatorIcEEE13__get_pointerB6v15006Ev
	.weak_definition	__ZNSt3__112basic_stringIcNS_11char_traitsIcEENS_9allocatorIcEEE13__get_pointerB6v15006Ev
	.p2align	2
__ZNSt3__112basic_stringIcNS_11char_traitsIcEENS_9allocatorIcEEE13__get_pointerB6v15006Ev: ; @_ZNSt3__112basic_stringIcNS_11char_traitsIcEENS_9allocatorIcEEE13__get_pointerB6v15006Ev
	.cfi_startproc
; %bb.0:
	sub	sp, sp, #48
	.cfi_def_cfa_offset 48
	stp	x29, x30, [sp, #32]             ; 16-byte Folded Spill
	add	x29, sp, #32
	.cfi_def_cfa w29, 16
	.cfi_offset w30, -8
	.cfi_offset w29, -16
	stur	x0, [x29, #-8]
	ldur	x0, [x29, #-8]
	str	x0, [sp, #16]                   ; 8-byte Folded Spill
	bl	__ZNKSt3__112basic_stringIcNS_11char_traitsIcEENS_9allocatorIcEEE9__is_longB6v15006Ev
	tbz	w0, #0, LBB154_2
	b	LBB154_1
LBB154_1:
	ldr	x0, [sp, #16]                   ; 8-byte Folded Reload
	bl	__ZNSt3__112basic_stringIcNS_11char_traitsIcEENS_9allocatorIcEEE18__get_long_pointerB6v15006Ev
	str	x0, [sp, #8]                    ; 8-byte Folded Spill
	b	LBB154_3
LBB154_2:
	ldr	x0, [sp, #16]                   ; 8-byte Folded Reload
	bl	__ZNSt3__112basic_stringIcNS_11char_traitsIcEENS_9allocatorIcEEE19__get_short_pointerB6v15006Ev
	str	x0, [sp, #8]                    ; 8-byte Folded Spill
	b	LBB154_3
LBB154_3:
	ldr	x0, [sp, #8]                    ; 8-byte Folded Reload
	ldp	x29, x30, [sp, #32]             ; 16-byte Folded Reload
	add	sp, sp, #48
	ret
	.cfi_endproc
                                        ; -- End function
	.private_extern	__ZNSt3__119ostreambuf_iteratorIcNS_11char_traitsIcEEEC2B6v15006ERNS_13basic_ostreamIcS2_EE ; -- Begin function _ZNSt3__119ostreambuf_iteratorIcNS_11char_traitsIcEEEC2B6v15006ERNS_13basic_ostreamIcS2_EE
	.globl	__ZNSt3__119ostreambuf_iteratorIcNS_11char_traitsIcEEEC2B6v15006ERNS_13basic_ostreamIcS2_EE
	.weak_def_can_be_hidden	__ZNSt3__119ostreambuf_iteratorIcNS_11char_traitsIcEEEC2B6v15006ERNS_13basic_ostreamIcS2_EE
	.p2align	2
__ZNSt3__119ostreambuf_iteratorIcNS_11char_traitsIcEEEC2B6v15006ERNS_13basic_ostreamIcS2_EE: ; @_ZNSt3__119ostreambuf_iteratorIcNS_11char_traitsIcEEEC2B6v15006ERNS_13basic_ostreamIcS2_EE
Lfunc_begin13:
	.cfi_startproc
	.cfi_personality 155, ___gxx_personality_v0
	.cfi_lsda 16, Lexception13
; %bb.0:
	sub	sp, sp, #48
	.cfi_def_cfa_offset 48
	stp	x29, x30, [sp, #32]             ; 16-byte Folded Spill
	add	x29, sp, #32
	.cfi_def_cfa w29, 16
	.cfi_offset w30, -8
	.cfi_offset w29, -16
	stur	x0, [x29, #-8]
	str	x1, [sp, #16]
	ldur	x8, [x29, #-8]
	str	x8, [sp]                        ; 8-byte Folded Spill
	ldr	x8, [sp, #16]
	ldr	x9, [x8]
	ldur	x9, [x9, #-24]
Ltmp141:
	add	x0, x8, x9
	bl	__ZNKSt3__19basic_iosIcNS_11char_traitsIcEEE5rdbufB6v15006Ev
	str	x0, [sp, #8]                    ; 8-byte Folded Spill
Ltmp142:
	b	LBB155_1
LBB155_1:
	ldr	x0, [sp]                        ; 8-byte Folded Reload
	ldr	x8, [sp, #8]                    ; 8-byte Folded Reload
	str	x8, [x0]
	ldp	x29, x30, [sp, #32]             ; 16-byte Folded Reload
	add	sp, sp, #48
	ret
LBB155_2:
Ltmp143:
	bl	___clang_call_terminate
Lfunc_end13:
	.cfi_endproc
	.section	__TEXT,__gcc_except_tab
	.p2align	2
GCC_except_table155:
Lexception13:
	.byte	255                             ; @LPStart Encoding = omit
	.byte	155                             ; @TType Encoding = indirect pcrel sdata4
	.uleb128 Lttbase7-Lttbaseref7
Lttbaseref7:
	.byte	1                               ; Call site Encoding = uleb128
	.uleb128 Lcst_end13-Lcst_begin13
Lcst_begin13:
	.uleb128 Ltmp141-Lfunc_begin13          ; >> Call Site 1 <<
	.uleb128 Ltmp142-Ltmp141                ;   Call between Ltmp141 and Ltmp142
	.uleb128 Ltmp143-Lfunc_begin13          ;     jumps to Ltmp143
	.byte	1                               ;   On action: 1
Lcst_end13:
	.byte	1                               ; >> Action Record 1 <<
                                        ;   Catch TypeInfo 1
	.byte	0                               ;   No further actions
	.p2align	2
                                        ; >> Catch TypeInfos <<
	.long	0                               ; TypeInfo 1
Lttbase7:
	.p2align	2
                                        ; -- End function
	.section	__TEXT,__text,regular,pure_instructions
	.private_extern	__ZNKSt3__19basic_iosIcNS_11char_traitsIcEEE5rdbufB6v15006Ev ; -- Begin function _ZNKSt3__19basic_iosIcNS_11char_traitsIcEEE5rdbufB6v15006Ev
	.globl	__ZNKSt3__19basic_iosIcNS_11char_traitsIcEEE5rdbufB6v15006Ev
	.weak_definition	__ZNKSt3__19basic_iosIcNS_11char_traitsIcEEE5rdbufB6v15006Ev
	.p2align	2
__ZNKSt3__19basic_iosIcNS_11char_traitsIcEEE5rdbufB6v15006Ev: ; @_ZNKSt3__19basic_iosIcNS_11char_traitsIcEEE5rdbufB6v15006Ev
	.cfi_startproc
; %bb.0:
	sub	sp, sp, #32
	.cfi_def_cfa_offset 32
	stp	x29, x30, [sp, #16]             ; 16-byte Folded Spill
	add	x29, sp, #16
	.cfi_def_cfa w29, 16
	.cfi_offset w30, -8
	.cfi_offset w29, -16
	str	x0, [sp, #8]
	ldr	x0, [sp, #8]
	bl	__ZNKSt3__18ios_base5rdbufB6v15006Ev
	ldp	x29, x30, [sp, #16]             ; 16-byte Folded Reload
	add	sp, sp, #32
	ret
	.cfi_endproc
                                        ; -- End function
	.private_extern	__ZNKSt3__18ios_base5rdbufB6v15006Ev ; -- Begin function _ZNKSt3__18ios_base5rdbufB6v15006Ev
	.globl	__ZNKSt3__18ios_base5rdbufB6v15006Ev
	.weak_definition	__ZNKSt3__18ios_base5rdbufB6v15006Ev
	.p2align	2
__ZNKSt3__18ios_base5rdbufB6v15006Ev:   ; @_ZNKSt3__18ios_base5rdbufB6v15006Ev
	.cfi_startproc
; %bb.0:
	sub	sp, sp, #16
	.cfi_def_cfa_offset 16
	str	x0, [sp, #8]
	ldr	x8, [sp, #8]
	ldr	x0, [x8, #40]
	add	sp, sp, #16
	ret
	.cfi_endproc
                                        ; -- End function
	.globl	__ZNSt3__111char_traitsIcE11eq_int_typeEii ; -- Begin function _ZNSt3__111char_traitsIcE11eq_int_typeEii
	.weak_definition	__ZNSt3__111char_traitsIcE11eq_int_typeEii
	.p2align	2
__ZNSt3__111char_traitsIcE11eq_int_typeEii: ; @_ZNSt3__111char_traitsIcE11eq_int_typeEii
	.cfi_startproc
; %bb.0:
	sub	sp, sp, #16
	.cfi_def_cfa_offset 16
	str	w0, [sp, #12]
	str	w1, [sp, #8]
	ldr	w8, [sp, #12]
	ldr	w9, [sp, #8]
	subs	w8, w8, w9
	cset	w8, eq
	and	w0, w8, #0x1
	add	sp, sp, #16
	ret
	.cfi_endproc
                                        ; -- End function
	.globl	__ZNSt3__111char_traitsIcE3eofEv ; -- Begin function _ZNSt3__111char_traitsIcE3eofEv
	.weak_definition	__ZNSt3__111char_traitsIcE3eofEv
	.p2align	2
__ZNSt3__111char_traitsIcE3eofEv:       ; @_ZNSt3__111char_traitsIcE3eofEv
	.cfi_startproc
; %bb.0:
	mov	w0, #-1
	ret
	.cfi_endproc
                                        ; -- End function
	.private_extern	__ZNKSt3__19basic_iosIcNS_11char_traitsIcEEE5widenB6v15006Ec ; -- Begin function _ZNKSt3__19basic_iosIcNS_11char_traitsIcEEE5widenB6v15006Ec
	.globl	__ZNKSt3__19basic_iosIcNS_11char_traitsIcEEE5widenB6v15006Ec
	.weak_definition	__ZNKSt3__19basic_iosIcNS_11char_traitsIcEEE5widenB6v15006Ec
	.p2align	2
__ZNKSt3__19basic_iosIcNS_11char_traitsIcEEE5widenB6v15006Ec: ; @_ZNKSt3__19basic_iosIcNS_11char_traitsIcEEE5widenB6v15006Ec
Lfunc_begin14:
	.cfi_startproc
	.cfi_personality 155, ___gxx_personality_v0
	.cfi_lsda 16, Lexception14
; %bb.0:
	sub	sp, sp, #80
	.cfi_def_cfa_offset 80
	stp	x29, x30, [sp, #64]             ; 16-byte Folded Spill
	add	x29, sp, #64
	.cfi_def_cfa w29, 16
	.cfi_offset w30, -8
	.cfi_offset w29, -16
	stur	x0, [x29, #-8]
	sturb	w1, [x29, #-9]
	ldur	x0, [x29, #-8]
	sub	x8, x29, #24
	str	x8, [sp, #8]                    ; 8-byte Folded Spill
	bl	__ZNKSt3__18ios_base6getlocEv
	ldr	x0, [sp, #8]                    ; 8-byte Folded Reload
Ltmp146:
	bl	__ZNSt3__19use_facetB6v15006INS_5ctypeIcEEEERKT_RKNS_6localeE
	str	x0, [sp, #16]                   ; 8-byte Folded Spill
Ltmp147:
	b	LBB160_1
LBB160_1:
	ldr	x0, [sp, #16]                   ; 8-byte Folded Reload
	ldursb	w1, [x29, #-9]
Ltmp148:
	bl	__ZNKSt3__15ctypeIcE5widenB6v15006Ec
	str	w0, [sp, #4]                    ; 4-byte Folded Spill
Ltmp149:
	b	LBB160_2
LBB160_2:
	sub	x0, x29, #24
	bl	__ZNSt3__16localeD1Ev
	ldr	w8, [sp, #4]                    ; 4-byte Folded Reload
	sxtb	w0, w8
	ldp	x29, x30, [sp, #64]             ; 16-byte Folded Reload
	add	sp, sp, #80
	ret
LBB160_3:
Ltmp150:
	mov	x8, x1
	str	x0, [sp, #32]
	str	w8, [sp, #28]
	sub	x0, x29, #24
	bl	__ZNSt3__16localeD1Ev
	b	LBB160_4
LBB160_4:
	ldr	x0, [sp, #32]
	bl	__Unwind_Resume
Lfunc_end14:
	.cfi_endproc
	.section	__TEXT,__gcc_except_tab
	.p2align	2
GCC_except_table160:
Lexception14:
	.byte	255                             ; @LPStart Encoding = omit
	.byte	255                             ; @TType Encoding = omit
	.byte	1                               ; Call site Encoding = uleb128
	.uleb128 Lcst_end14-Lcst_begin14
Lcst_begin14:
	.uleb128 Lfunc_begin14-Lfunc_begin14    ; >> Call Site 1 <<
	.uleb128 Ltmp146-Lfunc_begin14          ;   Call between Lfunc_begin14 and Ltmp146
	.byte	0                               ;     has no landing pad
	.byte	0                               ;   On action: cleanup
	.uleb128 Ltmp146-Lfunc_begin14          ; >> Call Site 2 <<
	.uleb128 Ltmp149-Ltmp146                ;   Call between Ltmp146 and Ltmp149
	.uleb128 Ltmp150-Lfunc_begin14          ;     jumps to Ltmp150
	.byte	0                               ;   On action: cleanup
	.uleb128 Ltmp149-Lfunc_begin14          ; >> Call Site 3 <<
	.uleb128 Lfunc_end14-Ltmp149            ;   Call between Ltmp149 and Lfunc_end14
	.byte	0                               ;     has no landing pad
	.byte	0                               ;   On action: cleanup
Lcst_end14:
	.p2align	2
                                        ; -- End function
	.section	__TEXT,__text,regular,pure_instructions
	.private_extern	__ZNSt3__19use_facetB6v15006INS_5ctypeIcEEEERKT_RKNS_6localeE ; -- Begin function _ZNSt3__19use_facetB6v15006INS_5ctypeIcEEEERKT_RKNS_6localeE
	.globl	__ZNSt3__19use_facetB6v15006INS_5ctypeIcEEEERKT_RKNS_6localeE
	.weak_definition	__ZNSt3__19use_facetB6v15006INS_5ctypeIcEEEERKT_RKNS_6localeE
	.p2align	2
__ZNSt3__19use_facetB6v15006INS_5ctypeIcEEEERKT_RKNS_6localeE: ; @_ZNSt3__19use_facetB6v15006INS_5ctypeIcEEEERKT_RKNS_6localeE
	.cfi_startproc
; %bb.0:
	sub	sp, sp, #32
	.cfi_def_cfa_offset 32
	stp	x29, x30, [sp, #16]             ; 16-byte Folded Spill
	add	x29, sp, #16
	.cfi_def_cfa w29, 16
	.cfi_offset w30, -8
	.cfi_offset w29, -16
	str	x0, [sp, #8]
	ldr	x0, [sp, #8]
	adrp	x1, __ZNSt3__15ctypeIcE2idE@GOTPAGE
	ldr	x1, [x1, __ZNSt3__15ctypeIcE2idE@GOTPAGEOFF]
	bl	__ZNKSt3__16locale9use_facetERNS0_2idE
	ldp	x29, x30, [sp, #16]             ; 16-byte Folded Reload
	add	sp, sp, #32
	ret
	.cfi_endproc
                                        ; -- End function
	.private_extern	__ZNKSt3__15ctypeIcE5widenB6v15006Ec ; -- Begin function _ZNKSt3__15ctypeIcE5widenB6v15006Ec
	.globl	__ZNKSt3__15ctypeIcE5widenB6v15006Ec
	.weak_definition	__ZNKSt3__15ctypeIcE5widenB6v15006Ec
	.p2align	2
__ZNKSt3__15ctypeIcE5widenB6v15006Ec:   ; @_ZNKSt3__15ctypeIcE5widenB6v15006Ec
	.cfi_startproc
; %bb.0:
	sub	sp, sp, #32
	.cfi_def_cfa_offset 32
	stp	x29, x30, [sp, #16]             ; 16-byte Folded Spill
	add	x29, sp, #16
	.cfi_def_cfa w29, 16
	.cfi_offset w30, -8
	.cfi_offset w29, -16
	str	x0, [sp, #8]
	strb	w1, [sp, #7]
	ldr	x0, [sp, #8]
	ldrsb	w1, [sp, #7]
	ldr	x8, [x0]
	ldr	x8, [x8, #56]
	blr	x8
	sxtb	w0, w0
	ldp	x29, x30, [sp, #16]             ; 16-byte Folded Reload
	add	sp, sp, #32
	ret
	.cfi_endproc
                                        ; -- End function
	.private_extern	__ZNSt3__18ios_base8setstateB6v15006Ej ; -- Begin function _ZNSt3__18ios_base8setstateB6v15006Ej
	.globl	__ZNSt3__18ios_base8setstateB6v15006Ej
	.weak_definition	__ZNSt3__18ios_base8setstateB6v15006Ej
	.p2align	2
__ZNSt3__18ios_base8setstateB6v15006Ej: ; @_ZNSt3__18ios_base8setstateB6v15006Ej
	.cfi_startproc
; %bb.0:
	sub	sp, sp, #32
	.cfi_def_cfa_offset 32
	stp	x29, x30, [sp, #16]             ; 16-byte Folded Spill
	add	x29, sp, #16
	.cfi_def_cfa w29, 16
	.cfi_offset w30, -8
	.cfi_offset w29, -16
	str	x0, [sp, #8]
	str	w1, [sp, #4]
	ldr	x0, [sp, #8]
	ldr	w8, [x0, #32]
	ldr	w9, [sp, #4]
	orr	w1, w8, w9
	bl	__ZNSt3__18ios_base5clearEj
	ldp	x29, x30, [sp, #16]             ; 16-byte Folded Reload
	add	sp, sp, #32
	ret
	.cfi_endproc
                                        ; -- End function
	.private_extern	__ZNKSt3__112basic_stringIcNS_11char_traitsIcEENS_9allocatorIcEEE4dataB6v15006Ev ; -- Begin function _ZNKSt3__112basic_stringIcNS_11char_traitsIcEENS_9allocatorIcEEE4dataB6v15006Ev
	.globl	__ZNKSt3__112basic_stringIcNS_11char_traitsIcEENS_9allocatorIcEEE4dataB6v15006Ev
	.weak_definition	__ZNKSt3__112basic_stringIcNS_11char_traitsIcEENS_9allocatorIcEEE4dataB6v15006Ev
	.p2align	2
__ZNKSt3__112basic_stringIcNS_11char_traitsIcEENS_9allocatorIcEEE4dataB6v15006Ev: ; @_ZNKSt3__112basic_stringIcNS_11char_traitsIcEENS_9allocatorIcEEE4dataB6v15006Ev
	.cfi_startproc
; %bb.0:
	sub	sp, sp, #32
	.cfi_def_cfa_offset 32
	stp	x29, x30, [sp, #16]             ; 16-byte Folded Spill
	add	x29, sp, #16
	.cfi_def_cfa w29, 16
	.cfi_offset w30, -8
	.cfi_offset w29, -16
	str	x0, [sp, #8]
	ldr	x0, [sp, #8]
	bl	__ZNKSt3__112basic_stringIcNS_11char_traitsIcEENS_9allocatorIcEEE13__get_pointerB6v15006Ev
	bl	__ZNSt3__112__to_addressB6v15006IKcEEPT_S3_
	ldp	x29, x30, [sp, #16]             ; 16-byte Folded Reload
	add	sp, sp, #32
	ret
	.cfi_endproc
                                        ; -- End function
	.private_extern	__ZNSt3__112__to_addressB6v15006IKcEEPT_S3_ ; -- Begin function _ZNSt3__112__to_addressB6v15006IKcEEPT_S3_
	.globl	__ZNSt3__112__to_addressB6v15006IKcEEPT_S3_
	.weak_definition	__ZNSt3__112__to_addressB6v15006IKcEEPT_S3_
	.p2align	2
__ZNSt3__112__to_addressB6v15006IKcEEPT_S3_: ; @_ZNSt3__112__to_addressB6v15006IKcEEPT_S3_
	.cfi_startproc
; %bb.0:
	sub	sp, sp, #16
	.cfi_def_cfa_offset 16
	str	x0, [sp, #8]
	ldr	x0, [sp, #8]
	add	sp, sp, #16
	ret
	.cfi_endproc
                                        ; -- End function
	.private_extern	__ZNKSt3__112basic_stringIcNS_11char_traitsIcEENS_9allocatorIcEEE13__get_pointerB6v15006Ev ; -- Begin function _ZNKSt3__112basic_stringIcNS_11char_traitsIcEENS_9allocatorIcEEE13__get_pointerB6v15006Ev
	.globl	__ZNKSt3__112basic_stringIcNS_11char_traitsIcEENS_9allocatorIcEEE13__get_pointerB6v15006Ev
	.weak_definition	__ZNKSt3__112basic_stringIcNS_11char_traitsIcEENS_9allocatorIcEEE13__get_pointerB6v15006Ev
	.p2align	2
__ZNKSt3__112basic_stringIcNS_11char_traitsIcEENS_9allocatorIcEEE13__get_pointerB6v15006Ev: ; @_ZNKSt3__112basic_stringIcNS_11char_traitsIcEENS_9allocatorIcEEE13__get_pointerB6v15006Ev
	.cfi_startproc
; %bb.0:
	sub	sp, sp, #48
	.cfi_def_cfa_offset 48
	stp	x29, x30, [sp, #32]             ; 16-byte Folded Spill
	add	x29, sp, #32
	.cfi_def_cfa w29, 16
	.cfi_offset w30, -8
	.cfi_offset w29, -16
	stur	x0, [x29, #-8]
	ldur	x0, [x29, #-8]
	str	x0, [sp, #16]                   ; 8-byte Folded Spill
	bl	__ZNKSt3__112basic_stringIcNS_11char_traitsIcEENS_9allocatorIcEEE9__is_longB6v15006Ev
	tbz	w0, #0, LBB166_2
	b	LBB166_1
LBB166_1:
	ldr	x0, [sp, #16]                   ; 8-byte Folded Reload
	bl	__ZNKSt3__112basic_stringIcNS_11char_traitsIcEENS_9allocatorIcEEE18__get_long_pointerB6v15006Ev
	str	x0, [sp, #8]                    ; 8-byte Folded Spill
	b	LBB166_3
LBB166_2:
	ldr	x0, [sp, #16]                   ; 8-byte Folded Reload
	bl	__ZNKSt3__112basic_stringIcNS_11char_traitsIcEENS_9allocatorIcEEE19__get_short_pointerB6v15006Ev
	str	x0, [sp, #8]                    ; 8-byte Folded Spill
	b	LBB166_3
LBB166_3:
	ldr	x0, [sp, #8]                    ; 8-byte Folded Reload
	ldp	x29, x30, [sp, #32]             ; 16-byte Folded Reload
	add	sp, sp, #48
	ret
	.cfi_endproc
                                        ; -- End function
	.private_extern	__ZNKSt3__112basic_stringIcNS_11char_traitsIcEENS_9allocatorIcEEE18__get_long_pointerB6v15006Ev ; -- Begin function _ZNKSt3__112basic_stringIcNS_11char_traitsIcEENS_9allocatorIcEEE18__get_long_pointerB6v15006Ev
	.globl	__ZNKSt3__112basic_stringIcNS_11char_traitsIcEENS_9allocatorIcEEE18__get_long_pointerB6v15006Ev
	.weak_definition	__ZNKSt3__112basic_stringIcNS_11char_traitsIcEENS_9allocatorIcEEE18__get_long_pointerB6v15006Ev
	.p2align	2
__ZNKSt3__112basic_stringIcNS_11char_traitsIcEENS_9allocatorIcEEE18__get_long_pointerB6v15006Ev: ; @_ZNKSt3__112basic_stringIcNS_11char_traitsIcEENS_9allocatorIcEEE18__get_long_pointerB6v15006Ev
	.cfi_startproc
; %bb.0:
	sub	sp, sp, #32
	.cfi_def_cfa_offset 32
	stp	x29, x30, [sp, #16]             ; 16-byte Folded Spill
	add	x29, sp, #16
	.cfi_def_cfa w29, 16
	.cfi_offset w30, -8
	.cfi_offset w29, -16
	str	x0, [sp, #8]
	ldr	x0, [sp, #8]
	bl	__ZNKSt3__117__compressed_pairINS_12basic_stringIcNS_11char_traitsIcEENS_9allocatorIcEEE5__repES5_E5firstB6v15006Ev
	ldr	x0, [x0]
	ldp	x29, x30, [sp, #16]             ; 16-byte Folded Reload
	add	sp, sp, #32
	ret
	.cfi_endproc
                                        ; -- End function
	.private_extern	__ZNKSt3__112basic_stringIcNS_11char_traitsIcEENS_9allocatorIcEEE19__get_short_pointerB6v15006Ev ; -- Begin function _ZNKSt3__112basic_stringIcNS_11char_traitsIcEENS_9allocatorIcEEE19__get_short_pointerB6v15006Ev
	.globl	__ZNKSt3__112basic_stringIcNS_11char_traitsIcEENS_9allocatorIcEEE19__get_short_pointerB6v15006Ev
	.weak_definition	__ZNKSt3__112basic_stringIcNS_11char_traitsIcEENS_9allocatorIcEEE19__get_short_pointerB6v15006Ev
	.p2align	2
__ZNKSt3__112basic_stringIcNS_11char_traitsIcEENS_9allocatorIcEEE19__get_short_pointerB6v15006Ev: ; @_ZNKSt3__112basic_stringIcNS_11char_traitsIcEENS_9allocatorIcEEE19__get_short_pointerB6v15006Ev
	.cfi_startproc
; %bb.0:
	sub	sp, sp, #32
	.cfi_def_cfa_offset 32
	stp	x29, x30, [sp, #16]             ; 16-byte Folded Spill
	add	x29, sp, #16
	.cfi_def_cfa w29, 16
	.cfi_offset w30, -8
	.cfi_offset w29, -16
	str	x0, [sp, #8]
	ldr	x0, [sp, #8]
	bl	__ZNKSt3__117__compressed_pairINS_12basic_stringIcNS_11char_traitsIcEENS_9allocatorIcEEE5__repES5_E5firstB6v15006Ev
	bl	__ZNSt3__114pointer_traitsIPKcE10pointer_toB6v15006ERS1_
	ldp	x29, x30, [sp, #16]             ; 16-byte Folded Reload
	add	sp, sp, #32
	ret
	.cfi_endproc
                                        ; -- End function
	.private_extern	__ZNSt3__114pointer_traitsIPKcE10pointer_toB6v15006ERS1_ ; -- Begin function _ZNSt3__114pointer_traitsIPKcE10pointer_toB6v15006ERS1_
	.globl	__ZNSt3__114pointer_traitsIPKcE10pointer_toB6v15006ERS1_
	.weak_definition	__ZNSt3__114pointer_traitsIPKcE10pointer_toB6v15006ERS1_
	.p2align	2
__ZNSt3__114pointer_traitsIPKcE10pointer_toB6v15006ERS1_: ; @_ZNSt3__114pointer_traitsIPKcE10pointer_toB6v15006ERS1_
	.cfi_startproc
; %bb.0:
	sub	sp, sp, #16
	.cfi_def_cfa_offset 16
	str	x0, [sp, #8]
	ldr	x0, [sp, #8]
	add	sp, sp, #16
	ret
	.cfi_endproc
                                        ; -- End function
	.section	__DATA,__data
	.globl	_height                         ; @height
	.p2align	2
_height:
	.long	500                             ; 0x1f4

	.globl	_width                          ; @width
	.p2align	2
_width:
	.long	500                             ; 0x1f4

	.section	__TEXT,__const
	.p2align	1                               ; @_ZN3map3clrL5WHITEE
__ZN3map3clrL5WHITEE:
	.short	255                             ; 0xff
	.short	255                             ; 0xff
	.short	255                             ; 0xff

	.section	__TEXT,__cstring,cstring_literals
l_.str:                                 ; @.str
	.asciz	"image"

l_.str.1:                               ; @.str.1
	.asciz	"e"

l_.str.2:                               ; @.str.2
	.asciz	"edit"

l_.str.3:                               ; @.str.3
	.asciz	"video"

l___func__._Z5setupiPPcRNSt3__112basic_stringIcNS1_11char_traitsIcEENS1_9allocatorIcEEEERiS9_S9_RN3map8LoadtypeEb: ; @__func__._Z5setupiPPcRNSt3__112basic_stringIcNS1_11char_traitsIcEENS1_9allocatorIcEEEERiS9_S9_RN3map8LoadtypeEb
	.asciz	"setup"

l_.str.4:                               ; @.str.4
	.asciz	"main.cpp"

l_.str.5:                               ; @.str.5
	.asciz	"argc > 4"

l_.str.6:                               ; @.str.6
	.asciz	"def"

l_.str.7:                               ; @.str.7
	.asciz	"res.mp4"

l_.str.8:                               ; @.str.8
	.asciz	"output.ppm"

l_.str.9:                               ; @.str.9
	.asciz	"ARGC: "

l_.str.10:                              ; @.str.10
	.asciz	"argv["

l_.str.11:                              ; @.str.11
	.asciz	"]: "

l_.str.12:                              ; @.str.12
	.asciz	"filename: "

l_.str.13:                              ; @.str.13
	.asciz	"Performance time: "

l_.str.14:                              ; @.str.14
	.asciz	"ms\n"

	.section	__DATA,__const
	.globl	__ZTVN3map6shapes5ShapeE        ; @_ZTVN3map6shapes5ShapeE
	.weak_def_can_be_hidden	__ZTVN3map6shapes5ShapeE
	.p2align	3
__ZTVN3map6shapes5ShapeE:
	.quad	0
	.quad	__ZTIN3map6shapes5ShapeE
	.quad	___cxa_pure_virtual
	.quad	___cxa_pure_virtual
	.quad	___cxa_pure_virtual
	.quad	___cxa_pure_virtual
	.quad	__ZN3map6shapes5ShapeD1Ev
	.quad	__ZN3map6shapes5ShapeD0Ev
	.quad	___cxa_pure_virtual

	.private_extern	__ZTSN3map6shapes5ShapeE ; @_ZTSN3map6shapes5ShapeE
	.section	__TEXT,__const
	.globl	__ZTSN3map6shapes5ShapeE
	.weak_definition	__ZTSN3map6shapes5ShapeE
__ZTSN3map6shapes5ShapeE:
