	.section	__TEXT,__text,regular,pure_instructions
	.build_version macos, 13, 0	sdk_version 13, 3
	.globl	__Z8isNumberNSt3__112basic_stringIcNS_11char_traitsIcEENS_9allocatorIcEEEE ; -- Begin function _Z8isNumberNSt3__112basic_stringIcNS_11char_traitsIcEENS_9allocatorIcEEEE
	.p2align	2
__Z8isNumberNSt3__112basic_stringIcNS_11char_traitsIcEENS_9allocatorIcEEEE: ; @_Z8isNumberNSt3__112basic_stringIcNS_11char_traitsIcEENS_9allocatorIcEEEE
	.cfi_startproc
; %bb.0:
	sub	sp, sp, #64
	.cfi_def_cfa_offset 64
	stp	x29, x30, [sp, #48]             ; 16-byte Folded Spill
	add	x29, sp, #48
	.cfi_def_cfa w29, 16
	.cfi_offset w30, -8
	.cfi_offset w29, -16
	stur	x0, [x29, #-16]
	ldur	x0, [x29, #-16]
	bl	__ZNSt3__112basic_stringIcNS_11char_traitsIcEENS_9allocatorIcEEE5beginB6v15006Ev
	str	x0, [sp, #24]
	ldur	x0, [x29, #-16]
	bl	__ZNSt3__112basic_stringIcNS_11char_traitsIcEENS_9allocatorIcEEE3endB6v15006Ev
	str	x0, [sp, #16]
	b	LBB0_1
LBB0_1:                                 ; =>This Inner Loop Header: Depth=1
	add	x0, sp, #24
	add	x1, sp, #16
	bl	__ZNSt3__1neB6v15006IPcEEbRKNS_11__wrap_iterIT_EES6_
	tbz	w0, #0, LBB0_6
	b	LBB0_2
LBB0_2:                                 ;   in Loop: Header=BB0_1 Depth=1
	add	x0, sp, #24
	bl	__ZNKSt3__111__wrap_iterIPcEdeB6v15006Ev
	str	x0, [sp, #8]
	ldr	x8, [sp, #8]
	ldrsb	w0, [x8]
	bl	__Z7isdigiti
	subs	w8, w0, #0
	cset	w8, ne
	tbnz	w8, #0, LBB0_4
	b	LBB0_3
LBB0_3:
	mov	w8, #0
	and	w8, w8, #0x1
	and	w8, w8, #0x1
	sturb	w8, [x29, #-1]
	b	LBB0_7
LBB0_4:                                 ;   in Loop: Header=BB0_1 Depth=1
	b	LBB0_5
LBB0_5:                                 ;   in Loop: Header=BB0_1 Depth=1
	add	x0, sp, #24
	bl	__ZNSt3__111__wrap_iterIPcEppB6v15006Ev
	b	LBB0_1
LBB0_6:
	mov	w8, #1
	and	w8, w8, #0x1
	and	w8, w8, #0x1
	sturb	w8, [x29, #-1]
	b	LBB0_7
LBB0_7:
	ldurb	w8, [x29, #-1]
	and	w0, w8, #0x1
	ldp	x29, x30, [sp, #48]             ; 16-byte Folded Reload
	add	sp, sp, #64
	ret
	.cfi_endproc
                                        ; -- End function
	.private_extern	__ZNSt3__112basic_stringIcNS_11char_traitsIcEENS_9allocatorIcEEE5beginB6v15006Ev ; -- Begin function _ZNSt3__112basic_stringIcNS_11char_traitsIcEENS_9allocatorIcEEE5beginB6v15006Ev
	.globl	__ZNSt3__112basic_stringIcNS_11char_traitsIcEENS_9allocatorIcEEE5beginB6v15006Ev
	.weak_definition	__ZNSt3__112basic_stringIcNS_11char_traitsIcEENS_9allocatorIcEEE5beginB6v15006Ev
	.p2align	2
__ZNSt3__112basic_stringIcNS_11char_traitsIcEENS_9allocatorIcEEE5beginB6v15006Ev: ; @_ZNSt3__112basic_stringIcNS_11char_traitsIcEENS_9allocatorIcEEE5beginB6v15006Ev
	.cfi_startproc
; %bb.0:
	sub	sp, sp, #48
	.cfi_def_cfa_offset 48
	stp	x29, x30, [sp, #32]             ; 16-byte Folded Spill
	add	x29, sp, #32
	.cfi_def_cfa w29, 16
	.cfi_offset w30, -8
	.cfi_offset w29, -16
	str	x0, [sp, #16]
	ldr	x0, [sp, #16]
	str	x0, [sp, #8]                    ; 8-byte Folded Spill
	bl	__ZNSt3__112basic_stringIcNS_11char_traitsIcEENS_9allocatorIcEEE13__get_pointerB6v15006Ev
	ldr	x1, [sp, #8]                    ; 8-byte Folded Reload
	mov	x2, x0
	sub	x0, x29, #8
	bl	__ZNSt3__111__wrap_iterIPcEC1B6v15006EPKvS1_
	ldur	x0, [x29, #-8]
	ldp	x29, x30, [sp, #32]             ; 16-byte Folded Reload
	add	sp, sp, #48
	ret
	.cfi_endproc
                                        ; -- End function
	.private_extern	__ZNSt3__112basic_stringIcNS_11char_traitsIcEENS_9allocatorIcEEE3endB6v15006Ev ; -- Begin function _ZNSt3__112basic_stringIcNS_11char_traitsIcEENS_9allocatorIcEEE3endB6v15006Ev
	.globl	__ZNSt3__112basic_stringIcNS_11char_traitsIcEENS_9allocatorIcEEE3endB6v15006Ev
	.weak_definition	__ZNSt3__112basic_stringIcNS_11char_traitsIcEENS_9allocatorIcEEE3endB6v15006Ev
	.p2align	2
__ZNSt3__112basic_stringIcNS_11char_traitsIcEENS_9allocatorIcEEE3endB6v15006Ev: ; @_ZNSt3__112basic_stringIcNS_11char_traitsIcEENS_9allocatorIcEEE3endB6v15006Ev
	.cfi_startproc
; %bb.0:
	sub	sp, sp, #48
	.cfi_def_cfa_offset 48
	stp	x29, x30, [sp, #32]             ; 16-byte Folded Spill
	add	x29, sp, #32
	.cfi_def_cfa w29, 16
	.cfi_offset w30, -8
	.cfi_offset w29, -16
	str	x0, [sp, #16]
	ldr	x0, [sp, #16]
	str	x0, [sp]                        ; 8-byte Folded Spill
	bl	__ZNSt3__112basic_stringIcNS_11char_traitsIcEENS_9allocatorIcEEE13__get_pointerB6v15006Ev
	mov	x8, x0
	ldr	x0, [sp]                        ; 8-byte Folded Reload
	str	x8, [sp, #8]                    ; 8-byte Folded Spill
	bl	__ZNKSt3__112basic_stringIcNS_11char_traitsIcEENS_9allocatorIcEEE4sizeB6v15006Ev
	ldr	x1, [sp]                        ; 8-byte Folded Reload
	ldr	x8, [sp, #8]                    ; 8-byte Folded Reload
	mov	x9, x0
	sub	x0, x29, #8
	add	x2, x8, x9
	bl	__ZNSt3__111__wrap_iterIPcEC1B6v15006EPKvS1_
	ldur	x0, [x29, #-8]
	ldp	x29, x30, [sp, #32]             ; 16-byte Folded Reload
	add	sp, sp, #48
	ret
	.cfi_endproc
                                        ; -- End function
	.private_extern	__ZNSt3__1neB6v15006IPcEEbRKNS_11__wrap_iterIT_EES6_ ; -- Begin function _ZNSt3__1neB6v15006IPcEEbRKNS_11__wrap_iterIT_EES6_
	.globl	__ZNSt3__1neB6v15006IPcEEbRKNS_11__wrap_iterIT_EES6_
	.weak_definition	__ZNSt3__1neB6v15006IPcEEbRKNS_11__wrap_iterIT_EES6_
	.p2align	2
__ZNSt3__1neB6v15006IPcEEbRKNS_11__wrap_iterIT_EES6_: ; @_ZNSt3__1neB6v15006IPcEEbRKNS_11__wrap_iterIT_EES6_
	.cfi_startproc
; %bb.0:
	sub	sp, sp, #32
	.cfi_def_cfa_offset 32
	stp	x29, x30, [sp, #16]             ; 16-byte Folded Spill
	add	x29, sp, #16
	.cfi_def_cfa w29, 16
	.cfi_offset w30, -8
	.cfi_offset w29, -16
	str	x0, [sp, #8]
	str	x1, [sp]
	ldr	x0, [sp, #8]
	ldr	x1, [sp]
	bl	__ZNSt3__1eqB6v15006IPcEEbRKNS_11__wrap_iterIT_EES6_
	eor	w8, w0, #0x1
	and	w0, w8, #0x1
	ldp	x29, x30, [sp, #16]             ; 16-byte Folded Reload
	add	sp, sp, #32
	ret
	.cfi_endproc
                                        ; -- End function
	.private_extern	__ZNKSt3__111__wrap_iterIPcEdeB6v15006Ev ; -- Begin function _ZNKSt3__111__wrap_iterIPcEdeB6v15006Ev
	.globl	__ZNKSt3__111__wrap_iterIPcEdeB6v15006Ev
	.weak_definition	__ZNKSt3__111__wrap_iterIPcEdeB6v15006Ev
	.p2align	2
__ZNKSt3__111__wrap_iterIPcEdeB6v15006Ev: ; @_ZNKSt3__111__wrap_iterIPcEdeB6v15006Ev
	.cfi_startproc
; %bb.0:
	sub	sp, sp, #16
	.cfi_def_cfa_offset 16
	str	x0, [sp, #8]
	ldr	x8, [sp, #8]
	ldr	x0, [x8]
	add	sp, sp, #16
	ret
	.cfi_endproc
                                        ; -- End function
	.globl	__Z7isdigiti                    ; -- Begin function _Z7isdigiti
	.weak_definition	__Z7isdigiti
	.p2align	2
__Z7isdigiti:                           ; @_Z7isdigiti
	.cfi_startproc
; %bb.0:
	sub	sp, sp, #32
	.cfi_def_cfa_offset 32
	stp	x29, x30, [sp, #16]             ; 16-byte Folded Spill
	add	x29, sp, #16
	.cfi_def_cfa w29, 16
	.cfi_offset w30, -8
	.cfi_offset w29, -16
	stur	w0, [x29, #-4]
	ldur	w0, [x29, #-4]
	mov	x1, #1024
	bl	__Z9__isctypeim
	ldp	x29, x30, [sp, #16]             ; 16-byte Folded Reload
	add	sp, sp, #32
	ret
	.cfi_endproc
                                        ; -- End function
	.private_extern	__ZNSt3__111__wrap_iterIPcEppB6v15006Ev ; -- Begin function _ZNSt3__111__wrap_iterIPcEppB6v15006Ev
	.globl	__ZNSt3__111__wrap_iterIPcEppB6v15006Ev
	.weak_definition	__ZNSt3__111__wrap_iterIPcEppB6v15006Ev
	.p2align	2
__ZNSt3__111__wrap_iterIPcEppB6v15006Ev: ; @_ZNSt3__111__wrap_iterIPcEppB6v15006Ev
	.cfi_startproc
; %bb.0:
	sub	sp, sp, #16
	.cfi_def_cfa_offset 16
	str	x0, [sp, #8]
	ldr	x0, [sp, #8]
	ldr	x8, [x0]
	add	x8, x8, #1
	str	x8, [x0]
	add	sp, sp, #16
	ret
	.cfi_endproc
                                        ; -- End function
	.globl	__Z8isValidPNSt3__112basic_stringIcNS_11char_traitsIcEENS_9allocatorIcEEEE ; -- Begin function _Z8isValidPNSt3__112basic_stringIcNS_11char_traitsIcEENS_9allocatorIcEEEE
	.p2align	2
__Z8isValidPNSt3__112basic_stringIcNS_11char_traitsIcEENS_9allocatorIcEEEE: ; @_Z8isValidPNSt3__112basic_stringIcNS_11char_traitsIcEENS_9allocatorIcEEEE
	.cfi_startproc
; %bb.0:
	sub	sp, sp, #32
	.cfi_def_cfa_offset 32
	stp	x29, x30, [sp, #16]             ; 16-byte Folded Spill
	add	x29, sp, #16
	.cfi_def_cfa w29, 16
	.cfi_offset w30, -8
	.cfi_offset w29, -16
	str	x0, [sp]                        ; 8-byte Folded Spill
	adrp	x1, l_.str@PAGE
	add	x1, x1, l_.str@PAGEOFF
	bl	__ZNSt3__1eqB6v15006IcNS_11char_traitsIcEENS_9allocatorIcEEEEbRKNS_12basic_stringIT_T0_T1_EEPKS6_
	mov	w8, #1
	stur	w8, [x29, #-4]                  ; 4-byte Folded Spill
	tbnz	w0, #0, LBB7_3
	b	LBB7_1
LBB7_1:
	ldr	x0, [sp]                        ; 8-byte Folded Reload
	adrp	x1, l_.str.1@PAGE
	add	x1, x1, l_.str.1@PAGEOFF
	bl	__ZNSt3__1eqB6v15006IcNS_11char_traitsIcEENS_9allocatorIcEEEEbRKNS_12basic_stringIT_T0_T1_EEPKS6_
	mov	w8, #1
	stur	w8, [x29, #-4]                  ; 4-byte Folded Spill
	tbnz	w0, #0, LBB7_3
	b	LBB7_2
LBB7_2:
	ldr	x0, [sp]                        ; 8-byte Folded Reload
	adrp	x1, l_.str.2@PAGE
	add	x1, x1, l_.str.2@PAGEOFF
	bl	__ZNSt3__1eqB6v15006IcNS_11char_traitsIcEENS_9allocatorIcEEEEbRKNS_12basic_stringIT_T0_T1_EEPKS6_
	stur	w0, [x29, #-4]                  ; 4-byte Folded Spill
	b	LBB7_3
LBB7_3:
	ldur	w8, [x29, #-4]                  ; 4-byte Folded Reload
	and	w0, w8, #0x1
	ldp	x29, x30, [sp, #16]             ; 16-byte Folded Reload
	add	sp, sp, #32
	ret
	.cfi_endproc
                                        ; -- End function
	.private_extern	__ZNSt3__1eqB6v15006IcNS_11char_traitsIcEENS_9allocatorIcEEEEbRKNS_12basic_stringIT_T0_T1_EEPKS6_ ; -- Begin function _ZNSt3__1eqB6v15006IcNS_11char_traitsIcEENS_9allocatorIcEEEEbRKNS_12basic_stringIT_T0_T1_EEPKS6_
	.globl	__ZNSt3__1eqB6v15006IcNS_11char_traitsIcEENS_9allocatorIcEEEEbRKNS_12basic_stringIT_T0_T1_EEPKS6_
	.weak_definition	__ZNSt3__1eqB6v15006IcNS_11char_traitsIcEENS_9allocatorIcEEEEbRKNS_12basic_stringIT_T0_T1_EEPKS6_
	.p2align	2
__ZNSt3__1eqB6v15006IcNS_11char_traitsIcEENS_9allocatorIcEEEEbRKNS_12basic_stringIT_T0_T1_EEPKS6_: ; @_ZNSt3__1eqB6v15006IcNS_11char_traitsIcEENS_9allocatorIcEEEEbRKNS_12basic_stringIT_T0_T1_EEPKS6_
Lfunc_begin0:
	.cfi_startproc
	.cfi_personality 155, ___gxx_personality_v0
	.cfi_lsda 16, Lexception0
; %bb.0:
	sub	sp, sp, #64
	.cfi_def_cfa_offset 64
	stp	x29, x30, [sp, #48]             ; 16-byte Folded Spill
	add	x29, sp, #48
	.cfi_def_cfa w29, 16
	.cfi_offset w30, -8
	.cfi_offset w29, -16
	stur	x0, [x29, #-16]
	str	x1, [sp, #24]
	ldr	x0, [sp, #24]
	bl	__ZNSt3__111char_traitsIcE6lengthEPKc
	str	x0, [sp, #16]
	ldr	x8, [sp, #16]
	str	x8, [sp, #8]                    ; 8-byte Folded Spill
	ldur	x0, [x29, #-16]
	bl	__ZNKSt3__112basic_stringIcNS_11char_traitsIcEENS_9allocatorIcEEE4sizeB6v15006Ev
	ldr	x8, [sp, #8]                    ; 8-byte Folded Reload
	subs	x8, x8, x0
	cset	w8, eq
	tbnz	w8, #0, LBB8_2
	b	LBB8_1
LBB8_1:
	mov	w8, #0
	and	w8, w8, #0x1
	and	w8, w8, #0x1
	sturb	w8, [x29, #-1]
	b	LBB8_4
LBB8_2:
	ldur	x0, [x29, #-16]
	ldr	x3, [sp, #24]
	ldr	x4, [sp, #16]
Ltmp2:
	mov	x1, #0
	mov	x2, #-1
	bl	__ZNKSt3__112basic_stringIcNS_11char_traitsIcEENS_9allocatorIcEEE7compareEmmPKcm
	str	w0, [sp, #4]                    ; 4-byte Folded Spill
Ltmp3:
	b	LBB8_3
LBB8_3:
	ldr	w8, [sp, #4]                    ; 4-byte Folded Reload
	subs	w8, w8, #0
	cset	w8, eq
	and	w8, w8, #0x1
	and	w8, w8, #0x1
	sturb	w8, [x29, #-1]
	b	LBB8_4
LBB8_4:
	ldurb	w8, [x29, #-1]
	and	w0, w8, #0x1
	ldp	x29, x30, [sp, #48]             ; 16-byte Folded Reload
	add	sp, sp, #64
	ret
LBB8_5:
Ltmp4:
	bl	___clang_call_terminate
Lfunc_end0:
	.cfi_endproc
	.section	__TEXT,__gcc_except_tab
	.p2align	2
GCC_except_table8:
Lexception0:
	.byte	255                             ; @LPStart Encoding = omit
	.byte	155                             ; @TType Encoding = indirect pcrel sdata4
	.uleb128 Lttbase0-Lttbaseref0
Lttbaseref0:
	.byte	1                               ; Call site Encoding = uleb128
	.uleb128 Lcst_end0-Lcst_begin0
Lcst_begin0:
	.uleb128 Ltmp2-Lfunc_begin0             ; >> Call Site 1 <<
	.uleb128 Ltmp3-Ltmp2                    ;   Call between Ltmp2 and Ltmp3
	.uleb128 Ltmp4-Lfunc_begin0             ;     jumps to Ltmp4
	.byte	1                               ;   On action: 1
Lcst_end0:
	.byte	1                               ; >> Action Record 1 <<
                                        ;   Catch TypeInfo 1
	.byte	0                               ;   No further actions
	.p2align	2
                                        ; >> Catch TypeInfos <<
	.long	0                               ; TypeInfo 1
Lttbase0:
	.p2align	2
                                        ; -- End function
	.section	__TEXT,__text,regular,pure_instructions
	.globl	__Z13isValidHeighti             ; -- Begin function _Z13isValidHeighti
	.p2align	2
__Z13isValidHeighti:                    ; @_Z13isValidHeighti
	.cfi_startproc
; %bb.0:
	sub	sp, sp, #16
	.cfi_def_cfa_offset 16
	str	w0, [sp, #12]
	ldr	w8, [sp, #12]
	subs	w8, w8, #1
	cset	w8, ge
	and	w0, w8, #0x1
	add	sp, sp, #16
	ret
	.cfi_endproc
                                        ; -- End function
	.globl	__Z12isValidWidthi              ; -- Begin function _Z12isValidWidthi
	.p2align	2
__Z12isValidWidthi:                     ; @_Z12isValidWidthi
	.cfi_startproc
; %bb.0:
	sub	sp, sp, #16
	.cfi_def_cfa_offset 16
	str	w0, [sp, #12]
	ldr	w8, [sp, #12]
	subs	w8, w8, #1
	cset	w8, ge
	and	w0, w8, #0x1
	add	sp, sp, #16
	ret
	.cfi_endproc
                                        ; -- End function
	.globl	__Z10isValidMaxi                ; -- Begin function _Z10isValidMaxi
	.p2align	2
__Z10isValidMaxi:                       ; @_Z10isValidMaxi
	.cfi_startproc
; %bb.0:
	sub	sp, sp, #16
	.cfi_def_cfa_offset 16
	str	w0, [sp, #12]
	ldr	w8, [sp, #12]
	subs	w8, w8, #255
	cset	w8, le
	and	w0, w8, #0x1
	add	sp, sp, #16
	ret
	.cfi_endproc
                                        ; -- End function
	.globl	__Z8areValidNSt3__112basic_stringIcNS_11char_traitsIcEENS_9allocatorIcEEEES5_iii ; -- Begin function _Z8areValidNSt3__112basic_stringIcNS_11char_traitsIcEENS_9allocatorIcEEEES5_iii
	.p2align	2
__Z8areValidNSt3__112basic_stringIcNS_11char_traitsIcEENS_9allocatorIcEEEES5_iii: ; @_Z8areValidNSt3__112basic_stringIcNS_11char_traitsIcEENS_9allocatorIcEEEES5_iii
	.cfi_startproc
; %bb.0:
	sub	sp, sp, #80
	.cfi_def_cfa_offset 80
	stp	x29, x30, [sp, #64]             ; 16-byte Folded Spill
	add	x29, sp, #64
	.cfi_def_cfa w29, 16
	.cfi_offset w30, -8
	.cfi_offset w29, -16
	stur	w2, [x29, #-4]
	stur	w3, [x29, #-8]
	stur	w4, [x29, #-12]
	add	x0, sp, #24
	str	x0, [sp, #8]                    ; 8-byte Folded Spill
	bl	__ZNSt3__112basic_stringIcNS_11char_traitsIcEENS_9allocatorIcEEEC1ERKS5_
	ldr	x0, [sp, #8]                    ; 8-byte Folded Reload
	bl	__Z8isValidPNSt3__112basic_stringIcNS_11char_traitsIcEENS_9allocatorIcEEEE
	mov	w8, #0
	str	w8, [sp, #20]                   ; 4-byte Folded Spill
	tbz	w0, #0, LBB12_4
	b	LBB12_1
LBB12_1:
	ldur	w0, [x29, #-4]
	bl	__Z13isValidHeighti
	mov	w8, #0
	str	w8, [sp, #20]                   ; 4-byte Folded Spill
	tbz	w0, #0, LBB12_4
	b	LBB12_2
LBB12_2:
	ldur	w0, [x29, #-8]
	bl	__Z12isValidWidthi
	mov	w8, #0
	str	w8, [sp, #20]                   ; 4-byte Folded Spill
	tbz	w0, #0, LBB12_4
	b	LBB12_3
LBB12_3:
	ldur	w0, [x29, #-12]
	bl	__Z10isValidMaxi
	str	w0, [sp, #20]                   ; 4-byte Folded Spill
	b	LBB12_4
LBB12_4:
	ldr	w8, [sp, #20]                   ; 4-byte Folded Reload
	str	w8, [sp, #4]                    ; 4-byte Folded Spill
	add	x0, sp, #24
	bl	__ZNSt3__112basic_stringIcNS_11char_traitsIcEENS_9allocatorIcEEED1Ev
	ldr	w8, [sp, #4]                    ; 4-byte Folded Reload
	and	w0, w8, #0x1
	ldp	x29, x30, [sp, #64]             ; 16-byte Folded Reload
	add	sp, sp, #80
	ret
	.cfi_endproc
                                        ; -- End function
	.globl	__Z14areValidStringNSt3__112basic_stringIcNS_11char_traitsIcEENS_9allocatorIcEEEES5_S5_S5_ ; -- Begin function _Z14areValidStringNSt3__112basic_stringIcNS_11char_traitsIcEENS_9allocatorIcEEEES5_S5_S5_
	.p2align	2
__Z14areValidStringNSt3__112basic_stringIcNS_11char_traitsIcEENS_9allocatorIcEEEES5_S5_S5_: ; @_Z14areValidStringNSt3__112basic_stringIcNS_11char_traitsIcEENS_9allocatorIcEEEES5_S5_S5_
Lfunc_begin1:
	.cfi_startproc
	.cfi_personality 155, ___gxx_personality_v0
	.cfi_lsda 16, Lexception1
; %bb.0:
	sub	sp, sp, #224
	.cfi_def_cfa_offset 224
	stp	x29, x30, [sp, #208]            ; 16-byte Folded Spill
	add	x29, sp, #208
	.cfi_def_cfa w29, 16
	.cfi_offset w30, -8
	.cfi_offset w29, -16
	str	x0, [sp, #24]                   ; 8-byte Folded Spill
	str	x1, [sp, #32]                   ; 8-byte Folded Spill
	str	x2, [sp, #40]                   ; 8-byte Folded Spill
	str	x3, [sp, #48]                   ; 8-byte Folded Spill
	sub	x0, x29, #32
	str	x0, [sp, #56]                   ; 8-byte Folded Spill
	bl	__ZNSt3__112basic_stringIcNS_11char_traitsIcEENS_9allocatorIcEEEC1ERKS5_
	ldr	x0, [sp, #56]                   ; 8-byte Folded Reload
	mov	w8, #0
	mov	w9, #1
	and	w10, w8, #0x1
	and	w10, w10, #0x1
	sturb	w10, [x29, #-73]
	and	w10, w8, #0x1
	and	w10, w10, w9
	strb	w10, [sp, #103]
	and	w8, w8, #0x1
	and	w8, w8, w9
	strb	w8, [sp, #71]
Ltmp8:
	bl	__Z8isNumberNSt3__112basic_stringIcNS_11char_traitsIcEENS_9allocatorIcEEEE
	str	w0, [sp, #64]                   ; 4-byte Folded Spill
Ltmp9:
	b	LBB13_1
LBB13_1:
	ldr	w8, [sp, #64]                   ; 4-byte Folded Reload
	mov	w9, #0
	str	w9, [sp, #20]                   ; 4-byte Folded Spill
	tbz	w8, #0, LBB13_16
	b	LBB13_2
LBB13_2:
Ltmp10:
	ldr	x1, [sp, #40]                   ; 8-byte Folded Reload
	sub	x0, x29, #72
	bl	__ZNSt3__112basic_stringIcNS_11char_traitsIcEENS_9allocatorIcEEEC1ERKS5_
Ltmp11:
	b	LBB13_3
LBB13_3:
	mov	w8, #1
	and	w8, w8, #0x1
	and	w8, w8, #0x1
	sturb	w8, [x29, #-73]
Ltmp13:
	sub	x0, x29, #72
	bl	__Z8isNumberNSt3__112basic_stringIcNS_11char_traitsIcEENS_9allocatorIcEEEE
	str	w0, [sp, #16]                   ; 4-byte Folded Spill
Ltmp14:
	b	LBB13_4
LBB13_4:
	ldr	w8, [sp, #16]                   ; 4-byte Folded Reload
	mov	w9, #0
	str	w9, [sp, #20]                   ; 4-byte Folded Spill
	tbz	w8, #0, LBB13_16
	b	LBB13_5
LBB13_5:
Ltmp15:
	ldr	x1, [sp, #48]                   ; 8-byte Folded Reload
	add	x0, sp, #104
	bl	__ZNSt3__112basic_stringIcNS_11char_traitsIcEENS_9allocatorIcEEEC1ERKS5_
Ltmp16:
	b	LBB13_6
LBB13_6:
	mov	w8, #1
	and	w8, w8, #0x1
	and	w8, w8, #0x1
	strb	w8, [sp, #103]
Ltmp18:
	add	x0, sp, #104
	bl	__Z8isNumberNSt3__112basic_stringIcNS_11char_traitsIcEENS_9allocatorIcEEEE
	str	w0, [sp, #12]                   ; 4-byte Folded Spill
Ltmp19:
	b	LBB13_7
LBB13_7:
	ldr	w8, [sp, #12]                   ; 4-byte Folded Reload
	mov	w9, #0
	str	w9, [sp, #20]                   ; 4-byte Folded Spill
	tbz	w8, #0, LBB13_16
	b	LBB13_8
LBB13_8:
Ltmp20:
	ldr	x1, [sp, #24]                   ; 8-byte Folded Reload
	add	x0, sp, #72
	bl	__ZNSt3__112basic_stringIcNS_11char_traitsIcEENS_9allocatorIcEEEC1ERKS5_
Ltmp21:
	b	LBB13_9
LBB13_9:
	mov	w8, #1
	and	w8, w8, #0x1
	and	w8, w8, #0x1
	strb	w8, [sp, #71]
	add	x0, sp, #72
	bl	__Z8isValidPNSt3__112basic_stringIcNS_11char_traitsIcEENS_9allocatorIcEEEE
	mov	w8, #0
	str	w8, [sp, #20]                   ; 4-byte Folded Spill
	tbz	w0, #0, LBB13_16
	b	LBB13_10
LBB13_10:
Ltmp23:
	ldr	x0, [sp, #32]                   ; 8-byte Folded Reload
	mov	x1, #0
	mov	w2, #10
	bl	__ZNSt3__14stoiERKNS_12basic_stringIcNS_11char_traitsIcEENS_9allocatorIcEEEEPmi
	str	w0, [sp, #8]                    ; 4-byte Folded Spill
Ltmp24:
	b	LBB13_11
LBB13_11:
	ldr	w0, [sp, #8]                    ; 4-byte Folded Reload
	bl	__Z13isValidHeighti
	mov	w8, #0
	str	w8, [sp, #20]                   ; 4-byte Folded Spill
	tbz	w0, #0, LBB13_16
	b	LBB13_12
LBB13_12:
Ltmp25:
	ldr	x0, [sp, #40]                   ; 8-byte Folded Reload
	mov	x1, #0
	mov	w2, #10
	bl	__ZNSt3__14stoiERKNS_12basic_stringIcNS_11char_traitsIcEENS_9allocatorIcEEEEPmi
	str	w0, [sp, #4]                    ; 4-byte Folded Spill
Ltmp26:
	b	LBB13_13
LBB13_13:
	ldr	w0, [sp, #4]                    ; 4-byte Folded Reload
	bl	__Z12isValidWidthi
	mov	w8, #0
	str	w8, [sp, #20]                   ; 4-byte Folded Spill
	tbz	w0, #0, LBB13_16
	b	LBB13_14
LBB13_14:
Ltmp27:
	ldr	x0, [sp, #48]                   ; 8-byte Folded Reload
	mov	x1, #0
	mov	w2, #10
	bl	__ZNSt3__14stoiERKNS_12basic_stringIcNS_11char_traitsIcEENS_9allocatorIcEEEEPmi
	str	w0, [sp]                        ; 4-byte Folded Spill
Ltmp28:
	b	LBB13_15
LBB13_15:
	ldr	w0, [sp]                        ; 4-byte Folded Reload
	bl	__Z10isValidMaxi
	str	w0, [sp, #20]                   ; 4-byte Folded Spill
	b	LBB13_16
LBB13_16:
	ldr	w8, [sp, #20]                   ; 4-byte Folded Reload
	and	w8, w8, #0x1
	and	w8, w8, #0x1
	sturb	w8, [x29, #-1]
	ldrb	w8, [sp, #71]
	tbz	w8, #0, LBB13_18
	b	LBB13_17
LBB13_17:
	add	x0, sp, #72
	bl	__ZNSt3__112basic_stringIcNS_11char_traitsIcEENS_9allocatorIcEEED1Ev
	b	LBB13_18
LBB13_18:
	ldrb	w8, [sp, #103]
	tbz	w8, #0, LBB13_20
	b	LBB13_19
LBB13_19:
	add	x0, sp, #104
	bl	__ZNSt3__112basic_stringIcNS_11char_traitsIcEENS_9allocatorIcEEED1Ev
	b	LBB13_20
LBB13_20:
	ldurb	w8, [x29, #-73]
	tbz	w8, #0, LBB13_22
	b	LBB13_21
LBB13_21:
	sub	x0, x29, #72
	bl	__ZNSt3__112basic_stringIcNS_11char_traitsIcEENS_9allocatorIcEEED1Ev
	b	LBB13_22
LBB13_22:
	sub	x0, x29, #32
	bl	__ZNSt3__112basic_stringIcNS_11char_traitsIcEENS_9allocatorIcEEED1Ev
	ldurb	w8, [x29, #-1]
	and	w0, w8, #0x1
	ldp	x29, x30, [sp, #208]            ; 16-byte Folded Reload
	add	sp, sp, #224
	ret
LBB13_23:
Ltmp12:
	mov	x8, x1
	stur	x0, [x29, #-40]
	stur	w8, [x29, #-44]
	b	LBB13_35
LBB13_24:
Ltmp17:
	mov	x8, x1
	stur	x0, [x29, #-40]
	stur	w8, [x29, #-44]
	b	LBB13_32
LBB13_25:
Ltmp22:
	mov	x8, x1
	stur	x0, [x29, #-40]
	stur	w8, [x29, #-44]
	b	LBB13_29
LBB13_26:
Ltmp29:
	mov	x8, x1
	stur	x0, [x29, #-40]
	stur	w8, [x29, #-44]
	ldrb	w8, [sp, #71]
	tbz	w8, #0, LBB13_28
	b	LBB13_27
LBB13_27:
	add	x0, sp, #72
	bl	__ZNSt3__112basic_stringIcNS_11char_traitsIcEENS_9allocatorIcEEED1Ev
	b	LBB13_28
LBB13_28:
	b	LBB13_29
LBB13_29:
	ldrb	w8, [sp, #103]
	tbz	w8, #0, LBB13_31
	b	LBB13_30
LBB13_30:
	add	x0, sp, #104
	bl	__ZNSt3__112basic_stringIcNS_11char_traitsIcEENS_9allocatorIcEEED1Ev
	b	LBB13_31
LBB13_31:
	b	LBB13_32
LBB13_32:
	ldurb	w8, [x29, #-73]
	tbz	w8, #0, LBB13_34
	b	LBB13_33
LBB13_33:
	sub	x0, x29, #72
	bl	__ZNSt3__112basic_stringIcNS_11char_traitsIcEENS_9allocatorIcEEED1Ev
	b	LBB13_34
LBB13_34:
	b	LBB13_35
LBB13_35:
	sub	x0, x29, #32
	bl	__ZNSt3__112basic_stringIcNS_11char_traitsIcEENS_9allocatorIcEEED1Ev
	b	LBB13_36
LBB13_36:
	ldur	x0, [x29, #-40]
	bl	__Unwind_Resume
Lfunc_end1:
	.cfi_endproc
	.section	__TEXT,__gcc_except_tab
	.p2align	2
GCC_except_table13:
Lexception1:
	.byte	255                             ; @LPStart Encoding = omit
	.byte	255                             ; @TType Encoding = omit
	.byte	1                               ; Call site Encoding = uleb128
	.uleb128 Lcst_end1-Lcst_begin1
Lcst_begin1:
	.uleb128 Lfunc_begin1-Lfunc_begin1      ; >> Call Site 1 <<
	.uleb128 Ltmp8-Lfunc_begin1             ;   Call between Lfunc_begin1 and Ltmp8
	.byte	0                               ;     has no landing pad
	.byte	0                               ;   On action: cleanup
	.uleb128 Ltmp8-Lfunc_begin1             ; >> Call Site 2 <<
	.uleb128 Ltmp11-Ltmp8                   ;   Call between Ltmp8 and Ltmp11
	.uleb128 Ltmp12-Lfunc_begin1            ;     jumps to Ltmp12
	.byte	0                               ;   On action: cleanup
	.uleb128 Ltmp13-Lfunc_begin1            ; >> Call Site 3 <<
	.uleb128 Ltmp16-Ltmp13                  ;   Call between Ltmp13 and Ltmp16
	.uleb128 Ltmp17-Lfunc_begin1            ;     jumps to Ltmp17
	.byte	0                               ;   On action: cleanup
	.uleb128 Ltmp18-Lfunc_begin1            ; >> Call Site 4 <<
	.uleb128 Ltmp21-Ltmp18                  ;   Call between Ltmp18 and Ltmp21
	.uleb128 Ltmp22-Lfunc_begin1            ;     jumps to Ltmp22
	.byte	0                               ;   On action: cleanup
	.uleb128 Ltmp23-Lfunc_begin1            ; >> Call Site 5 <<
	.uleb128 Ltmp28-Ltmp23                  ;   Call between Ltmp23 and Ltmp28
	.uleb128 Ltmp29-Lfunc_begin1            ;     jumps to Ltmp29
	.byte	0                               ;   On action: cleanup
	.uleb128 Ltmp28-Lfunc_begin1            ; >> Call Site 6 <<
	.uleb128 Lfunc_end1-Ltmp28              ;   Call between Ltmp28 and Lfunc_end1
	.byte	0                               ;     has no landing pad
	.byte	0                               ;   On action: cleanup
Lcst_end1:
	.p2align	2
                                        ; -- End function
	.section	__TEXT,__text,regular,pure_instructions
	.globl	__Z9safePointN3map5PointENS_4SizeE ; -- Begin function _Z9safePointN3map5PointENS_4SizeE
	.p2align	2
__Z9safePointN3map5PointENS_4SizeE:     ; @_Z9safePointN3map5PointENS_4SizeE
	.cfi_startproc
; %bb.0:
	sub	sp, sp, #32
	.cfi_def_cfa_offset 32
	str	d0, [sp, #16]
	str	d1, [sp, #24]
	str	x0, [sp, #8]
	ldr	d0, [sp, #24]
	ldr	s2, [sp, #8]
                                        ; implicit-def: $d1
	fmov	s1, s2
	sshll.2d	v1, v1, #0
                                        ; kill: def $d1 killed $d1 killed $q1
	scvtf	d1, d1
	ldr	d2, [sp, #16]
	fmadd	d0, d0, d1, d2
	fcmp	d0, #0.0
	cset	w8, lt
	mov	w9, #0
	str	w9, [sp, #4]                    ; 4-byte Folded Spill
	tbnz	w8, #0, LBB14_2
	b	LBB14_1
LBB14_1:
	ldr	d0, [sp, #24]
	ldr	s2, [sp, #8]
                                        ; implicit-def: $d1
	fmov	s1, s2
	sshll.2d	v1, v1, #0
                                        ; kill: def $d1 killed $d1 killed $q1
	scvtf	d1, d1
	ldr	d2, [sp, #16]
	fmadd	d0, d0, d1, d2
	ldr	w8, [sp, #8]
	ldr	w9, [sp, #12]
	mul	w8, w8, w9
	scvtf	d1, w8
	fcmp	d0, d1
	cset	w8, mi
	str	w8, [sp, #4]                    ; 4-byte Folded Spill
	b	LBB14_2
LBB14_2:
	ldr	w8, [sp, #4]                    ; 4-byte Folded Reload
	and	w0, w8, #0x1
	add	sp, sp, #32
	ret
	.cfi_endproc
                                        ; -- End function
	.globl	__Z4lerpN3map5PointES0_f        ; -- Begin function _Z4lerpN3map5PointES0_f
	.p2align	2
__Z4lerpN3map5PointES0_f:               ; @_Z4lerpN3map5PointES0_f
	.cfi_startproc
; %bb.0:
	sub	sp, sp, #80
	.cfi_def_cfa_offset 80
	stp	x29, x30, [sp, #64]             ; 16-byte Folded Spill
	add	x29, sp, #64
	.cfi_def_cfa w29, 16
	.cfi_offset w30, -8
	.cfi_offset w29, -16
	str	d0, [sp, #32]
	str	d1, [sp, #40]
	str	d2, [sp, #16]
	str	d3, [sp, #24]
	str	s4, [sp, #12]
	ldr	d2, [sp, #32]
	ldr	d0, [sp, #16]
	ldr	d1, [sp, #32]
	fsub	d0, d0, d1
	ldr	s1, [sp, #12]
	fcvt	d1, s1
	fmadd	d0, d0, d1, d2
	fcvtzs	w8, d0
	str	w8, [sp, #8]
	ldr	d2, [sp, #40]
	ldr	d0, [sp, #24]
	ldr	d1, [sp, #40]
	fsub	d0, d0, d1
	ldr	s1, [sp, #12]
	fcvt	d1, s1
	fmadd	d0, d0, d1, d2
	fcvtzs	w8, d0
	str	w8, [sp, #4]
	ldr	s1, [sp, #8]
                                        ; implicit-def: $d0
	fmov	s0, s1
	sshll.2d	v0, v0, #0
                                        ; kill: def $d0 killed $d0 killed $q0
	scvtf	d0, d0
	ldr	s2, [sp, #4]
                                        ; implicit-def: $d1
	fmov	s1, s2
	sshll.2d	v1, v1, #0
                                        ; kill: def $d1 killed $d1 killed $q1
	scvtf	d1, d1
	sub	x0, x29, #16
	bl	__ZN3map5PointC1Edd
	ldur	d0, [x29, #-16]
	ldur	d1, [x29, #-8]
	ldp	x29, x30, [sp, #64]             ; 16-byte Folded Reload
	add	sp, sp, #80
	ret
	.cfi_endproc
                                        ; -- End function
	.globl	__ZN3map5PointC1Edd             ; -- Begin function _ZN3map5PointC1Edd
	.weak_def_can_be_hidden	__ZN3map5PointC1Edd
	.p2align	2
__ZN3map5PointC1Edd:                    ; @_ZN3map5PointC1Edd
	.cfi_startproc
; %bb.0:
	sub	sp, sp, #48
	.cfi_def_cfa_offset 48
	stp	x29, x30, [sp, #32]             ; 16-byte Folded Spill
	add	x29, sp, #32
	.cfi_def_cfa w29, 16
	.cfi_offset w30, -8
	.cfi_offset w29, -16
	stur	x0, [x29, #-8]
	str	d0, [sp, #16]
	str	d1, [sp, #8]
	ldur	x0, [x29, #-8]
	str	x0, [sp]                        ; 8-byte Folded Spill
	ldr	d0, [sp, #16]
	ldr	d1, [sp, #8]
	bl	__ZN3map5PointC2Edd
	ldr	x0, [sp]                        ; 8-byte Folded Reload
	ldp	x29, x30, [sp, #32]             ; 16-byte Folded Reload
	add	sp, sp, #48
	ret
	.cfi_endproc
                                        ; -- End function
	.globl	__Z11outter_prodiiii            ; -- Begin function _Z11outter_prodiiii
	.p2align	2
__Z11outter_prodiiii:                   ; @_Z11outter_prodiiii
Lfunc_begin2:
	.cfi_startproc
	.cfi_personality 155, ___gxx_personality_v0
	.cfi_lsda 16, Lexception2
; %bb.0:
	sub	sp, sp, #96
	.cfi_def_cfa_offset 96
	stp	x29, x30, [sp, #80]             ; 16-byte Folded Spill
	add	x29, sp, #80
	.cfi_def_cfa w29, 16
	.cfi_offset w30, -8
	.cfi_offset w29, -16
	str	x8, [sp, #8]                    ; 8-byte Folded Spill
	mov	x8, x0
	ldr	x0, [sp, #8]                    ; 8-byte Folded Reload
	mov	x9, x0
	stur	x9, [x29, #-8]
	stur	w8, [x29, #-12]
	stur	w1, [x29, #-16]
	stur	w2, [x29, #-20]
	stur	w3, [x29, #-24]
	mov	w8, #0
	mov	w9, #1
	and	w8, w8, #0x1
	and	w8, w8, w9
	sturb	w8, [x29, #-25]
	ldur	w8, [x29, #-16]
	ldur	w9, [x29, #-12]
	subs	w8, w8, w9
	ldur	w9, [x29, #-24]
	ldur	w10, [x29, #-20]
	subs	w9, w9, w10
	mul	w9, w8, w9
                                        ; implicit-def: $x8
	mov	x8, x9
	sxtw	x1, w8
	bl	__ZNSt3__16vectorINS_4pairIiiEENS_9allocatorIS2_EEEC1Em
	ldur	w8, [x29, #-12]
	stur	w8, [x29, #-32]
	b	LBB17_1
LBB17_1:                                ; =>This Loop Header: Depth=1
                                        ;     Child Loop BB17_3 Depth 2
	ldur	w8, [x29, #-32]
	ldur	w9, [x29, #-16]
	subs	w8, w8, w9
	cset	w8, ge
	tbnz	w8, #0, LBB17_11
	b	LBB17_2
LBB17_2:                                ;   in Loop: Header=BB17_1 Depth=1
	ldur	w8, [x29, #-20]
	stur	w8, [x29, #-36]
	b	LBB17_3
LBB17_3:                                ;   Parent Loop BB17_1 Depth=1
                                        ; =>  This Inner Loop Header: Depth=2
	ldur	w8, [x29, #-36]
	ldur	w9, [x29, #-24]
	subs	w8, w8, w9
	cset	w8, ge
	tbnz	w8, #0, LBB17_9
	b	LBB17_4
LBB17_4:                                ;   in Loop: Header=BB17_3 Depth=2
Ltmp31:
	sub	x0, x29, #32
	sub	x1, x29, #36
	bl	__ZNSt3__19make_pairB6v15006IRiS1_EENS_4pairINS_18__unwrap_ref_decayIT_E4typeENS3_IT0_E4typeEEEOS4_OS7_
	str	x0, [sp]                        ; 8-byte Folded Spill
Ltmp32:
	b	LBB17_5
LBB17_5:                                ;   in Loop: Header=BB17_3 Depth=2
	ldr	x0, [sp, #8]                    ; 8-byte Folded Reload
	ldr	x8, [sp]                        ; 8-byte Folded Reload
	add	x1, sp, #36
	stur	x8, [sp, #36]
Ltmp33:
	bl	__ZNSt3__16vectorINS_4pairIiiEENS_9allocatorIS2_EEE9push_backB6v15006EOS2_
Ltmp34:
	b	LBB17_6
LBB17_6:                                ;   in Loop: Header=BB17_3 Depth=2
	b	LBB17_7
LBB17_7:                                ;   in Loop: Header=BB17_3 Depth=2
	ldur	w8, [x29, #-36]
	add	w8, w8, #1
	stur	w8, [x29, #-36]
	b	LBB17_3
LBB17_8:
Ltmp35:
	mov	x9, x0
	ldr	x0, [sp, #8]                    ; 8-byte Folded Reload
	mov	x8, x1
	str	x9, [sp, #24]
	str	w8, [sp, #20]
	bl	__ZNSt3__16vectorINS_4pairIiiEENS_9allocatorIS2_EEED1B6v15006Ev
	b	LBB17_14
LBB17_9:                                ;   in Loop: Header=BB17_1 Depth=1
	b	LBB17_10
LBB17_10:                               ;   in Loop: Header=BB17_1 Depth=1
	ldur	w8, [x29, #-32]
	add	w8, w8, #1
	stur	w8, [x29, #-32]
	b	LBB17_1
LBB17_11:
	mov	w8, #1
	and	w8, w8, #0x1
	and	w8, w8, #0x1
	sturb	w8, [x29, #-25]
	ldurb	w8, [x29, #-25]
	tbnz	w8, #0, LBB17_13
	b	LBB17_12
LBB17_12:
	ldr	x0, [sp, #8]                    ; 8-byte Folded Reload
	bl	__ZNSt3__16vectorINS_4pairIiiEENS_9allocatorIS2_EEED1B6v15006Ev
	b	LBB17_13
LBB17_13:
	ldp	x29, x30, [sp, #80]             ; 16-byte Folded Reload
	add	sp, sp, #96
	ret
LBB17_14:
	ldr	x0, [sp, #24]
	bl	__Unwind_Resume
Lfunc_end2:
	.cfi_endproc
	.section	__TEXT,__gcc_except_tab
	.p2align	2
GCC_except_table17:
Lexception2:
	.byte	255                             ; @LPStart Encoding = omit
	.byte	255                             ; @TType Encoding = omit
	.byte	1                               ; Call site Encoding = uleb128
	.uleb128 Lcst_end2-Lcst_begin2
Lcst_begin2:
	.uleb128 Lfunc_begin2-Lfunc_begin2      ; >> Call Site 1 <<
	.uleb128 Ltmp31-Lfunc_begin2            ;   Call between Lfunc_begin2 and Ltmp31
	.byte	0                               ;     has no landing pad
	.byte	0                               ;   On action: cleanup
	.uleb128 Ltmp31-Lfunc_begin2            ; >> Call Site 2 <<
	.uleb128 Ltmp34-Ltmp31                  ;   Call between Ltmp31 and Ltmp34
	.uleb128 Ltmp35-Lfunc_begin2            ;     jumps to Ltmp35
	.byte	0                               ;   On action: cleanup
	.uleb128 Ltmp34-Lfunc_begin2            ; >> Call Site 3 <<
	.uleb128 Lfunc_end2-Ltmp34              ;   Call between Ltmp34 and Lfunc_end2
	.byte	0                               ;     has no landing pad
	.byte	0                               ;   On action: cleanup
Lcst_end2:
	.p2align	2
                                        ; -- End function
	.section	__TEXT,__text,regular,pure_instructions
	.globl	__ZNSt3__16vectorINS_4pairIiiEENS_9allocatorIS2_EEEC1Em ; -- Begin function _ZNSt3__16vectorINS_4pairIiiEENS_9allocatorIS2_EEEC1Em
	.weak_def_can_be_hidden	__ZNSt3__16vectorINS_4pairIiiEENS_9allocatorIS2_EEEC1Em
	.p2align	2
__ZNSt3__16vectorINS_4pairIiiEENS_9allocatorIS2_EEEC1Em: ; @_ZNSt3__16vectorINS_4pairIiiEENS_9allocatorIS2_EEEC1Em
	.cfi_startproc
; %bb.0:
	sub	sp, sp, #48
	.cfi_def_cfa_offset 48
	stp	x29, x30, [sp, #32]             ; 16-byte Folded Spill
	add	x29, sp, #32
	.cfi_def_cfa w29, 16
	.cfi_offset w30, -8
	.cfi_offset w29, -16
	stur	x0, [x29, #-8]
	str	x1, [sp, #16]
	ldur	x0, [x29, #-8]
	str	x0, [sp, #8]                    ; 8-byte Folded Spill
	ldr	x1, [sp, #16]
	bl	__ZNSt3__16vectorINS_4pairIiiEENS_9allocatorIS2_EEEC2Em
	ldr	x0, [sp, #8]                    ; 8-byte Folded Reload
	ldp	x29, x30, [sp, #32]             ; 16-byte Folded Reload
	add	sp, sp, #48
	ret
	.cfi_endproc
                                        ; -- End function
	.private_extern	__ZNSt3__16vectorINS_4pairIiiEENS_9allocatorIS2_EEE9push_backB6v15006EOS2_ ; -- Begin function _ZNSt3__16vectorINS_4pairIiiEENS_9allocatorIS2_EEE9push_backB6v15006EOS2_
	.globl	__ZNSt3__16vectorINS_4pairIiiEENS_9allocatorIS2_EEE9push_backB6v15006EOS2_
	.weak_definition	__ZNSt3__16vectorINS_4pairIiiEENS_9allocatorIS2_EEE9push_backB6v15006EOS2_
	.p2align	2
__ZNSt3__16vectorINS_4pairIiiEENS_9allocatorIS2_EEE9push_backB6v15006EOS2_: ; @_ZNSt3__16vectorINS_4pairIiiEENS_9allocatorIS2_EEE9push_backB6v15006EOS2_
	.cfi_startproc
; %bb.0:
	sub	sp, sp, #48
	.cfi_def_cfa_offset 48
	stp	x29, x30, [sp, #32]             ; 16-byte Folded Spill
	add	x29, sp, #32
	.cfi_def_cfa w29, 16
	.cfi_offset w30, -8
	.cfi_offset w29, -16
	stur	x0, [x29, #-8]
	str	x1, [sp, #16]
	ldur	x0, [x29, #-8]
	str	x0, [sp]                        ; 8-byte Folded Spill
	ldr	x8, [x0, #8]
	str	x8, [sp, #8]                    ; 8-byte Folded Spill
	bl	__ZNSt3__16vectorINS_4pairIiiEENS_9allocatorIS2_EEE9__end_capB6v15006Ev
	ldr	x8, [sp, #8]                    ; 8-byte Folded Reload
	ldr	x9, [x0]
	subs	x8, x8, x9
	cset	w8, hs
	tbnz	w8, #0, LBB19_2
	b	LBB19_1
LBB19_1:
	ldr	x0, [sp]                        ; 8-byte Folded Reload
	ldr	x1, [sp, #16]
	bl	__ZNSt3__16vectorINS_4pairIiiEENS_9allocatorIS2_EEE22__construct_one_at_endB6v15006IJS2_EEEvDpOT_
	b	LBB19_3
LBB19_2:
	ldr	x0, [sp]                        ; 8-byte Folded Reload
	ldr	x1, [sp, #16]
	bl	__ZNSt3__16vectorINS_4pairIiiEENS_9allocatorIS2_EEE21__push_back_slow_pathIS2_EEvOT_
	b	LBB19_3
LBB19_3:
	ldp	x29, x30, [sp, #32]             ; 16-byte Folded Reload
	add	sp, sp, #48
	ret
	.cfi_endproc
                                        ; -- End function
	.private_extern	__ZNSt3__19make_pairB6v15006IRiS1_EENS_4pairINS_18__unwrap_ref_decayIT_E4typeENS3_IT0_E4typeEEEOS4_OS7_ ; -- Begin function _ZNSt3__19make_pairB6v15006IRiS1_EENS_4pairINS_18__unwrap_ref_decayIT_E4typeENS3_IT0_E4typeEEEOS4_OS7_
	.globl	__ZNSt3__19make_pairB6v15006IRiS1_EENS_4pairINS_18__unwrap_ref_decayIT_E4typeENS3_IT0_E4typeEEEOS4_OS7_
	.weak_definition	__ZNSt3__19make_pairB6v15006IRiS1_EENS_4pairINS_18__unwrap_ref_decayIT_E4typeENS3_IT0_E4typeEEEOS4_OS7_
	.p2align	2
__ZNSt3__19make_pairB6v15006IRiS1_EENS_4pairINS_18__unwrap_ref_decayIT_E4typeENS3_IT0_E4typeEEEOS4_OS7_: ; @_ZNSt3__19make_pairB6v15006IRiS1_EENS_4pairINS_18__unwrap_ref_decayIT_E4typeENS3_IT0_E4typeEEEOS4_OS7_
	.cfi_startproc
; %bb.0:
	sub	sp, sp, #48
	.cfi_def_cfa_offset 48
	stp	x29, x30, [sp, #32]             ; 16-byte Folded Spill
	add	x29, sp, #32
	.cfi_def_cfa w29, 16
	.cfi_offset w30, -8
	.cfi_offset w29, -16
	str	x0, [sp, #16]
	str	x1, [sp, #8]
	ldr	x1, [sp, #16]
	ldr	x2, [sp, #8]
	sub	x0, x29, #8
	bl	__ZNSt3__14pairIiiEC1B6v15006IRiS3_LPv0EEEOT_OT0_
	ldur	x0, [x29, #-8]
	ldp	x29, x30, [sp, #32]             ; 16-byte Folded Reload
	add	sp, sp, #48
	ret
	.cfi_endproc
                                        ; -- End function
	.private_extern	__ZNSt3__16vectorINS_4pairIiiEENS_9allocatorIS2_EEED1B6v15006Ev ; -- Begin function _ZNSt3__16vectorINS_4pairIiiEENS_9allocatorIS2_EEED1B6v15006Ev
	.globl	__ZNSt3__16vectorINS_4pairIiiEENS_9allocatorIS2_EEED1B6v15006Ev
	.weak_def_can_be_hidden	__ZNSt3__16vectorINS_4pairIiiEENS_9allocatorIS2_EEED1B6v15006Ev
	.p2align	2
__ZNSt3__16vectorINS_4pairIiiEENS_9allocatorIS2_EEED1B6v15006Ev: ; @_ZNSt3__16vectorINS_4pairIiiEENS_9allocatorIS2_EEED1B6v15006Ev
	.cfi_startproc
; %bb.0:
	sub	sp, sp, #32
	.cfi_def_cfa_offset 32
	stp	x29, x30, [sp, #16]             ; 16-byte Folded Spill
	add	x29, sp, #16
	.cfi_def_cfa w29, 16
	.cfi_offset w30, -8
	.cfi_offset w29, -16
	str	x0, [sp, #8]
	ldr	x0, [sp, #8]
	str	x0, [sp]                        ; 8-byte Folded Spill
	bl	__ZNSt3__16vectorINS_4pairIiiEENS_9allocatorIS2_EEED2B6v15006Ev
	ldr	x0, [sp]                        ; 8-byte Folded Reload
	ldp	x29, x30, [sp, #16]             ; 16-byte Folded Reload
	add	sp, sp, #32
	ret
	.cfi_endproc
                                        ; -- End function
	.globl	__Z4copyRKNSt3__16vectorIN3map3clr3RGBENS_9allocatorIS3_EEEEPS3_ ; -- Begin function _Z4copyRKNSt3__16vectorIN3map3clr3RGBENS_9allocatorIS3_EEEEPS3_
	.p2align	2
__Z4copyRKNSt3__16vectorIN3map3clr3RGBENS_9allocatorIS3_EEEEPS3_: ; @_Z4copyRKNSt3__16vectorIN3map3clr3RGBENS_9allocatorIS3_EEEEPS3_
	.cfi_startproc
; %bb.0:
	sub	sp, sp, #48
	.cfi_def_cfa_offset 48
	stp	x29, x30, [sp, #32]             ; 16-byte Folded Spill
	add	x29, sp, #32
	.cfi_def_cfa w29, 16
	.cfi_offset w30, -8
	.cfi_offset w29, -16
	stur	x0, [x29, #-8]
	str	x1, [sp, #16]
	ldur	x0, [x29, #-8]
	bl	__ZNKSt3__16vectorIN3map3clr3RGBENS_9allocatorIS3_EEE4sizeB6v15006Ev
	mov	x8, x0
	str	w8, [sp, #12]
	str	wzr, [sp, #8]
	b	LBB22_1
LBB22_1:                                ; =>This Inner Loop Header: Depth=1
	ldr	w8, [sp, #8]
	ldr	w9, [sp, #12]
	subs	w8, w8, w9
	cset	w8, ge
	tbnz	w8, #0, LBB22_4
	b	LBB22_2
LBB22_2:                                ;   in Loop: Header=BB22_1 Depth=1
	ldur	x0, [x29, #-8]
	ldrsw	x1, [sp, #8]
	bl	__ZNKSt3__16vectorIN3map3clr3RGBENS_9allocatorIS3_EEEixB6v15006Em
	ldr	x8, [sp, #16]
	ldrsw	x9, [sp, #8]
	mov	x10, #6
	mul	x9, x9, x10
	add	x9, x8, x9
	ldr	w8, [x0]
	str	w8, [x9]
	ldrh	w8, [x0, #4]
	strh	w8, [x9, #4]
	b	LBB22_3
LBB22_3:                                ;   in Loop: Header=BB22_1 Depth=1
	ldr	w8, [sp, #8]
	add	w8, w8, #1
	str	w8, [sp, #8]
	b	LBB22_1
LBB22_4:
	ldp	x29, x30, [sp, #32]             ; 16-byte Folded Reload
	add	sp, sp, #48
	ret
	.cfi_endproc
                                        ; -- End function
	.private_extern	__ZNKSt3__16vectorIN3map3clr3RGBENS_9allocatorIS3_EEE4sizeB6v15006Ev ; -- Begin function _ZNKSt3__16vectorIN3map3clr3RGBENS_9allocatorIS3_EEE4sizeB6v15006Ev
	.globl	__ZNKSt3__16vectorIN3map3clr3RGBENS_9allocatorIS3_EEE4sizeB6v15006Ev
	.weak_definition	__ZNKSt3__16vectorIN3map3clr3RGBENS_9allocatorIS3_EEE4sizeB6v15006Ev
	.p2align	2
__ZNKSt3__16vectorIN3map3clr3RGBENS_9allocatorIS3_EEE4sizeB6v15006Ev: ; @_ZNKSt3__16vectorIN3map3clr3RGBENS_9allocatorIS3_EEE4sizeB6v15006Ev
	.cfi_startproc
; %bb.0:
	sub	sp, sp, #16
	.cfi_def_cfa_offset 16
	str	x0, [sp, #8]
	ldr	x9, [sp, #8]
	ldr	x8, [x9, #8]
	ldr	x9, [x9]
	subs	x8, x8, x9
	mov	x9, #6
	sdiv	x0, x8, x9
	add	sp, sp, #16
	ret
	.cfi_endproc
                                        ; -- End function
	.private_extern	__ZNKSt3__16vectorIN3map3clr3RGBENS_9allocatorIS3_EEEixB6v15006Em ; -- Begin function _ZNKSt3__16vectorIN3map3clr3RGBENS_9allocatorIS3_EEEixB6v15006Em
	.globl	__ZNKSt3__16vectorIN3map3clr3RGBENS_9allocatorIS3_EEEixB6v15006Em
	.weak_definition	__ZNKSt3__16vectorIN3map3clr3RGBENS_9allocatorIS3_EEEixB6v15006Em
	.p2align	2
__ZNKSt3__16vectorIN3map3clr3RGBENS_9allocatorIS3_EEEixB6v15006Em: ; @_ZNKSt3__16vectorIN3map3clr3RGBENS_9allocatorIS3_EEEixB6v15006Em
	.cfi_startproc
; %bb.0:
	sub	sp, sp, #16
	.cfi_def_cfa_offset 16
	str	x0, [sp, #8]
	str	x1, [sp]
	ldr	x8, [sp, #8]
	ldr	x8, [x8]
	ldr	x9, [sp]
	mov	x10, #6
	mul	x9, x9, x10
	add	x0, x8, x9
	add	sp, sp, #16
	ret
	.cfi_endproc
                                        ; -- End function
	.globl	__ZN3map6MapperC2ENSt3__112basic_stringIcNS1_11char_traitsIcEENS1_9allocatorIcEEEENS_4SizeENS_8LoadtypeE ; -- Begin function _ZN3map6MapperC2ENSt3__112basic_stringIcNS1_11char_traitsIcEENS1_9allocatorIcEEEENS_4SizeENS_8LoadtypeE
	.p2align	2
__ZN3map6MapperC2ENSt3__112basic_stringIcNS1_11char_traitsIcEENS1_9allocatorIcEEEENS_4SizeENS_8LoadtypeE: ; @_ZN3map6MapperC2ENSt3__112basic_stringIcNS1_11char_traitsIcEENS1_9allocatorIcEEEENS_4SizeENS_8LoadtypeE
Lfunc_begin3:
	.cfi_startproc
	.cfi_personality 155, ___gxx_personality_v0
	.cfi_lsda 16, Lexception3
; %bb.0:
	sub	sp, sp, #128
	.cfi_def_cfa_offset 128
	stp	x29, x30, [sp, #112]            ; 16-byte Folded Spill
	add	x29, sp, #112
	.cfi_def_cfa w29, 16
	.cfi_offset w30, -8
	.cfi_offset w29, -16
	str	x1, [sp, #8]                    ; 8-byte Folded Spill
	stur	x2, [x29, #-16]
	stur	x0, [x29, #-24]
	stur	w3, [x29, #-28]
	ldur	x0, [x29, #-24]
	str	x0, [sp, #24]                   ; 8-byte Folded Spill
	mov	x8, x0
	stur	x8, [x29, #-8]
	bl	__ZNSt3__112basic_stringIcNS_11char_traitsIcEENS_9allocatorIcEEEC1ERKS5_
	ldr	x8, [sp, #24]                   ; 8-byte Folded Reload
	add	x0, x8, #24
	str	x0, [sp, #16]                   ; 8-byte Folded Spill
	bl	__ZNSt3__112basic_stringIcNS_11char_traitsIcEENS_9allocatorIcEEEC1B6v15006Ev
	ldr	x8, [sp, #24]                   ; 8-byte Folded Reload
	ldur	w9, [x29, #-16]
	str	w9, [x8, #48]
	ldur	w9, [x29, #-12]
	str	w9, [x8, #52]
	str	wzr, [x8, #56]
	str	wzr, [x8, #60]
	add	x0, x8, #64
	str	x0, [sp, #32]                   ; 8-byte Folded Spill
Ltmp38:
	adrp	x1, l_.str@PAGE
	add	x1, x1, l_.str@PAGEOFF
	bl	__ZNSt3__112basic_stringIcNS_11char_traitsIcEENS_9allocatorIcEEEC1B6v15006IDnEEPKc
Ltmp39:
	b	LBB25_1
LBB25_1:
	ldr	x0, [sp, #8]                    ; 8-byte Folded Reload
	ldr	x8, [sp, #24]                   ; 8-byte Folded Reload
	mov	w9, #255
	str	w9, [x8, #88]
	strb	wzr, [x8, #104]
	str	wzr, [x8, #108]
	str	wzr, [x8, #112]
	bl	__ZNKSt3__112basic_stringIcNS_11char_traitsIcEENS_9allocatorIcEEE6lengthB6v15006Ev
	subs	x8, x0, #4
	cset	w8, hi
	tbnz	w8, #0, LBB25_6
	b	LBB25_2
LBB25_2:
Ltmp50:
	adrp	x0, l___func__._ZN3map6MapperC2ENSt3__112basic_stringIcNS1_11char_traitsIcEENS1_9allocatorIcEEEENS_4SizeENS_8LoadtypeE@PAGE
	add	x0, x0, l___func__._ZN3map6MapperC2ENSt3__112basic_stringIcNS1_11char_traitsIcEENS1_9allocatorIcEEEENS_4SizeENS_8LoadtypeE@PAGEOFF
	adrp	x1, l_.str.3@PAGE
	add	x1, x1, l_.str.3@PAGEOFF
	mov	w2, #11
	adrp	x3, l_.str.4@PAGE
	add	x3, x3, l_.str.4@PAGEOFF
	bl	___assert_rtn
Ltmp51:
	b	LBB25_3
LBB25_3:
	brk	#0x1
LBB25_4:
Ltmp40:
	mov	x8, x1
	stur	x0, [x29, #-40]
	stur	w8, [x29, #-44]
	b	LBB25_20
LBB25_5:
Ltmp52:
	mov	x8, x1
	stur	x0, [x29, #-40]
	stur	w8, [x29, #-44]
	b	LBB25_19
LBB25_6:
	b	LBB25_7
LBB25_7:
	ldr	x0, [sp, #8]                    ; 8-byte Folded Reload
	bl	__ZNKSt3__112basic_stringIcNS_11char_traitsIcEENS_9allocatorIcEEE6lengthB6v15006Ev
	mov	x8, x0
	ldr	x0, [sp, #8]                    ; 8-byte Folded Reload
	mov	x2, #4
	subs	x1, x8, #4
Ltmp41:
	add	x8, sp, #40
	bl	__ZNKSt3__112basic_stringIcNS_11char_traitsIcEENS_9allocatorIcEEE6substrB6v15006Emm
Ltmp42:
	b	LBB25_8
LBB25_8:
	add	x0, sp, #40
	adrp	x1, l_.str.5@PAGE
	add	x1, x1, l_.str.5@PAGEOFF
	bl	__ZNSt3__1eqB6v15006IcNS_11char_traitsIcEENS_9allocatorIcEEEEbRKNS_12basic_stringIT_T0_T1_EEPKS6_
	tbnz	w0, #0, LBB25_12
	b	LBB25_9
LBB25_9:
Ltmp47:
	adrp	x0, l___func__._ZN3map6MapperC2ENSt3__112basic_stringIcNS1_11char_traitsIcEENS1_9allocatorIcEEEENS_4SizeENS_8LoadtypeE@PAGE
	add	x0, x0, l___func__._ZN3map6MapperC2ENSt3__112basic_stringIcNS1_11char_traitsIcEENS1_9allocatorIcEEEENS_4SizeENS_8LoadtypeE@PAGEOFF
	adrp	x1, l_.str.3@PAGE
	add	x1, x1, l_.str.3@PAGEOFF
	mov	w2, #12
	adrp	x3, l_.str.6@PAGE
	add	x3, x3, l_.str.6@PAGEOFF
	bl	___assert_rtn
Ltmp48:
	b	LBB25_10
LBB25_10:
	brk	#0x1
LBB25_11:
Ltmp49:
	mov	x8, x1
	stur	x0, [x29, #-40]
	stur	w8, [x29, #-44]
	add	x0, sp, #40
	bl	__ZNSt3__112basic_stringIcNS_11char_traitsIcEENS_9allocatorIcEEED1Ev
	b	LBB25_19
LBB25_12:
	b	LBB25_13
LBB25_13:
	add	x0, sp, #40
	bl	__ZNSt3__112basic_stringIcNS_11char_traitsIcEENS_9allocatorIcEEED1Ev
	ldur	w8, [x29, #-28]
	subs	w8, w8, #1
	cset	w8, ne
	tbnz	w8, #0, LBB25_16
	b	LBB25_14
LBB25_14:
Ltmp45:
	ldr	x0, [sp, #24]                   ; 8-byte Folded Reload
	bl	__ZN3map6Mapper8loadFileEv
Ltmp46:
	b	LBB25_15
LBB25_15:
	b	LBB25_18
LBB25_16:
Ltmp43:
	ldr	x0, [sp, #24]                   ; 8-byte Folded Reload
	bl	__ZN3map6Mapper9resetFileEv
Ltmp44:
	b	LBB25_17
LBB25_17:
	b	LBB25_18
LBB25_18:
	ldur	x0, [x29, #-8]
	ldp	x29, x30, [sp, #112]            ; 16-byte Folded Reload
	add	sp, sp, #128
	ret
LBB25_19:
	ldr	x0, [sp, #32]                   ; 8-byte Folded Reload
	bl	__ZNSt3__112basic_stringIcNS_11char_traitsIcEENS_9allocatorIcEEED1Ev
	b	LBB25_20
LBB25_20:
	ldr	x0, [sp, #16]                   ; 8-byte Folded Reload
	bl	__ZNSt3__112basic_stringIcNS_11char_traitsIcEENS_9allocatorIcEEED1Ev
	ldr	x0, [sp, #24]                   ; 8-byte Folded Reload
	bl	__ZNSt3__112basic_stringIcNS_11char_traitsIcEENS_9allocatorIcEEED1Ev
	b	LBB25_21
LBB25_21:
	ldur	x0, [x29, #-40]
	bl	__Unwind_Resume
Lfunc_end3:
	.cfi_endproc
	.section	__TEXT,__gcc_except_tab
	.p2align	2
GCC_except_table25:
Lexception3:
	.byte	255                             ; @LPStart Encoding = omit
	.byte	255                             ; @TType Encoding = omit
	.byte	1                               ; Call site Encoding = uleb128
	.uleb128 Lcst_end3-Lcst_begin3
Lcst_begin3:
	.uleb128 Lfunc_begin3-Lfunc_begin3      ; >> Call Site 1 <<
	.uleb128 Ltmp38-Lfunc_begin3            ;   Call between Lfunc_begin3 and Ltmp38
	.byte	0                               ;     has no landing pad
	.byte	0                               ;   On action: cleanup
	.uleb128 Ltmp38-Lfunc_begin3            ; >> Call Site 2 <<
	.uleb128 Ltmp39-Ltmp38                  ;   Call between Ltmp38 and Ltmp39
	.uleb128 Ltmp40-Lfunc_begin3            ;     jumps to Ltmp40
	.byte	0                               ;   On action: cleanup
	.uleb128 Ltmp50-Lfunc_begin3            ; >> Call Site 3 <<
	.uleb128 Ltmp42-Ltmp50                  ;   Call between Ltmp50 and Ltmp42
	.uleb128 Ltmp52-Lfunc_begin3            ;     jumps to Ltmp52
	.byte	0                               ;   On action: cleanup
	.uleb128 Ltmp47-Lfunc_begin3            ; >> Call Site 4 <<
	.uleb128 Ltmp48-Ltmp47                  ;   Call between Ltmp47 and Ltmp48
	.uleb128 Ltmp49-Lfunc_begin3            ;     jumps to Ltmp49
	.byte	0                               ;   On action: cleanup
	.uleb128 Ltmp45-Lfunc_begin3            ; >> Call Site 5 <<
	.uleb128 Ltmp44-Ltmp45                  ;   Call between Ltmp45 and Ltmp44
	.uleb128 Ltmp52-Lfunc_begin3            ;     jumps to Ltmp52
	.byte	0                               ;   On action: cleanup
	.uleb128 Ltmp44-Lfunc_begin3            ; >> Call Site 6 <<
	.uleb128 Lfunc_end3-Ltmp44              ;   Call between Ltmp44 and Lfunc_end3
	.byte	0                               ;     has no landing pad
	.byte	0                               ;   On action: cleanup
Lcst_end3:
	.p2align	2
                                        ; -- End function
	.section	__TEXT,__text,regular,pure_instructions
	.private_extern	__ZNSt3__112basic_stringIcNS_11char_traitsIcEENS_9allocatorIcEEEC1B6v15006Ev ; -- Begin function _ZNSt3__112basic_stringIcNS_11char_traitsIcEENS_9allocatorIcEEEC1B6v15006Ev
	.globl	__ZNSt3__112basic_stringIcNS_11char_traitsIcEENS_9allocatorIcEEEC1B6v15006Ev
	.weak_def_can_be_hidden	__ZNSt3__112basic_stringIcNS_11char_traitsIcEENS_9allocatorIcEEEC1B6v15006Ev
	.p2align	2
__ZNSt3__112basic_stringIcNS_11char_traitsIcEENS_9allocatorIcEEEC1B6v15006Ev: ; @_ZNSt3__112basic_stringIcNS_11char_traitsIcEENS_9allocatorIcEEEC1B6v15006Ev
	.cfi_startproc
; %bb.0:
	sub	sp, sp, #32
	.cfi_def_cfa_offset 32
	stp	x29, x30, [sp, #16]             ; 16-byte Folded Spill
	add	x29, sp, #16
	.cfi_def_cfa w29, 16
	.cfi_offset w30, -8
	.cfi_offset w29, -16
	str	x0, [sp, #8]
	ldr	x0, [sp, #8]
	str	x0, [sp]                        ; 8-byte Folded Spill
	bl	__ZNSt3__112basic_stringIcNS_11char_traitsIcEENS_9allocatorIcEEEC2B6v15006Ev
	ldr	x0, [sp]                        ; 8-byte Folded Reload
	ldp	x29, x30, [sp, #16]             ; 16-byte Folded Reload
	add	sp, sp, #32
	ret
	.cfi_endproc
                                        ; -- End function
	.globl	__ZNSt3__112basic_stringIcNS_11char_traitsIcEENS_9allocatorIcEEEC1B6v15006IDnEEPKc ; -- Begin function _ZNSt3__112basic_stringIcNS_11char_traitsIcEENS_9allocatorIcEEEC1B6v15006IDnEEPKc
	.weak_def_can_be_hidden	__ZNSt3__112basic_stringIcNS_11char_traitsIcEENS_9allocatorIcEEEC1B6v15006IDnEEPKc
	.p2align	2
__ZNSt3__112basic_stringIcNS_11char_traitsIcEENS_9allocatorIcEEEC1B6v15006IDnEEPKc: ; @_ZNSt3__112basic_stringIcNS_11char_traitsIcEENS_9allocatorIcEEEC1B6v15006IDnEEPKc
	.cfi_startproc
; %bb.0:
	sub	sp, sp, #48
	.cfi_def_cfa_offset 48
	stp	x29, x30, [sp, #32]             ; 16-byte Folded Spill
	add	x29, sp, #32
	.cfi_def_cfa w29, 16
	.cfi_offset w30, -8
	.cfi_offset w29, -16
	stur	x0, [x29, #-8]
	str	x1, [sp, #16]
	ldur	x0, [x29, #-8]
	str	x0, [sp, #8]                    ; 8-byte Folded Spill
	ldr	x1, [sp, #16]
	bl	__ZNSt3__112basic_stringIcNS_11char_traitsIcEENS_9allocatorIcEEEC2B6v15006IDnEEPKc
	ldr	x0, [sp, #8]                    ; 8-byte Folded Reload
	ldp	x29, x30, [sp, #32]             ; 16-byte Folded Reload
	add	sp, sp, #48
	ret
	.cfi_endproc
                                        ; -- End function
	.private_extern	__ZNKSt3__112basic_stringIcNS_11char_traitsIcEENS_9allocatorIcEEE6lengthB6v15006Ev ; -- Begin function _ZNKSt3__112basic_stringIcNS_11char_traitsIcEENS_9allocatorIcEEE6lengthB6v15006Ev
	.globl	__ZNKSt3__112basic_stringIcNS_11char_traitsIcEENS_9allocatorIcEEE6lengthB6v15006Ev
	.weak_definition	__ZNKSt3__112basic_stringIcNS_11char_traitsIcEENS_9allocatorIcEEE6lengthB6v15006Ev
	.p2align	2
__ZNKSt3__112basic_stringIcNS_11char_traitsIcEENS_9allocatorIcEEE6lengthB6v15006Ev: ; @_ZNKSt3__112basic_stringIcNS_11char_traitsIcEENS_9allocatorIcEEE6lengthB6v15006Ev
	.cfi_startproc
; %bb.0:
	sub	sp, sp, #32
	.cfi_def_cfa_offset 32
	stp	x29, x30, [sp, #16]             ; 16-byte Folded Spill
	add	x29, sp, #16
	.cfi_def_cfa w29, 16
	.cfi_offset w30, -8
	.cfi_offset w29, -16
	str	x0, [sp, #8]
	ldr	x0, [sp, #8]
	bl	__ZNKSt3__112basic_stringIcNS_11char_traitsIcEENS_9allocatorIcEEE4sizeB6v15006Ev
	ldp	x29, x30, [sp, #16]             ; 16-byte Folded Reload
	add	sp, sp, #32
	ret
	.cfi_endproc
                                        ; -- End function
	.private_extern	__ZNKSt3__112basic_stringIcNS_11char_traitsIcEENS_9allocatorIcEEE6substrB6v15006Emm ; -- Begin function _ZNKSt3__112basic_stringIcNS_11char_traitsIcEENS_9allocatorIcEEE6substrB6v15006Emm
	.globl	__ZNKSt3__112basic_stringIcNS_11char_traitsIcEENS_9allocatorIcEEE6substrB6v15006Emm
	.weak_definition	__ZNKSt3__112basic_stringIcNS_11char_traitsIcEENS_9allocatorIcEEE6substrB6v15006Emm
	.p2align	2
__ZNKSt3__112basic_stringIcNS_11char_traitsIcEENS_9allocatorIcEEE6substrB6v15006Emm: ; @_ZNKSt3__112basic_stringIcNS_11char_traitsIcEENS_9allocatorIcEEE6substrB6v15006Emm
	.cfi_startproc
; %bb.0:
	sub	sp, sp, #80
	.cfi_def_cfa_offset 80
	stp	x29, x30, [sp, #64]             ; 16-byte Folded Spill
	add	x29, sp, #64
	.cfi_def_cfa w29, 16
	.cfi_offset w30, -8
	.cfi_offset w29, -16
	str	x8, [sp, #24]                   ; 8-byte Folded Spill
	stur	x8, [x29, #-8]
	stur	x0, [x29, #-16]
	stur	x1, [x29, #-24]
	str	x2, [sp, #32]
	ldur	x0, [x29, #-16]
	str	x0, [sp]                        ; 8-byte Folded Spill
	ldur	x8, [x29, #-24]
	str	x8, [sp, #8]                    ; 8-byte Folded Spill
	ldr	x8, [sp, #32]
	str	x8, [sp, #16]                   ; 8-byte Folded Spill
	bl	__ZNKSt3__112basic_stringIcNS_11char_traitsIcEENS_9allocatorIcEEE7__allocB6v15006Ev
	ldr	x1, [sp]                        ; 8-byte Folded Reload
	ldr	x2, [sp, #8]                    ; 8-byte Folded Reload
	ldr	x3, [sp, #16]                   ; 8-byte Folded Reload
	mov	x4, x0
	ldr	x0, [sp, #24]                   ; 8-byte Folded Reload
	bl	__ZNSt3__112basic_stringIcNS_11char_traitsIcEENS_9allocatorIcEEEC1ERKS5_mmRKS4_
	ldp	x29, x30, [sp, #64]             ; 16-byte Folded Reload
	add	sp, sp, #80
	ret
	.cfi_endproc
                                        ; -- End function
	.globl	__ZN3map6Mapper8loadFileEv      ; -- Begin function _ZN3map6Mapper8loadFileEv
	.p2align	2
__ZN3map6Mapper8loadFileEv:             ; @_ZN3map6Mapper8loadFileEv
Lfunc_begin4:
	.cfi_startproc
	.cfi_personality 155, ___gxx_personality_v0
	.cfi_lsda 16, Lexception4
; %bb.0:
	stp	x28, x27, [sp, #-32]!           ; 16-byte Folded Spill
	.cfi_def_cfa_offset 32
	stp	x29, x30, [sp, #16]             ; 16-byte Folded Spill
	add	x29, sp, #16
	.cfi_def_cfa w29, 16
	.cfi_offset w30, -8
	.cfi_offset w29, -16
	.cfi_offset w27, -24
	.cfi_offset w28, -32
	sub	sp, sp, #1088
	add	x8, sp, #364
	str	x8, [sp, #152]                  ; 8-byte Folded Spill
	mov	x9, x0
	adrp	x0, __ZNSt3__14clogE@GOTPAGE
	ldr	x0, [x0, __ZNSt3__14clogE@GOTPAGEOFF]
	str	x0, [sp, #160]                  ; 8-byte Folded Spill
	adrp	x10, __ZNSt3__14endlIcNS_11char_traitsIcEEEERNS_13basic_ostreamIT_T0_EES7_@GOTPAGE
	ldr	x10, [x10, __ZNSt3__14endlIcNS_11char_traitsIcEEEERNS_13basic_ostreamIT_T0_EES7_@GOTPAGEOFF]
	str	x10, [sp, #168]                 ; 8-byte Folded Spill
	adrp	x10, ___stack_chk_guard@GOTPAGE
	ldr	x10, [x10, ___stack_chk_guard@GOTPAGEOFF]
	ldr	x10, [x10]
	stur	x10, [x29, #-24]
	stur	x9, [x8, #132]
	ldur	x8, [x8, #132]
	str	x8, [sp, #176]                  ; 8-byte Folded Spill
	adrp	x1, l_.str.32@PAGE
	add	x1, x1, l_.str.32@PAGEOFF
	bl	__ZNSt3__1lsINS_11char_traitsIcEEEERNS_13basic_ostreamIcT_EES6_PKc
	add	x0, sp, #472
	bl	__ZNSt3__112basic_stringIcNS_11char_traitsIcEENS_9allocatorIcEEEC1B6v15006Ev
	add	x0, sp, #448
	bl	__ZNSt3__112basic_stringIcNS_11char_traitsIcEENS_9allocatorIcEEEC1B6v15006Ev
	add	x0, sp, #424
	bl	__ZNSt3__112basic_stringIcNS_11char_traitsIcEENS_9allocatorIcEEEC1B6v15006Ev
	add	x0, sp, #400
	bl	__ZNSt3__112basic_stringIcNS_11char_traitsIcEENS_9allocatorIcEEEC1B6v15006Ev
	ldr	x1, [sp, #176]                  ; 8-byte Folded Reload
Ltmp53:
	add	x8, sp, #376
	adrp	x0, l_.str.10@PAGE
	add	x0, x0, l_.str.10@PAGEOFF
	bl	__ZNSt3__1plIcNS_11char_traitsIcEENS_9allocatorIcEEEENS_12basic_stringIT_T0_T1_EEPKS6_RKS9_
Ltmp54:
	b	LBB30_1
LBB30_1:
Ltmp56:
	add	x0, sp, #504
	add	x1, sp, #376
	mov	w2, #8
	bl	__ZNSt3__114basic_ifstreamIcNS_11char_traitsIcEEEC1ERKNS_12basic_stringIcS2_NS_9allocatorIcEEEEj
Ltmp57:
	b	LBB30_2
LBB30_2:
Ltmp59:
	add	x0, sp, #504
	bl	__ZNKSt3__114basic_ifstreamIcNS_11char_traitsIcEEE7is_openEv
	str	w0, [sp, #148]                  ; 4-byte Folded Spill
Ltmp60:
	b	LBB30_3
LBB30_3:
	ldr	w8, [sp, #148]                  ; 4-byte Folded Reload
	tbnz	w8, #0, LBB30_9
	b	LBB30_4
LBB30_4:
Ltmp136:
	adrp	x0, l___func__._ZN3map6Mapper8loadFileEv@PAGE
	add	x0, x0, l___func__._ZN3map6Mapper8loadFileEv@PAGEOFF
	adrp	x1, l_.str.3@PAGE
	add	x1, x1, l_.str.3@PAGEOFF
	mov	w2, #859
	adrp	x3, l_.str.33@PAGE
	add	x3, x3, l_.str.33@PAGEOFF
	bl	___assert_rtn
Ltmp137:
	b	LBB30_5
LBB30_5:
	brk	#0x1
LBB30_6:
Ltmp55:
	ldr	x9, [sp, #152]                  ; 8-byte Folded Reload
	mov	x8, x1
	stur	x0, [x9, #4]
	str	w8, [x9]
	b	LBB30_75
LBB30_7:
Ltmp58:
	ldr	x9, [sp, #152]                  ; 8-byte Folded Reload
	mov	x8, x1
	stur	x0, [x9, #4]
	str	w8, [x9]
	b	LBB30_74
LBB30_8:
Ltmp138:
	ldr	x9, [sp, #152]                  ; 8-byte Folded Reload
	mov	x8, x1
	stur	x0, [x9, #4]
	str	w8, [x9]
	b	LBB30_73
LBB30_9:
	b	LBB30_10
LBB30_10:
	add	x0, sp, #336
	bl	__ZNSt3__112basic_stringIcNS_11char_traitsIcEENS_9allocatorIcEEEC1B6v15006Ev
Ltmp61:
	add	x0, sp, #504
	add	x1, sp, #472
	bl	__ZNSt3__17getlineB6v15006IcNS_11char_traitsIcEENS_9allocatorIcEEEERNS_13basic_istreamIT_T0_EES9_RNS_12basic_stringIS6_S7_T1_EE
Ltmp62:
	b	LBB30_11
LBB30_11:
Ltmp63:
	ldr	x0, [sp, #160]                  ; 8-byte Folded Reload
	adrp	x1, l_.str.34@PAGE
	add	x1, x1, l_.str.34@PAGEOFF
	bl	__ZNSt3__1lsINS_11char_traitsIcEEEERNS_13basic_ostreamIcT_EES6_PKc
	str	x0, [sp, #136]                  ; 8-byte Folded Spill
Ltmp64:
	b	LBB30_12
LBB30_12:
Ltmp65:
	ldr	x0, [sp, #136]                  ; 8-byte Folded Reload
	add	x1, sp, #472
	bl	__ZNSt3__1lsIcNS_11char_traitsIcEENS_9allocatorIcEEEERNS_13basic_ostreamIT_T0_EES9_RKNS_12basic_stringIS6_S7_T1_EE
	str	x0, [sp, #128]                  ; 8-byte Folded Spill
Ltmp66:
	b	LBB30_13
LBB30_13:
Ltmp67:
	ldr	x1, [sp, #168]                  ; 8-byte Folded Reload
	ldr	x0, [sp, #128]                  ; 8-byte Folded Reload
	bl	__ZNSt3__113basic_ostreamIcNS_11char_traitsIcEEElsB6v15006EPFRS3_S4_E
Ltmp68:
	b	LBB30_14
LBB30_14:
Ltmp69:
	add	x0, sp, #504
	add	x1, sp, #424
	bl	__ZNSt3__1rsIcNS_11char_traitsIcEENS_9allocatorIcEEEERNS_13basic_istreamIT_T0_EES9_RNS_12basic_stringIS6_S7_T1_EE
Ltmp70:
	b	LBB30_15
LBB30_15:
Ltmp71:
	ldr	x0, [sp, #160]                  ; 8-byte Folded Reload
	adrp	x1, l_.str.35@PAGE
	add	x1, x1, l_.str.35@PAGEOFF
	bl	__ZNSt3__1lsINS_11char_traitsIcEEEERNS_13basic_ostreamIcT_EES6_PKc
	str	x0, [sp, #120]                  ; 8-byte Folded Spill
Ltmp72:
	b	LBB30_16
LBB30_16:
Ltmp73:
	ldr	x0, [sp, #120]                  ; 8-byte Folded Reload
	add	x1, sp, #424
	bl	__ZNSt3__1lsIcNS_11char_traitsIcEENS_9allocatorIcEEEERNS_13basic_ostreamIT_T0_EES9_RKNS_12basic_stringIS6_S7_T1_EE
	str	x0, [sp, #112]                  ; 8-byte Folded Spill
Ltmp74:
	b	LBB30_17
LBB30_17:
Ltmp75:
	ldr	x1, [sp, #168]                  ; 8-byte Folded Reload
	ldr	x0, [sp, #112]                  ; 8-byte Folded Reload
	bl	__ZNSt3__113basic_ostreamIcNS_11char_traitsIcEEElsB6v15006EPFRS3_S4_E
Ltmp76:
	b	LBB30_18
LBB30_18:
Ltmp77:
	add	x0, sp, #504
	add	x1, sp, #448
	bl	__ZNSt3__1rsIcNS_11char_traitsIcEENS_9allocatorIcEEEERNS_13basic_istreamIT_T0_EES9_RNS_12basic_stringIS6_S7_T1_EE
Ltmp78:
	b	LBB30_19
LBB30_19:
Ltmp79:
	ldr	x0, [sp, #160]                  ; 8-byte Folded Reload
	adrp	x1, l_.str.36@PAGE
	add	x1, x1, l_.str.36@PAGEOFF
	bl	__ZNSt3__1lsINS_11char_traitsIcEEEERNS_13basic_ostreamIcT_EES6_PKc
	str	x0, [sp, #104]                  ; 8-byte Folded Spill
Ltmp80:
	b	LBB30_20
LBB30_20:
Ltmp81:
	ldr	x0, [sp, #104]                  ; 8-byte Folded Reload
	add	x1, sp, #448
	bl	__ZNSt3__1lsIcNS_11char_traitsIcEENS_9allocatorIcEEEERNS_13basic_ostreamIT_T0_EES9_RKNS_12basic_stringIS6_S7_T1_EE
	str	x0, [sp, #96]                   ; 8-byte Folded Spill
Ltmp82:
	b	LBB30_21
LBB30_21:
Ltmp83:
	ldr	x1, [sp, #168]                  ; 8-byte Folded Reload
	ldr	x0, [sp, #96]                   ; 8-byte Folded Reload
	bl	__ZNSt3__113basic_ostreamIcNS_11char_traitsIcEEElsB6v15006EPFRS3_S4_E
Ltmp84:
	b	LBB30_22
LBB30_22:
Ltmp85:
	add	x0, sp, #504
	add	x1, sp, #400
	bl	__ZNSt3__1rsIcNS_11char_traitsIcEENS_9allocatorIcEEEERNS_13basic_istreamIT_T0_EES9_RNS_12basic_stringIS6_S7_T1_EE
Ltmp86:
	b	LBB30_23
LBB30_23:
Ltmp87:
	ldr	x0, [sp, #160]                  ; 8-byte Folded Reload
	adrp	x1, l_.str.37@PAGE
	add	x1, x1, l_.str.37@PAGEOFF
	bl	__ZNSt3__1lsINS_11char_traitsIcEEEERNS_13basic_ostreamIcT_EES6_PKc
	str	x0, [sp, #88]                   ; 8-byte Folded Spill
Ltmp88:
	b	LBB30_24
LBB30_24:
Ltmp89:
	ldr	x0, [sp, #88]                   ; 8-byte Folded Reload
	add	x1, sp, #400
	bl	__ZNSt3__1lsIcNS_11char_traitsIcEENS_9allocatorIcEEEERNS_13basic_ostreamIT_T0_EES9_RKNS_12basic_stringIS6_S7_T1_EE
	str	x0, [sp, #80]                   ; 8-byte Folded Spill
Ltmp90:
	b	LBB30_25
LBB30_25:
Ltmp91:
	ldr	x1, [sp, #168]                  ; 8-byte Folded Reload
	ldr	x0, [sp, #80]                   ; 8-byte Folded Reload
	bl	__ZNSt3__113basic_ostreamIcNS_11char_traitsIcEEElsB6v15006EPFRS3_S4_E
Ltmp92:
	b	LBB30_26
LBB30_26:
Ltmp93:
	add	x0, sp, #312
	add	x1, sp, #472
	bl	__ZNSt3__112basic_stringIcNS_11char_traitsIcEENS_9allocatorIcEEEC1ERKS5_
Ltmp94:
	b	LBB30_27
LBB30_27:
Ltmp95:
	add	x0, sp, #288
	add	x1, sp, #448
	bl	__ZNSt3__112basic_stringIcNS_11char_traitsIcEENS_9allocatorIcEEEC1ERKS5_
Ltmp96:
	b	LBB30_28
LBB30_28:
Ltmp98:
	add	x0, sp, #264
	add	x1, sp, #424
	bl	__ZNSt3__112basic_stringIcNS_11char_traitsIcEENS_9allocatorIcEEEC1ERKS5_
Ltmp99:
	b	LBB30_29
LBB30_29:
Ltmp101:
	add	x0, sp, #240
	add	x1, sp, #400
	bl	__ZNSt3__112basic_stringIcNS_11char_traitsIcEENS_9allocatorIcEEEC1ERKS5_
Ltmp102:
	b	LBB30_30
LBB30_30:
Ltmp104:
	add	x0, sp, #312
	add	x1, sp, #288
	add	x2, sp, #264
	add	x3, sp, #240
	bl	__Z14areValidStringNSt3__112basic_stringIcNS_11char_traitsIcEENS_9allocatorIcEEEES5_S5_S5_
	str	w0, [sp, #76]                   ; 4-byte Folded Spill
Ltmp105:
	b	LBB30_31
LBB30_31:
	ldr	w8, [sp, #76]                   ; 4-byte Folded Reload
	tbnz	w8, #0, LBB30_39
	b	LBB30_32
LBB30_32:
Ltmp133:
	adrp	x0, l___func__._ZN3map6Mapper8loadFileEv@PAGE
	add	x0, x0, l___func__._ZN3map6Mapper8loadFileEv@PAGEOFF
	adrp	x1, l_.str.3@PAGE
	add	x1, x1, l_.str.3@PAGEOFF
	mov	w2, #873
	adrp	x3, l_.str.38@PAGE
	add	x3, x3, l_.str.38@PAGEOFF
	bl	___assert_rtn
Ltmp134:
	b	LBB30_33
LBB30_33:
	brk	#0x1
LBB30_34:
Ltmp114:
	ldr	x9, [sp, #152]                  ; 8-byte Folded Reload
	mov	x8, x1
	stur	x0, [x9, #4]
	str	w8, [x9]
	b	LBB30_72
LBB30_35:
Ltmp97:
	ldr	x9, [sp, #152]                  ; 8-byte Folded Reload
	mov	x8, x1
	stur	x0, [x9, #4]
	str	w8, [x9]
	b	LBB30_61
LBB30_36:
Ltmp100:
	ldr	x9, [sp, #152]                  ; 8-byte Folded Reload
	mov	x8, x1
	stur	x0, [x9, #4]
	str	w8, [x9]
	b	LBB30_60
LBB30_37:
Ltmp103:
	ldr	x9, [sp, #152]                  ; 8-byte Folded Reload
	mov	x8, x1
	stur	x0, [x9, #4]
	str	w8, [x9]
	b	LBB30_59
LBB30_38:
Ltmp135:
	ldr	x9, [sp, #152]                  ; 8-byte Folded Reload
	mov	x8, x1
	stur	x0, [x9, #4]
	str	w8, [x9]
	add	x0, sp, #240
	bl	__ZNSt3__112basic_stringIcNS_11char_traitsIcEENS_9allocatorIcEEED1Ev
	b	LBB30_59
LBB30_39:
	b	LBB30_40
LBB30_40:
	add	x0, sp, #240
	bl	__ZNSt3__112basic_stringIcNS_11char_traitsIcEENS_9allocatorIcEEED1Ev
	add	x0, sp, #264
	bl	__ZNSt3__112basic_stringIcNS_11char_traitsIcEENS_9allocatorIcEEED1Ev
	add	x0, sp, #288
	bl	__ZNSt3__112basic_stringIcNS_11char_traitsIcEENS_9allocatorIcEEED1Ev
	add	x0, sp, #312
	bl	__ZNSt3__112basic_stringIcNS_11char_traitsIcEENS_9allocatorIcEEED1Ev
	ldr	x8, [sp, #176]                  ; 8-byte Folded Reload
	add	x0, x8, #64
Ltmp106:
	add	x1, sp, #472
	bl	__ZNSt3__112basic_stringIcNS_11char_traitsIcEENS_9allocatorIcEEEaSERKS5_
Ltmp107:
	b	LBB30_41
LBB30_41:
Ltmp108:
	add	x0, sp, #448
	mov	x1, #0
	mov	w2, #10
	bl	__ZNSt3__14stoiERKNS_12basic_stringIcNS_11char_traitsIcEENS_9allocatorIcEEEEPmi
	str	w0, [sp, #72]                   ; 4-byte Folded Spill
Ltmp109:
	b	LBB30_42
LBB30_42:
	ldr	w8, [sp, #72]                   ; 4-byte Folded Reload
	ldr	x9, [sp, #176]                  ; 8-byte Folded Reload
	str	w8, [x9, #48]
Ltmp110:
	add	x0, sp, #424
	mov	x1, #0
	mov	w2, #10
	bl	__ZNSt3__14stoiERKNS_12basic_stringIcNS_11char_traitsIcEENS_9allocatorIcEEEEPmi
	str	w0, [sp, #68]                   ; 4-byte Folded Spill
Ltmp111:
	b	LBB30_43
LBB30_43:
	ldr	w8, [sp, #68]                   ; 4-byte Folded Reload
	ldr	x9, [sp, #176]                  ; 8-byte Folded Reload
	str	w8, [x9, #52]
Ltmp112:
	add	x0, sp, #400
	mov	x1, #0
	mov	w2, #10
	bl	__ZNSt3__14stoiERKNS_12basic_stringIcNS_11char_traitsIcEENS_9allocatorIcEEEEPmi
	str	w0, [sp, #64]                   ; 4-byte Folded Spill
Ltmp113:
	b	LBB30_44
LBB30_44:
	ldr	x9, [sp, #176]                  ; 8-byte Folded Reload
	ldr	w8, [sp, #64]                   ; 4-byte Folded Reload
	str	w8, [x9, #88]
	add	x0, sp, #200
	bl	__ZNSt3__112basic_stringIcNS_11char_traitsIcEENS_9allocatorIcEEEC1B6v15006Ev
	ldr	x9, [sp, #176]                  ; 8-byte Folded Reload
	ldr	w8, [x9, #48]
	ldr	w9, [x9, #52]
	mul	w8, w8, w9
	str	w8, [sp, #44]                   ; 4-byte Folded Spill
                                        ; implicit-def: $x9
	mov	x9, x8
	sxtw	x9, w9
	str	x9, [sp, #48]                   ; 8-byte Folded Spill
	mov	x10, #6
	umulh	x9, x9, x10
	mov	w10, #6
	smull	x8, w8, w10
	subs	x9, x9, #0
	cset	w9, ne
	and	w9, w9, #0x1
	ands	w9, w9, #0x1
	csinv	x0, x8, xzr, eq
Ltmp115:
	bl	__Znam
	str	x0, [sp, #56]                   ; 8-byte Folded Spill
Ltmp116:
	b	LBB30_45
LBB30_45:
	ldr	x8, [sp, #48]                   ; 8-byte Folded Reload
	subs	x8, x8, #0
	cset	w8, eq
	tbnz	w8, #0, LBB30_49
	b	LBB30_46
LBB30_46:
	ldr	x8, [sp, #56]                   ; 8-byte Folded Reload
	ldr	w9, [sp, #44]                   ; 4-byte Folded Reload
	mov	w10, #6
	smaddl	x9, w9, w10, x8
	str	x9, [sp, #24]                   ; 8-byte Folded Spill
	str	x8, [sp, #32]                   ; 8-byte Folded Spill
	b	LBB30_47
LBB30_47:                               ; =>This Inner Loop Header: Depth=1
Ltmp117:
	ldr	x0, [sp, #32]                   ; 8-byte Folded Reload
	str	x0, [sp, #16]                   ; 8-byte Folded Spill
	bl	__ZN3map3clr3RGBC1Ev
Ltmp118:
	b	LBB30_48
LBB30_48:                               ;   in Loop: Header=BB30_47 Depth=1
	ldr	x8, [sp, #24]                   ; 8-byte Folded Reload
	ldr	x9, [sp, #16]                   ; 8-byte Folded Reload
	add	x9, x9, #6
	subs	x8, x9, x8
	cset	w8, ne
	str	x9, [sp, #32]                   ; 8-byte Folded Spill
	tbnz	w8, #0, LBB30_47
	b	LBB30_49
LBB30_49:
	ldr	x8, [sp, #56]                   ; 8-byte Folded Reload
	ldr	x9, [sp, #176]                  ; 8-byte Folded Reload
	str	x8, [x9, #96]
	str	wzr, [sp, #196]
	b	LBB30_50
LBB30_50:                               ; =>This Loop Header: Depth=1
                                        ;     Child Loop BB30_52 Depth 2
	ldr	x9, [sp, #176]                  ; 8-byte Folded Reload
	ldr	w8, [sp, #196]
	ldr	w9, [x9, #48]
	subs	w8, w8, w9
	cset	w8, ge
	tbnz	w8, #0, LBB30_67
	b	LBB30_51
LBB30_51:                               ;   in Loop: Header=BB30_50 Depth=1
	str	wzr, [sp, #192]
	b	LBB30_52
LBB30_52:                               ;   Parent Loop BB30_50 Depth=1
                                        ; =>  This Inner Loop Header: Depth=2
	ldr	x9, [sp, #176]                  ; 8-byte Folded Reload
	ldr	w8, [sp, #192]
	ldr	w9, [x9, #52]
	subs	w8, w8, w9
	cset	w8, ge
	tbnz	w8, #0, LBB30_64
	b	LBB30_53
LBB30_53:                               ;   in Loop: Header=BB30_52 Depth=2
Ltmp124:
	add	x0, sp, #504
	add	x1, sp, #236
	bl	__ZNSt3__113basic_istreamIcNS_11char_traitsIcEEErsERi
	str	x0, [sp, #8]                    ; 8-byte Folded Spill
Ltmp125:
	b	LBB30_54
LBB30_54:                               ;   in Loop: Header=BB30_52 Depth=2
Ltmp126:
	ldr	x0, [sp, #8]                    ; 8-byte Folded Reload
	add	x1, sp, #232
	bl	__ZNSt3__113basic_istreamIcNS_11char_traitsIcEEErsERi
	str	x0, [sp]                        ; 8-byte Folded Spill
Ltmp127:
	b	LBB30_55
LBB30_55:                               ;   in Loop: Header=BB30_52 Depth=2
Ltmp128:
	ldr	x0, [sp]                        ; 8-byte Folded Reload
	add	x1, sp, #228
	bl	__ZNSt3__113basic_istreamIcNS_11char_traitsIcEEErsERi
Ltmp129:
	b	LBB30_56
LBB30_56:                               ;   in Loop: Header=BB30_52 Depth=2
	ldr	w1, [sp, #236]
	ldr	w2, [sp, #232]
	ldr	w3, [sp, #228]
Ltmp130:
	add	x0, sp, #186
	bl	__ZN3map3clr3RGBC1Eiii
Ltmp131:
	b	LBB30_57
LBB30_57:                               ;   in Loop: Header=BB30_52 Depth=2
	ldr	x9, [sp, #176]                  ; 8-byte Folded Reload
	ldr	x10, [x9, #96]
	ldr	w8, [sp, #196]
	ldr	w9, [x9, #52]
	mul	w8, w8, w9
	ldr	w9, [sp, #192]
	add	w8, w8, w9
	mov	w9, #6
	smaddl	x9, w8, w9, x10
	ldur	w8, [sp, #186]
	str	w8, [x9]
	ldrh	w8, [sp, #190]
	strh	w8, [x9, #4]
	b	LBB30_58
LBB30_58:                               ;   in Loop: Header=BB30_52 Depth=2
	ldr	w8, [sp, #192]
	add	w8, w8, #1
	str	w8, [sp, #192]
	b	LBB30_52
LBB30_59:
	add	x0, sp, #264
	bl	__ZNSt3__112basic_stringIcNS_11char_traitsIcEENS_9allocatorIcEEED1Ev
	b	LBB30_60
LBB30_60:
	add	x0, sp, #288
	bl	__ZNSt3__112basic_stringIcNS_11char_traitsIcEENS_9allocatorIcEEED1Ev
	b	LBB30_61
LBB30_61:
	add	x0, sp, #312
	bl	__ZNSt3__112basic_stringIcNS_11char_traitsIcEENS_9allocatorIcEEED1Ev
	b	LBB30_72
LBB30_62:
Ltmp132:
	ldr	x9, [sp, #152]                  ; 8-byte Folded Reload
	mov	x8, x1
	stur	x0, [x9, #4]
	str	w8, [x9]
	b	LBB30_71
LBB30_63:
Ltmp119:
	ldr	x9, [sp, #152]                  ; 8-byte Folded Reload
	mov	x10, x0
	ldr	x0, [sp, #56]                   ; 8-byte Folded Reload
	mov	x8, x1
	stur	x10, [x9, #4]
	str	w8, [x9]
	bl	__ZdaPv
	b	LBB30_71
LBB30_64:                               ;   in Loop: Header=BB30_50 Depth=1
Ltmp122:
	add	x0, sp, #504
	add	x1, sp, #200
	bl	__ZNSt3__17getlineB6v15006IcNS_11char_traitsIcEENS_9allocatorIcEEEERNS_13basic_istreamIT_T0_EES9_RNS_12basic_stringIS6_S7_T1_EE
Ltmp123:
	b	LBB30_65
LBB30_65:                               ;   in Loop: Header=BB30_50 Depth=1
	b	LBB30_66
LBB30_66:                               ;   in Loop: Header=BB30_50 Depth=1
	ldr	w8, [sp, #196]
	add	w8, w8, #1
	str	w8, [sp, #196]
	b	LBB30_50
LBB30_67:
Ltmp120:
	add	x0, sp, #504
	bl	__ZNSt3__114basic_ifstreamIcNS_11char_traitsIcEEE5closeEv
Ltmp121:
	b	LBB30_68
LBB30_68:
	add	x0, sp, #200
	bl	__ZNSt3__112basic_stringIcNS_11char_traitsIcEENS_9allocatorIcEEED1Ev
	add	x0, sp, #336
	bl	__ZNSt3__112basic_stringIcNS_11char_traitsIcEENS_9allocatorIcEEED1Ev
	add	x0, sp, #504
	bl	__ZNSt3__114basic_ifstreamIcNS_11char_traitsIcEEED1Ev
	add	x0, sp, #376
	bl	__ZNSt3__112basic_stringIcNS_11char_traitsIcEENS_9allocatorIcEEED1Ev
	add	x0, sp, #400
	bl	__ZNSt3__112basic_stringIcNS_11char_traitsIcEENS_9allocatorIcEEED1Ev
	add	x0, sp, #424
	bl	__ZNSt3__112basic_stringIcNS_11char_traitsIcEENS_9allocatorIcEEED1Ev
	add	x0, sp, #448
	bl	__ZNSt3__112basic_stringIcNS_11char_traitsIcEENS_9allocatorIcEEED1Ev
	add	x0, sp, #472
	bl	__ZNSt3__112basic_stringIcNS_11char_traitsIcEENS_9allocatorIcEEED1Ev
	ldur	x9, [x29, #-24]
	adrp	x8, ___stack_chk_guard@GOTPAGE
	ldr	x8, [x8, ___stack_chk_guard@GOTPAGEOFF]
	ldr	x8, [x8]
	subs	x8, x8, x9
	cset	w8, eq
	tbnz	w8, #0, LBB30_70
	b	LBB30_69
LBB30_69:
	bl	___stack_chk_fail
LBB30_70:
	add	sp, sp, #1088
	ldp	x29, x30, [sp, #16]             ; 16-byte Folded Reload
	ldp	x28, x27, [sp], #32             ; 16-byte Folded Reload
	ret
LBB30_71:
	add	x0, sp, #200
	bl	__ZNSt3__112basic_stringIcNS_11char_traitsIcEENS_9allocatorIcEEED1Ev
	b	LBB30_72
LBB30_72:
	add	x0, sp, #336
	bl	__ZNSt3__112basic_stringIcNS_11char_traitsIcEENS_9allocatorIcEEED1Ev
	b	LBB30_73
LBB30_73:
	add	x0, sp, #504
	bl	__ZNSt3__114basic_ifstreamIcNS_11char_traitsIcEEED1Ev
	b	LBB30_74
LBB30_74:
	add	x0, sp, #376
	bl	__ZNSt3__112basic_stringIcNS_11char_traitsIcEENS_9allocatorIcEEED1Ev
	b	LBB30_75
LBB30_75:
	add	x0, sp, #400
	bl	__ZNSt3__112basic_stringIcNS_11char_traitsIcEENS_9allocatorIcEEED1Ev
	add	x0, sp, #424
	bl	__ZNSt3__112basic_stringIcNS_11char_traitsIcEENS_9allocatorIcEEED1Ev
	add	x0, sp, #448
	bl	__ZNSt3__112basic_stringIcNS_11char_traitsIcEENS_9allocatorIcEEED1Ev
	add	x0, sp, #472
	bl	__ZNSt3__112basic_stringIcNS_11char_traitsIcEENS_9allocatorIcEEED1Ev
	b	LBB30_76
LBB30_76:
	ldr	x8, [sp, #152]                  ; 8-byte Folded Reload
	ldur	x0, [x8, #4]
	bl	__Unwind_Resume
Lfunc_end4:
	.cfi_endproc
	.section	__TEXT,__gcc_except_tab
	.p2align	2
GCC_except_table30:
Lexception4:
	.byte	255                             ; @LPStart Encoding = omit
	.byte	255                             ; @TType Encoding = omit
	.byte	1                               ; Call site Encoding = uleb128
	.uleb128 Lcst_end4-Lcst_begin4
Lcst_begin4:
	.uleb128 Lfunc_begin4-Lfunc_begin4      ; >> Call Site 1 <<
	.uleb128 Ltmp53-Lfunc_begin4            ;   Call between Lfunc_begin4 and Ltmp53
	.byte	0                               ;     has no landing pad
	.byte	0                               ;   On action: cleanup
	.uleb128 Ltmp53-Lfunc_begin4            ; >> Call Site 2 <<
	.uleb128 Ltmp54-Ltmp53                  ;   Call between Ltmp53 and Ltmp54
	.uleb128 Ltmp55-Lfunc_begin4            ;     jumps to Ltmp55
	.byte	0                               ;   On action: cleanup
	.uleb128 Ltmp56-Lfunc_begin4            ; >> Call Site 3 <<
	.uleb128 Ltmp57-Ltmp56                  ;   Call between Ltmp56 and Ltmp57
	.uleb128 Ltmp58-Lfunc_begin4            ;     jumps to Ltmp58
	.byte	0                               ;   On action: cleanup
	.uleb128 Ltmp59-Lfunc_begin4            ; >> Call Site 4 <<
	.uleb128 Ltmp137-Ltmp59                 ;   Call between Ltmp59 and Ltmp137
	.uleb128 Ltmp138-Lfunc_begin4           ;     jumps to Ltmp138
	.byte	0                               ;   On action: cleanup
	.uleb128 Ltmp61-Lfunc_begin4            ; >> Call Site 5 <<
	.uleb128 Ltmp94-Ltmp61                  ;   Call between Ltmp61 and Ltmp94
	.uleb128 Ltmp114-Lfunc_begin4           ;     jumps to Ltmp114
	.byte	0                               ;   On action: cleanup
	.uleb128 Ltmp95-Lfunc_begin4            ; >> Call Site 6 <<
	.uleb128 Ltmp96-Ltmp95                  ;   Call between Ltmp95 and Ltmp96
	.uleb128 Ltmp97-Lfunc_begin4            ;     jumps to Ltmp97
	.byte	0                               ;   On action: cleanup
	.uleb128 Ltmp98-Lfunc_begin4            ; >> Call Site 7 <<
	.uleb128 Ltmp99-Ltmp98                  ;   Call between Ltmp98 and Ltmp99
	.uleb128 Ltmp100-Lfunc_begin4           ;     jumps to Ltmp100
	.byte	0                               ;   On action: cleanup
	.uleb128 Ltmp101-Lfunc_begin4           ; >> Call Site 8 <<
	.uleb128 Ltmp102-Ltmp101                ;   Call between Ltmp101 and Ltmp102
	.uleb128 Ltmp103-Lfunc_begin4           ;     jumps to Ltmp103
	.byte	0                               ;   On action: cleanup
	.uleb128 Ltmp104-Lfunc_begin4           ; >> Call Site 9 <<
	.uleb128 Ltmp134-Ltmp104                ;   Call between Ltmp104 and Ltmp134
	.uleb128 Ltmp135-Lfunc_begin4           ;     jumps to Ltmp135
	.byte	0                               ;   On action: cleanup
	.uleb128 Ltmp106-Lfunc_begin4           ; >> Call Site 10 <<
	.uleb128 Ltmp113-Ltmp106                ;   Call between Ltmp106 and Ltmp113
	.uleb128 Ltmp114-Lfunc_begin4           ;     jumps to Ltmp114
	.byte	0                               ;   On action: cleanup
	.uleb128 Ltmp115-Lfunc_begin4           ; >> Call Site 11 <<
	.uleb128 Ltmp116-Ltmp115                ;   Call between Ltmp115 and Ltmp116
	.uleb128 Ltmp132-Lfunc_begin4           ;     jumps to Ltmp132
	.byte	0                               ;   On action: cleanup
	.uleb128 Ltmp117-Lfunc_begin4           ; >> Call Site 12 <<
	.uleb128 Ltmp118-Ltmp117                ;   Call between Ltmp117 and Ltmp118
	.uleb128 Ltmp119-Lfunc_begin4           ;     jumps to Ltmp119
	.byte	0                               ;   On action: cleanup
	.uleb128 Ltmp124-Lfunc_begin4           ; >> Call Site 13 <<
	.uleb128 Ltmp121-Ltmp124                ;   Call between Ltmp124 and Ltmp121
	.uleb128 Ltmp132-Lfunc_begin4           ;     jumps to Ltmp132
	.byte	0                               ;   On action: cleanup
	.uleb128 Ltmp121-Lfunc_begin4           ; >> Call Site 14 <<
	.uleb128 Lfunc_end4-Ltmp121             ;   Call between Ltmp121 and Lfunc_end4
	.byte	0                               ;     has no landing pad
	.byte	0                               ;   On action: cleanup
Lcst_end4:
	.p2align	2
                                        ; -- End function
	.section	__TEXT,__text,regular,pure_instructions
	.globl	__ZN3map6Mapper9resetFileEv     ; -- Begin function _ZN3map6Mapper9resetFileEv
	.p2align	2
__ZN3map6Mapper9resetFileEv:            ; @_ZN3map6Mapper9resetFileEv
Lfunc_begin5:
	.cfi_startproc
	.cfi_personality 155, ___gxx_personality_v0
	.cfi_lsda 16, Lexception5
; %bb.0:
	sub	sp, sp, #112
	.cfi_def_cfa_offset 112
	stp	x29, x30, [sp, #96]             ; 16-byte Folded Spill
	add	x29, sp, #96
	.cfi_def_cfa w29, 16
	.cfi_offset w30, -8
	.cfi_offset w29, -16
	stur	x0, [x29, #-8]
	ldur	x8, [x29, #-8]
	str	x8, [sp, #24]                   ; 8-byte Folded Spill
	adrp	x0, __ZNSt3__14clogE@GOTPAGE
	ldr	x0, [x0, __ZNSt3__14clogE@GOTPAGEOFF]
	adrp	x1, l_.str.31@PAGE
	add	x1, x1, l_.str.31@PAGEOFF
	bl	__ZNSt3__1lsINS_11char_traitsIcEEEERNS_13basic_ostreamIcT_EES6_PKc
	ldr	x9, [sp, #24]                   ; 8-byte Folded Reload
	ldr	w8, [x9, #48]
	ldr	w9, [x9, #52]
	mul	w8, w8, w9
	str	w8, [sp, #36]                   ; 4-byte Folded Spill
                                        ; implicit-def: $x9
	mov	x9, x8
	sxtw	x9, w9
	str	x9, [sp, #40]                   ; 8-byte Folded Spill
	mov	x10, #6
	umulh	x9, x9, x10
	mov	w10, #6
	smull	x8, w8, w10
	subs	x9, x9, #0
	cset	w9, ne
	and	w9, w9, #0x1
	ands	w9, w9, #0x1
	csinv	x0, x8, xzr, eq
	bl	__Znam
	ldr	x8, [sp, #40]                   ; 8-byte Folded Reload
	str	x0, [sp, #48]                   ; 8-byte Folded Spill
	subs	x8, x8, #0
	cset	w8, eq
	tbnz	w8, #0, LBB31_4
	b	LBB31_1
LBB31_1:
	ldr	x8, [sp, #48]                   ; 8-byte Folded Reload
	ldr	w9, [sp, #36]                   ; 4-byte Folded Reload
	mov	w10, #6
	smaddl	x9, w9, w10, x8
	str	x9, [sp, #8]                    ; 8-byte Folded Spill
	str	x8, [sp, #16]                   ; 8-byte Folded Spill
	b	LBB31_2
LBB31_2:                                ; =>This Inner Loop Header: Depth=1
Ltmp139:
	ldr	x0, [sp, #16]                   ; 8-byte Folded Reload
	str	x0, [sp]                        ; 8-byte Folded Spill
	bl	__ZN3map3clr3RGBC1Ev
Ltmp140:
	b	LBB31_3
LBB31_3:                                ;   in Loop: Header=BB31_2 Depth=1
	ldr	x8, [sp, #8]                    ; 8-byte Folded Reload
	ldr	x9, [sp]                        ; 8-byte Folded Reload
	add	x9, x9, #6
	subs	x8, x9, x8
	cset	w8, ne
	str	x9, [sp, #16]                   ; 8-byte Folded Spill
	tbnz	w8, #0, LBB31_2
	b	LBB31_4
LBB31_4:
	ldr	x0, [sp, #24]                   ; 8-byte Folded Reload
	ldr	x8, [sp, #48]                   ; 8-byte Folded Reload
	str	x8, [x0, #96]
	adrp	x8, __ZN3map3clrL5WHITEE@PAGE
	add	x8, x8, __ZN3map3clrL5WHITEE@PAGEOFF
	ldr	w9, [x8]
	stur	w9, [x29, #-28]
	ldrh	w8, [x8, #4]
	sturh	w8, [x29, #-24]
	ldur	w8, [x29, #-28]
	stur	w8, [x29, #-40]
	ldurh	w8, [x29, #-24]
	sturh	w8, [x29, #-36]
	ldur	x1, [x29, #-40]
	bl	__ZN3map6Mapper4fillENS_3clr3RGBE
	ldp	x29, x30, [sp, #96]             ; 16-byte Folded Reload
	add	sp, sp, #112
	ret
LBB31_5:
Ltmp141:
	mov	x9, x0
	ldr	x0, [sp, #48]                   ; 8-byte Folded Reload
	mov	x8, x1
	stur	x9, [x29, #-16]
	stur	w8, [x29, #-20]
	bl	__ZdaPv
	b	LBB31_6
LBB31_6:
	ldur	x0, [x29, #-16]
	bl	__Unwind_Resume
Lfunc_end5:
	.cfi_endproc
	.section	__TEXT,__gcc_except_tab
	.p2align	2
GCC_except_table31:
Lexception5:
	.byte	255                             ; @LPStart Encoding = omit
	.byte	255                             ; @TType Encoding = omit
	.byte	1                               ; Call site Encoding = uleb128
	.uleb128 Lcst_end5-Lcst_begin5
Lcst_begin5:
	.uleb128 Lfunc_begin5-Lfunc_begin5      ; >> Call Site 1 <<
	.uleb128 Ltmp139-Lfunc_begin5           ;   Call between Lfunc_begin5 and Ltmp139
	.byte	0                               ;     has no landing pad
	.byte	0                               ;   On action: cleanup
	.uleb128 Ltmp139-Lfunc_begin5           ; >> Call Site 2 <<
	.uleb128 Ltmp140-Ltmp139                ;   Call between Ltmp139 and Ltmp140
	.uleb128 Ltmp141-Lfunc_begin5           ;     jumps to Ltmp141
	.byte	0                               ;   On action: cleanup
	.uleb128 Ltmp140-Lfunc_begin5           ; >> Call Site 3 <<
	.uleb128 Lfunc_end5-Ltmp140             ;   Call between Ltmp140 and Lfunc_end5
	.byte	0                               ;     has no landing pad
	.byte	0                               ;   On action: cleanup
Lcst_end5:
	.p2align	2
                                        ; -- End function
	.section	__TEXT,__text,regular,pure_instructions
	.globl	__ZN3map6MapperC1ENSt3__112basic_stringIcNS1_11char_traitsIcEENS1_9allocatorIcEEEENS_4SizeENS_8LoadtypeE ; -- Begin function _ZN3map6MapperC1ENSt3__112basic_stringIcNS1_11char_traitsIcEENS1_9allocatorIcEEEENS_4SizeENS_8LoadtypeE
	.p2align	2
__ZN3map6MapperC1ENSt3__112basic_stringIcNS1_11char_traitsIcEENS1_9allocatorIcEEEENS_4SizeENS_8LoadtypeE: ; @_ZN3map6MapperC1ENSt3__112basic_stringIcNS1_11char_traitsIcEENS1_9allocatorIcEEEENS_4SizeENS_8LoadtypeE
	.cfi_startproc
; %bb.0:
	sub	sp, sp, #48
	.cfi_def_cfa_offset 48
	stp	x29, x30, [sp, #32]             ; 16-byte Folded Spill
	add	x29, sp, #32
	.cfi_def_cfa w29, 16
	.cfi_offset w30, -8
	.cfi_offset w29, -16
	stur	x2, [x29, #-8]
	str	x0, [sp, #16]
	str	w3, [sp, #12]
	ldr	x0, [sp, #16]
	str	x0, [sp]                        ; 8-byte Folded Spill
	ldr	w3, [sp, #12]
	ldur	x2, [x29, #-8]
	bl	__ZN3map6MapperC2ENSt3__112basic_stringIcNS1_11char_traitsIcEENS1_9allocatorIcEEEENS_4SizeENS_8LoadtypeE
	ldr	x0, [sp]                        ; 8-byte Folded Reload
	ldp	x29, x30, [sp, #32]             ; 16-byte Folded Reload
	add	sp, sp, #48
	ret
	.cfi_endproc
                                        ; -- End function
	.globl	__ZN3map6MapperC2ENSt3__112basic_stringIcNS1_11char_traitsIcEENS1_9allocatorIcEEEENS_4SizeEiNS_8LoadtypeE ; -- Begin function _ZN3map6MapperC2ENSt3__112basic_stringIcNS1_11char_traitsIcEENS1_9allocatorIcEEEENS_4SizeEiNS_8LoadtypeE
	.p2align	2
__ZN3map6MapperC2ENSt3__112basic_stringIcNS1_11char_traitsIcEENS1_9allocatorIcEEEENS_4SizeEiNS_8LoadtypeE: ; @_ZN3map6MapperC2ENSt3__112basic_stringIcNS1_11char_traitsIcEENS1_9allocatorIcEEEENS_4SizeEiNS_8LoadtypeE
Lfunc_begin6:
	.cfi_startproc
	.cfi_personality 155, ___gxx_personality_v0
	.cfi_lsda 16, Lexception6
; %bb.0:
	sub	sp, sp, #128
	.cfi_def_cfa_offset 128
	stp	x29, x30, [sp, #112]            ; 16-byte Folded Spill
	add	x29, sp, #112
	.cfi_def_cfa w29, 16
	.cfi_offset w30, -8
	.cfi_offset w29, -16
	str	x1, [sp, #24]                   ; 8-byte Folded Spill
	stur	x2, [x29, #-16]
	stur	x0, [x29, #-24]
	stur	w3, [x29, #-28]
	stur	w4, [x29, #-32]
	ldur	x0, [x29, #-24]
	str	x0, [sp, #16]                   ; 8-byte Folded Spill
	mov	x8, x0
	stur	x8, [x29, #-8]
	adrp	x1, l_.str.7@PAGE
	add	x1, x1, l_.str.7@PAGEOFF
	bl	__ZNSt3__112basic_stringIcNS_11char_traitsIcEENS_9allocatorIcEEEC1B6v15006IDnEEPKc
	ldr	x8, [sp, #16]                   ; 8-byte Folded Reload
	ldr	x1, [sp, #24]                   ; 8-byte Folded Reload
	add	x0, x8, #24
	str	x0, [sp, #32]                   ; 8-byte Folded Spill
Ltmp142:
	bl	__ZNSt3__112basic_stringIcNS_11char_traitsIcEENS_9allocatorIcEEEC1ERKS5_
Ltmp143:
	b	LBB33_1
LBB33_1:
	ldr	x8, [sp, #16]                   ; 8-byte Folded Reload
	ldur	w9, [x29, #-16]
	str	w9, [x8, #48]
	ldur	w9, [x29, #-12]
	str	w9, [x8, #52]
	ldur	w9, [x29, #-28]
	str	w9, [x8, #56]
	str	wzr, [x8, #60]
	add	x0, x8, #64
	str	x0, [sp, #8]                    ; 8-byte Folded Spill
Ltmp145:
	adrp	x1, l_.str@PAGE
	add	x1, x1, l_.str@PAGEOFF
	bl	__ZNSt3__112basic_stringIcNS_11char_traitsIcEENS_9allocatorIcEEEC1B6v15006IDnEEPKc
Ltmp146:
	b	LBB33_2
LBB33_2:
	ldr	x0, [sp, #24]                   ; 8-byte Folded Reload
	ldr	x8, [sp, #16]                   ; 8-byte Folded Reload
	mov	w9, #255
	str	w9, [x8, #88]
	strb	wzr, [x8, #104]
	str	wzr, [x8, #108]
	str	wzr, [x8, #112]
	bl	__ZNKSt3__112basic_stringIcNS_11char_traitsIcEENS_9allocatorIcEEE6lengthB6v15006Ev
	subs	x8, x0, #4
	cset	w8, hi
	tbnz	w8, #0, LBB33_8
	b	LBB33_3
LBB33_3:
Ltmp157:
	adrp	x0, l___func__._ZN3map6MapperC2ENSt3__112basic_stringIcNS1_11char_traitsIcEENS1_9allocatorIcEEEENS_4SizeENS_8LoadtypeE@PAGE
	add	x0, x0, l___func__._ZN3map6MapperC2ENSt3__112basic_stringIcNS1_11char_traitsIcEENS1_9allocatorIcEEEENS_4SizeENS_8LoadtypeE@PAGEOFF
	adrp	x1, l_.str.3@PAGE
	add	x1, x1, l_.str.3@PAGEOFF
	mov	w2, #23
	adrp	x3, l_.str.4@PAGE
	add	x3, x3, l_.str.4@PAGEOFF
	bl	___assert_rtn
Ltmp158:
	b	LBB33_4
LBB33_4:
	brk	#0x1
LBB33_5:
Ltmp144:
	mov	x8, x1
	stur	x0, [x29, #-40]
	stur	w8, [x29, #-44]
	b	LBB33_23
LBB33_6:
Ltmp147:
	mov	x8, x1
	stur	x0, [x29, #-40]
	stur	w8, [x29, #-44]
	b	LBB33_22
LBB33_7:
Ltmp159:
	mov	x8, x1
	stur	x0, [x29, #-40]
	stur	w8, [x29, #-44]
	b	LBB33_21
LBB33_8:
	b	LBB33_9
LBB33_9:
	ldr	x0, [sp, #24]                   ; 8-byte Folded Reload
	bl	__ZNKSt3__112basic_stringIcNS_11char_traitsIcEENS_9allocatorIcEEE6lengthB6v15006Ev
	mov	x8, x0
	ldr	x0, [sp, #24]                   ; 8-byte Folded Reload
	mov	x2, #4
	subs	x1, x8, #4
Ltmp148:
	add	x8, sp, #40
	bl	__ZNKSt3__112basic_stringIcNS_11char_traitsIcEENS_9allocatorIcEEE6substrB6v15006Emm
Ltmp149:
	b	LBB33_10
LBB33_10:
	add	x0, sp, #40
	adrp	x1, l_.str.8@PAGE
	add	x1, x1, l_.str.8@PAGEOFF
	bl	__ZNSt3__1eqB6v15006IcNS_11char_traitsIcEENS_9allocatorIcEEEEbRKNS_12basic_stringIT_T0_T1_EEPKS6_
	tbnz	w0, #0, LBB33_14
	b	LBB33_11
LBB33_11:
Ltmp154:
	adrp	x0, l___func__._ZN3map6MapperC2ENSt3__112basic_stringIcNS1_11char_traitsIcEENS1_9allocatorIcEEEENS_4SizeENS_8LoadtypeE@PAGE
	add	x0, x0, l___func__._ZN3map6MapperC2ENSt3__112basic_stringIcNS1_11char_traitsIcEENS1_9allocatorIcEEEENS_4SizeENS_8LoadtypeE@PAGEOFF
	adrp	x1, l_.str.3@PAGE
	add	x1, x1, l_.str.3@PAGEOFF
	mov	w2, #24
	adrp	x3, l_.str.9@PAGE
	add	x3, x3, l_.str.9@PAGEOFF
	bl	___assert_rtn
Ltmp155:
	b	LBB33_12
LBB33_12:
	brk	#0x1
LBB33_13:
Ltmp156:
	mov	x8, x1
	stur	x0, [x29, #-40]
	stur	w8, [x29, #-44]
	add	x0, sp, #40
	bl	__ZNSt3__112basic_stringIcNS_11char_traitsIcEENS_9allocatorIcEEED1Ev
	b	LBB33_21
LBB33_14:
	b	LBB33_15
LBB33_15:
	add	x0, sp, #40
	bl	__ZNSt3__112basic_stringIcNS_11char_traitsIcEENS_9allocatorIcEEED1Ev
	ldur	w8, [x29, #-32]
	subs	w8, w8, #1
	cset	w8, ne
	tbnz	w8, #0, LBB33_18
	b	LBB33_16
LBB33_16:
Ltmp152:
	ldr	x0, [sp, #16]                   ; 8-byte Folded Reload
	bl	__ZN3map6Mapper8loadFileEv
Ltmp153:
	b	LBB33_17
LBB33_17:
	b	LBB33_20
LBB33_18:
Ltmp150:
	ldr	x0, [sp, #16]                   ; 8-byte Folded Reload
	bl	__ZN3map6Mapper9resetFileEv
Ltmp151:
	b	LBB33_19
LBB33_19:
	b	LBB33_20
LBB33_20:
	ldur	x0, [x29, #-8]
	ldp	x29, x30, [sp, #112]            ; 16-byte Folded Reload
	add	sp, sp, #128
	ret
LBB33_21:
	ldr	x0, [sp, #8]                    ; 8-byte Folded Reload
	bl	__ZNSt3__112basic_stringIcNS_11char_traitsIcEENS_9allocatorIcEEED1Ev
	b	LBB33_22
LBB33_22:
	ldr	x0, [sp, #32]                   ; 8-byte Folded Reload
	bl	__ZNSt3__112basic_stringIcNS_11char_traitsIcEENS_9allocatorIcEEED1Ev
	b	LBB33_23
LBB33_23:
	ldr	x0, [sp, #16]                   ; 8-byte Folded Reload
	bl	__ZNSt3__112basic_stringIcNS_11char_traitsIcEENS_9allocatorIcEEED1Ev
	b	LBB33_24
LBB33_24:
	ldur	x0, [x29, #-40]
	bl	__Unwind_Resume
Lfunc_end6:
	.cfi_endproc
	.section	__TEXT,__gcc_except_tab
	.p2align	2
GCC_except_table33:
Lexception6:
	.byte	255                             ; @LPStart Encoding = omit
	.byte	255                             ; @TType Encoding = omit
	.byte	1                               ; Call site Encoding = uleb128
	.uleb128 Lcst_end6-Lcst_begin6
Lcst_begin6:
	.uleb128 Lfunc_begin6-Lfunc_begin6      ; >> Call Site 1 <<
	.uleb128 Ltmp142-Lfunc_begin6           ;   Call between Lfunc_begin6 and Ltmp142
	.byte	0                               ;     has no landing pad
	.byte	0                               ;   On action: cleanup
	.uleb128 Ltmp142-Lfunc_begin6           ; >> Call Site 2 <<
	.uleb128 Ltmp143-Ltmp142                ;   Call between Ltmp142 and Ltmp143
	.uleb128 Ltmp144-Lfunc_begin6           ;     jumps to Ltmp144
	.byte	0                               ;   On action: cleanup
	.uleb128 Ltmp145-Lfunc_begin6           ; >> Call Site 3 <<
	.uleb128 Ltmp146-Ltmp145                ;   Call between Ltmp145 and Ltmp146
	.uleb128 Ltmp147-Lfunc_begin6           ;     jumps to Ltmp147
	.byte	0                               ;   On action: cleanup
	.uleb128 Ltmp157-Lfunc_begin6           ; >> Call Site 4 <<
	.uleb128 Ltmp149-Ltmp157                ;   Call between Ltmp157 and Ltmp149
	.uleb128 Ltmp159-Lfunc_begin6           ;     jumps to Ltmp159
	.byte	0                               ;   On action: cleanup
	.uleb128 Ltmp154-Lfunc_begin6           ; >> Call Site 5 <<
	.uleb128 Ltmp155-Ltmp154                ;   Call between Ltmp154 and Ltmp155
	.uleb128 Ltmp156-Lfunc_begin6           ;     jumps to Ltmp156
	.byte	0                               ;   On action: cleanup
	.uleb128 Ltmp152-Lfunc_begin6           ; >> Call Site 6 <<
	.uleb128 Ltmp151-Ltmp152                ;   Call between Ltmp152 and Ltmp151
	.uleb128 Ltmp159-Lfunc_begin6           ;     jumps to Ltmp159
	.byte	0                               ;   On action: cleanup
	.uleb128 Ltmp151-Lfunc_begin6           ; >> Call Site 7 <<
	.uleb128 Lfunc_end6-Ltmp151             ;   Call between Ltmp151 and Lfunc_end6
	.byte	0                               ;     has no landing pad
	.byte	0                               ;   On action: cleanup
Lcst_end6:
	.p2align	2
                                        ; -- End function
	.section	__TEXT,__text,regular,pure_instructions
	.globl	__ZN3map6MapperC1ENSt3__112basic_stringIcNS1_11char_traitsIcEENS1_9allocatorIcEEEENS_4SizeEiNS_8LoadtypeE ; -- Begin function _ZN3map6MapperC1ENSt3__112basic_stringIcNS1_11char_traitsIcEENS1_9allocatorIcEEEENS_4SizeEiNS_8LoadtypeE
	.p2align	2
__ZN3map6MapperC1ENSt3__112basic_stringIcNS1_11char_traitsIcEENS1_9allocatorIcEEEENS_4SizeEiNS_8LoadtypeE: ; @_ZN3map6MapperC1ENSt3__112basic_stringIcNS1_11char_traitsIcEENS1_9allocatorIcEEEENS_4SizeEiNS_8LoadtypeE
	.cfi_startproc
; %bb.0:
	sub	sp, sp, #48
	.cfi_def_cfa_offset 48
	stp	x29, x30, [sp, #32]             ; 16-byte Folded Spill
	add	x29, sp, #32
	.cfi_def_cfa w29, 16
	.cfi_offset w30, -8
	.cfi_offset w29, -16
	stur	x2, [x29, #-8]
	str	x0, [sp, #16]
	str	w3, [sp, #12]
	str	w4, [sp, #8]
	ldr	x0, [sp, #16]
	str	x0, [sp]                        ; 8-byte Folded Spill
	ldr	w3, [sp, #12]
	ldr	w4, [sp, #8]
	ldur	x2, [x29, #-8]
	bl	__ZN3map6MapperC2ENSt3__112basic_stringIcNS1_11char_traitsIcEENS1_9allocatorIcEEEENS_4SizeEiNS_8LoadtypeE
	ldr	x0, [sp]                        ; 8-byte Folded Reload
	ldp	x29, x30, [sp, #32]             ; 16-byte Folded Reload
	add	sp, sp, #48
	ret
	.cfi_endproc
                                        ; -- End function
	.globl	__ZN3map6MapperD2Ev             ; -- Begin function _ZN3map6MapperD2Ev
	.p2align	2
__ZN3map6MapperD2Ev:                    ; @_ZN3map6MapperD2Ev
	.cfi_startproc
; %bb.0:
	sub	sp, sp, #48
	.cfi_def_cfa_offset 48
	stp	x29, x30, [sp, #32]             ; 16-byte Folded Spill
	add	x29, sp, #32
	.cfi_def_cfa w29, 16
	.cfi_offset w30, -8
	.cfi_offset w29, -16
	str	x0, [sp, #16]
	ldr	x8, [sp, #16]
	str	x8, [sp, #8]                    ; 8-byte Folded Spill
	mov	x9, x8
	stur	x9, [x29, #-8]
	ldr	x8, [x8, #96]
	subs	x8, x8, #0
	cset	w8, eq
	tbnz	w8, #0, LBB35_4
	b	LBB35_1
LBB35_1:
	ldr	x8, [sp, #8]                    ; 8-byte Folded Reload
	ldr	x8, [x8, #96]
	str	x8, [sp]                        ; 8-byte Folded Spill
	subs	x8, x8, #0
	cset	w8, eq
	tbnz	w8, #0, LBB35_3
	b	LBB35_2
LBB35_2:
	ldr	x0, [sp]                        ; 8-byte Folded Reload
	bl	__ZdaPv
	b	LBB35_3
LBB35_3:
	b	LBB35_4
LBB35_4:
	ldr	x8, [sp, #8]                    ; 8-byte Folded Reload
	add	x0, x8, #64
	bl	__ZNSt3__112basic_stringIcNS_11char_traitsIcEENS_9allocatorIcEEED1Ev
	ldr	x8, [sp, #8]                    ; 8-byte Folded Reload
	add	x0, x8, #24
	bl	__ZNSt3__112basic_stringIcNS_11char_traitsIcEENS_9allocatorIcEEED1Ev
	ldr	x0, [sp, #8]                    ; 8-byte Folded Reload
	bl	__ZNSt3__112basic_stringIcNS_11char_traitsIcEENS_9allocatorIcEEED1Ev
	ldur	x0, [x29, #-8]
	ldp	x29, x30, [sp, #32]             ; 16-byte Folded Reload
	add	sp, sp, #48
	ret
	.cfi_endproc
                                        ; -- End function
	.globl	__ZN3map6MapperD1Ev             ; -- Begin function _ZN3map6MapperD1Ev
	.p2align	2
__ZN3map6MapperD1Ev:                    ; @_ZN3map6MapperD1Ev
	.cfi_startproc
; %bb.0:
	sub	sp, sp, #32
	.cfi_def_cfa_offset 32
	stp	x29, x30, [sp, #16]             ; 16-byte Folded Spill
	add	x29, sp, #16
	.cfi_def_cfa w29, 16
	.cfi_offset w30, -8
	.cfi_offset w29, -16
	str	x0, [sp, #8]
	ldr	x0, [sp, #8]
	str	x0, [sp]                        ; 8-byte Folded Spill
	bl	__ZN3map6MapperD2Ev
	ldr	x0, [sp]                        ; 8-byte Folded Reload
	ldp	x29, x30, [sp, #16]             ; 16-byte Folded Reload
	add	sp, sp, #32
	ret
	.cfi_endproc
                                        ; -- End function
	.globl	__ZN3map6Mapper6setFPSEi        ; -- Begin function _ZN3map6Mapper6setFPSEi
	.p2align	2
__ZN3map6Mapper6setFPSEi:               ; @_ZN3map6Mapper6setFPSEi
	.cfi_startproc
; %bb.0:
	sub	sp, sp, #16
	.cfi_def_cfa_offset 16
	str	x0, [sp, #8]
	str	w1, [sp, #4]
	ldr	x9, [sp, #8]
	ldr	w8, [sp, #4]
	str	w8, [x9, #56]
	add	sp, sp, #16
	ret
	.cfi_endproc
                                        ; -- End function
	.globl	__ZNK3map6Mapper6getFPSEv       ; -- Begin function _ZNK3map6Mapper6getFPSEv
	.p2align	2
__ZNK3map6Mapper6getFPSEv:              ; @_ZNK3map6Mapper6getFPSEv
	.cfi_startproc
; %bb.0:
	sub	sp, sp, #16
	.cfi_def_cfa_offset 16
	str	x0, [sp, #8]
	ldr	x8, [sp, #8]
	ldr	w0, [x8, #56]
	add	sp, sp, #16
	ret
	.cfi_endproc
                                        ; -- End function
	.globl	__ZN3map6Mapper5doSetEv         ; -- Begin function _ZN3map6Mapper5doSetEv
	.p2align	2
__ZN3map6Mapper5doSetEv:                ; @_ZN3map6Mapper5doSetEv
	.cfi_startproc
; %bb.0:
	sub	sp, sp, #16
	.cfi_def_cfa_offset 16
	str	x0, [sp, #8]
	ldr	x9, [sp, #8]
	mov	w8, #1
	strb	w8, [x9, #104]
	add	sp, sp, #16
	ret
	.cfi_endproc
                                        ; -- End function
	.globl	__ZN3map6Mapper5noSetEv         ; -- Begin function _ZN3map6Mapper5noSetEv
	.p2align	2
__ZN3map6Mapper5noSetEv:                ; @_ZN3map6Mapper5noSetEv
	.cfi_startproc
; %bb.0:
	sub	sp, sp, #16
	.cfi_def_cfa_offset 16
	str	x0, [sp, #8]
	ldr	x8, [sp, #8]
	strb	wzr, [x8, #104]
	add	sp, sp, #16
	ret
	.cfi_endproc
                                        ; -- End function
	.globl	__ZN3map6Mapper8setStateEv      ; -- Begin function _ZN3map6Mapper8setStateEv
	.p2align	2
__ZN3map6Mapper8setStateEv:             ; @_ZN3map6Mapper8setStateEv
Lfunc_begin7:
	.cfi_startproc
	.cfi_personality 155, ___gxx_personality_v0
	.cfi_lsda 16, Lexception7
; %bb.0:
	stp	x28, x27, [sp, #-32]!           ; 16-byte Folded Spill
	.cfi_def_cfa_offset 32
	stp	x29, x30, [sp, #16]             ; 16-byte Folded Spill
	add	x29, sp, #16
	.cfi_def_cfa w29, 16
	.cfi_offset w30, -8
	.cfi_offset w29, -16
	.cfi_offset w27, -24
	.cfi_offset w28, -32
	sub	sp, sp, #656
	adrp	x8, ___stack_chk_guard@GOTPAGE
	ldr	x8, [x8, ___stack_chk_guard@GOTPAGEOFF]
	ldr	x8, [x8]
	stur	x8, [x29, #-24]
	str	x0, [sp, #72]
	ldr	x0, [sp, #72]
	str	x0, [sp, #8]                    ; 8-byte Folded Spill
	bl	__ZN3map6Mapper7setInfoEv
	ldr	x1, [sp, #8]                    ; 8-byte Folded Reload
	add	x8, sp, #48
	str	x8, [sp, #16]                   ; 8-byte Folded Spill
	adrp	x0, l_.str.10@PAGE
	add	x0, x0, l_.str.10@PAGEOFF
	bl	__ZNSt3__1plIcNS_11char_traitsIcEENS_9allocatorIcEEEENS_12basic_stringIT_T0_T1_EEPKS6_RKS9_
	ldr	x1, [sp, #16]                   ; 8-byte Folded Reload
Ltmp164:
	add	x0, sp, #80
	mov	w2, #1
	bl	__ZNSt3__114basic_ofstreamIcNS_11char_traitsIcEEEC1ERKNS_12basic_stringIcS2_NS_9allocatorIcEEEEj
Ltmp165:
	b	LBB41_1
LBB41_1:
	str	wzr, [sp, #32]
	b	LBB41_2
LBB41_2:                                ; =>This Loop Header: Depth=1
                                        ;     Child Loop BB41_4 Depth 2
	ldr	x9, [sp, #8]                    ; 8-byte Folded Reload
	ldr	w8, [sp, #32]
	ldr	w9, [x9, #48]
	subs	w8, w8, w9
	cset	w8, ge
	tbnz	w8, #0, LBB41_14
	b	LBB41_3
LBB41_3:                                ;   in Loop: Header=BB41_2 Depth=1
	str	wzr, [sp, #28]
	b	LBB41_4
LBB41_4:                                ;   Parent Loop BB41_2 Depth=1
                                        ; =>  This Inner Loop Header: Depth=2
	ldr	x9, [sp, #8]                    ; 8-byte Folded Reload
	ldr	w8, [sp, #28]
	ldr	w9, [x9, #52]
	subs	w8, w8, w9
	cset	w8, ge
	tbnz	w8, #0, LBB41_11
	b	LBB41_5
LBB41_5:                                ;   in Loop: Header=BB41_4 Depth=2
	ldr	x9, [sp, #8]                    ; 8-byte Folded Reload
	ldr	x10, [x9, #96]
	ldr	w8, [sp, #32]
	ldr	w9, [x9, #52]
	mul	w8, w8, w9
	ldr	w9, [sp, #28]
	add	w8, w8, w9
	mov	w9, #6
	smaddl	x1, w8, w9, x10
Ltmp171:
	add	x0, sp, #80
	bl	__ZN3map3clrlsERNSt3__113basic_ostreamIcNS1_11char_traitsIcEEEERKNS0_3RGBE
	str	x0, [sp]                        ; 8-byte Folded Spill
Ltmp172:
	b	LBB41_6
LBB41_6:                                ;   in Loop: Header=BB41_4 Depth=2
Ltmp173:
	ldr	x0, [sp]                        ; 8-byte Folded Reload
	adrp	x1, l_.str.11@PAGE
	add	x1, x1, l_.str.11@PAGEOFF
	bl	__ZNSt3__1lsINS_11char_traitsIcEEEERNS_13basic_ostreamIcT_EES6_PKc
Ltmp174:
	b	LBB41_7
LBB41_7:                                ;   in Loop: Header=BB41_4 Depth=2
	b	LBB41_8
LBB41_8:                                ;   in Loop: Header=BB41_4 Depth=2
	ldr	w8, [sp, #28]
	add	w8, w8, #1
	str	w8, [sp, #28]
	b	LBB41_4
LBB41_9:
Ltmp166:
	mov	x8, x1
	str	x0, [sp, #40]
	str	w8, [sp, #36]
	b	LBB41_18
LBB41_10:
Ltmp175:
	mov	x8, x1
	str	x0, [sp, #40]
	str	w8, [sp, #36]
	add	x0, sp, #80
	bl	__ZNSt3__114basic_ofstreamIcNS_11char_traitsIcEEED1Ev
	b	LBB41_18
LBB41_11:                               ;   in Loop: Header=BB41_2 Depth=1
Ltmp169:
	add	x0, sp, #80
	mov	w1, #10
	bl	__ZNSt3__1lsINS_11char_traitsIcEEEERNS_13basic_ostreamIcT_EES6_c
Ltmp170:
	b	LBB41_12
LBB41_12:                               ;   in Loop: Header=BB41_2 Depth=1
	b	LBB41_13
LBB41_13:                               ;   in Loop: Header=BB41_2 Depth=1
	ldr	w8, [sp, #32]
	add	w8, w8, #1
	str	w8, [sp, #32]
	b	LBB41_2
LBB41_14:
Ltmp167:
	add	x0, sp, #80
	bl	__ZNSt3__114basic_ofstreamIcNS_11char_traitsIcEEE5closeEv
Ltmp168:
	b	LBB41_15
LBB41_15:
	add	x0, sp, #80
	bl	__ZNSt3__114basic_ofstreamIcNS_11char_traitsIcEEED1Ev
	add	x0, sp, #48
	bl	__ZNSt3__112basic_stringIcNS_11char_traitsIcEENS_9allocatorIcEEED1Ev
	ldur	x9, [x29, #-24]
	adrp	x8, ___stack_chk_guard@GOTPAGE
	ldr	x8, [x8, ___stack_chk_guard@GOTPAGEOFF]
	ldr	x8, [x8]
	subs	x8, x8, x9
	cset	w8, eq
	tbnz	w8, #0, LBB41_17
	b	LBB41_16
LBB41_16:
	bl	___stack_chk_fail
LBB41_17:
	add	sp, sp, #656
	ldp	x29, x30, [sp, #16]             ; 16-byte Folded Reload
	ldp	x28, x27, [sp], #32             ; 16-byte Folded Reload
	ret
LBB41_18:
	add	x0, sp, #48
	bl	__ZNSt3__112basic_stringIcNS_11char_traitsIcEENS_9allocatorIcEEED1Ev
	b	LBB41_19
LBB41_19:
	ldr	x0, [sp, #40]
	bl	__Unwind_Resume
Lfunc_end7:
	.cfi_endproc
	.section	__TEXT,__gcc_except_tab
	.p2align	2
GCC_except_table41:
Lexception7:
	.byte	255                             ; @LPStart Encoding = omit
	.byte	255                             ; @TType Encoding = omit
	.byte	1                               ; Call site Encoding = uleb128
	.uleb128 Lcst_end7-Lcst_begin7
Lcst_begin7:
	.uleb128 Lfunc_begin7-Lfunc_begin7      ; >> Call Site 1 <<
	.uleb128 Ltmp164-Lfunc_begin7           ;   Call between Lfunc_begin7 and Ltmp164
	.byte	0                               ;     has no landing pad
	.byte	0                               ;   On action: cleanup
	.uleb128 Ltmp164-Lfunc_begin7           ; >> Call Site 2 <<
	.uleb128 Ltmp165-Ltmp164                ;   Call between Ltmp164 and Ltmp165
	.uleb128 Ltmp166-Lfunc_begin7           ;     jumps to Ltmp166
	.byte	0                               ;   On action: cleanup
	.uleb128 Ltmp171-Lfunc_begin7           ; >> Call Site 3 <<
	.uleb128 Ltmp168-Ltmp171                ;   Call between Ltmp171 and Ltmp168
	.uleb128 Ltmp175-Lfunc_begin7           ;     jumps to Ltmp175
	.byte	0                               ;   On action: cleanup
	.uleb128 Ltmp168-Lfunc_begin7           ; >> Call Site 4 <<
	.uleb128 Lfunc_end7-Ltmp168             ;   Call between Ltmp168 and Lfunc_end7
	.byte	0                               ;     has no landing pad
	.byte	0                               ;   On action: cleanup
Lcst_end7:
	.p2align	2
                                        ; -- End function
	.section	__TEXT,__text,regular,pure_instructions
	.globl	__ZN3map6Mapper7setInfoEv       ; -- Begin function _ZN3map6Mapper7setInfoEv
	.p2align	2
__ZN3map6Mapper7setInfoEv:              ; @_ZN3map6Mapper7setInfoEv
Lfunc_begin8:
	.cfi_startproc
	.cfi_personality 155, ___gxx_personality_v0
	.cfi_lsda 16, Lexception8
; %bb.0:
	stp	x28, x27, [sp, #-32]!           ; 16-byte Folded Spill
	.cfi_def_cfa_offset 32
	stp	x29, x30, [sp, #16]             ; 16-byte Folded Spill
	add	x29, sp, #16
	.cfi_def_cfa w29, 16
	.cfi_offset w30, -8
	.cfi_offset w29, -16
	.cfi_offset w27, -24
	.cfi_offset w28, -32
	sub	sp, sp, #752
	adrp	x8, __ZNSt3__14endlIcNS_11char_traitsIcEEEERNS_13basic_ostreamIT_T0_EES7_@GOTPAGE
	ldr	x8, [x8, __ZNSt3__14endlIcNS_11char_traitsIcEEEERNS_13basic_ostreamIT_T0_EES7_@GOTPAGEOFF]
	str	x8, [sp, #56]                   ; 8-byte Folded Spill
	adrp	x8, ___stack_chk_guard@GOTPAGE
	ldr	x8, [x8, ___stack_chk_guard@GOTPAGEOFF]
	ldr	x8, [x8]
	stur	x8, [x29, #-24]
	str	x0, [sp, #168]
	ldr	x1, [sp, #168]
	str	x1, [sp, #64]                   ; 8-byte Folded Spill
	add	x8, sp, #144
	str	x8, [sp, #72]                   ; 8-byte Folded Spill
	adrp	x0, l_.str.10@PAGE
	add	x0, x0, l_.str.10@PAGEOFF
	bl	__ZNSt3__1plIcNS_11char_traitsIcEENS_9allocatorIcEEEENS_12basic_stringIT_T0_T1_EEPKS6_RKS9_
	ldr	x1, [sp, #72]                   ; 8-byte Folded Reload
Ltmp176:
	add	x0, sp, #176
	mov	w2, #32
	bl	__ZNSt3__114basic_ofstreamIcNS_11char_traitsIcEEEC1ERKNS_12basic_stringIcS2_NS_9allocatorIcEEEEj
Ltmp177:
	b	LBB42_1
LBB42_1:
Ltmp179:
	add	x0, sp, #176
	bl	__ZNKSt3__114basic_ofstreamIcNS_11char_traitsIcEEE7is_openEv
	str	w0, [sp, #52]                   ; 4-byte Folded Spill
Ltmp180:
	b	LBB42_2
LBB42_2:
	ldr	w8, [sp, #52]                   ; 4-byte Folded Reload
	and	w8, w8, #0x1
	subs	w8, w8, #1
	cset	w8, eq
	tbnz	w8, #0, LBB42_7
	b	LBB42_3
LBB42_3:
Ltmp209:
	adrp	x0, l___func__._ZN3map6Mapper7setInfoEv@PAGE
	add	x0, x0, l___func__._ZN3map6Mapper7setInfoEv@PAGEOFF
	adrp	x1, l_.str.3@PAGE
	add	x1, x1, l_.str.3@PAGEOFF
	mov	w2, #827
	adrp	x3, l_.str.29@PAGE
	add	x3, x3, l_.str.29@PAGEOFF
	bl	___assert_rtn
Ltmp210:
	b	LBB42_4
LBB42_4:
	brk	#0x1
LBB42_5:
Ltmp178:
	mov	x8, x1
	str	x0, [sp, #136]
	str	w8, [sp, #132]
	b	LBB42_31
LBB42_6:
Ltmp211:
	mov	x8, x1
	str	x0, [sp, #136]
	str	w8, [sp, #132]
	b	LBB42_30
LBB42_7:
	b	LBB42_8
LBB42_8:
Ltmp181:
	ldr	x1, [sp, #64]                   ; 8-byte Folded Reload
	add	x0, sp, #104
	bl	__ZNSt3__112basic_stringIcNS_11char_traitsIcEENS_9allocatorIcEEEC1ERKS5_
Ltmp182:
	b	LBB42_9
LBB42_9:
	ldr	x8, [sp, #64]                   ; 8-byte Folded Reload
	add	x1, x8, #64
Ltmp183:
	add	x0, sp, #80
	bl	__ZNSt3__112basic_stringIcNS_11char_traitsIcEENS_9allocatorIcEEEC1ERKS5_
Ltmp184:
	b	LBB42_10
LBB42_10:
	ldr	x8, [sp, #64]                   ; 8-byte Folded Reload
	ldr	w2, [x8, #48]
	ldr	w3, [x8, #52]
	ldr	w4, [x8, #88]
Ltmp186:
	add	x0, sp, #104
	add	x1, sp, #80
	bl	__Z8areValidNSt3__112basic_stringIcNS_11char_traitsIcEENS_9allocatorIcEEEES5_iii
	str	w0, [sp, #48]                   ; 4-byte Folded Spill
Ltmp187:
	b	LBB42_11
LBB42_11:
	ldr	w8, [sp, #48]                   ; 4-byte Folded Reload
	and	w8, w8, #0x1
	subs	w8, w8, #1
	cset	w8, eq
	tbnz	w8, #0, LBB42_16
	b	LBB42_12
LBB42_12:
Ltmp206:
	adrp	x0, l___func__._ZN3map6Mapper7setInfoEv@PAGE
	add	x0, x0, l___func__._ZN3map6Mapper7setInfoEv@PAGEOFF
	adrp	x1, l_.str.3@PAGE
	add	x1, x1, l_.str.3@PAGEOFF
	mov	w2, #828
	adrp	x3, l_.str.30@PAGE
	add	x3, x3, l_.str.30@PAGEOFF
	bl	___assert_rtn
Ltmp207:
	b	LBB42_13
LBB42_13:
	brk	#0x1
LBB42_14:
Ltmp185:
	mov	x8, x1
	str	x0, [sp, #136]
	str	w8, [sp, #132]
	b	LBB42_29
LBB42_15:
Ltmp208:
	mov	x8, x1
	str	x0, [sp, #136]
	str	w8, [sp, #132]
	add	x0, sp, #80
	bl	__ZNSt3__112basic_stringIcNS_11char_traitsIcEENS_9allocatorIcEEED1Ev
	b	LBB42_29
LBB42_16:
	b	LBB42_17
LBB42_17:
	add	x0, sp, #80
	bl	__ZNSt3__112basic_stringIcNS_11char_traitsIcEENS_9allocatorIcEEED1Ev
	add	x0, sp, #104
	bl	__ZNSt3__112basic_stringIcNS_11char_traitsIcEENS_9allocatorIcEEED1Ev
	ldr	x8, [sp, #64]                   ; 8-byte Folded Reload
	add	x1, x8, #64
Ltmp188:
	add	x0, sp, #176
	bl	__ZNSt3__1lsIcNS_11char_traitsIcEENS_9allocatorIcEEEERNS_13basic_ostreamIT_T0_EES9_RKNS_12basic_stringIS6_S7_T1_EE
	str	x0, [sp, #40]                   ; 8-byte Folded Spill
Ltmp189:
	b	LBB42_18
LBB42_18:
Ltmp190:
	ldr	x1, [sp, #56]                   ; 8-byte Folded Reload
	ldr	x0, [sp, #40]                   ; 8-byte Folded Reload
	bl	__ZNSt3__113basic_ostreamIcNS_11char_traitsIcEEElsB6v15006EPFRS3_S4_E
Ltmp191:
	b	LBB42_19
LBB42_19:
	ldr	x8, [sp, #64]                   ; 8-byte Folded Reload
	ldr	w1, [x8, #52]
Ltmp192:
	add	x0, sp, #176
	bl	__ZNSt3__113basic_ostreamIcNS_11char_traitsIcEEElsEi
	str	x0, [sp, #32]                   ; 8-byte Folded Spill
Ltmp193:
	b	LBB42_20
LBB42_20:
Ltmp194:
	ldr	x0, [sp, #32]                   ; 8-byte Folded Reload
	adrp	x1, l_.str.11@PAGE
	add	x1, x1, l_.str.11@PAGEOFF
	bl	__ZNSt3__1lsINS_11char_traitsIcEEEERNS_13basic_ostreamIcT_EES6_PKc
	str	x0, [sp, #24]                   ; 8-byte Folded Spill
Ltmp195:
	b	LBB42_21
LBB42_21:
	ldr	x0, [sp, #24]                   ; 8-byte Folded Reload
	ldr	x8, [sp, #64]                   ; 8-byte Folded Reload
	ldr	w1, [x8, #48]
Ltmp196:
	bl	__ZNSt3__113basic_ostreamIcNS_11char_traitsIcEEElsEi
	str	x0, [sp, #16]                   ; 8-byte Folded Spill
Ltmp197:
	b	LBB42_22
LBB42_22:
Ltmp198:
	ldr	x1, [sp, #56]                   ; 8-byte Folded Reload
	ldr	x0, [sp, #16]                   ; 8-byte Folded Reload
	bl	__ZNSt3__113basic_ostreamIcNS_11char_traitsIcEEElsB6v15006EPFRS3_S4_E
Ltmp199:
	b	LBB42_23
LBB42_23:
	ldr	x8, [sp, #64]                   ; 8-byte Folded Reload
	ldr	w1, [x8, #88]
Ltmp200:
	add	x0, sp, #176
	bl	__ZNSt3__113basic_ostreamIcNS_11char_traitsIcEEElsEi
	str	x0, [sp, #8]                    ; 8-byte Folded Spill
Ltmp201:
	b	LBB42_24
LBB42_24:
Ltmp202:
	ldr	x1, [sp, #56]                   ; 8-byte Folded Reload
	ldr	x0, [sp, #8]                    ; 8-byte Folded Reload
	bl	__ZNSt3__113basic_ostreamIcNS_11char_traitsIcEEElsB6v15006EPFRS3_S4_E
Ltmp203:
	b	LBB42_25
LBB42_25:
Ltmp204:
	add	x0, sp, #176
	bl	__ZNSt3__114basic_ofstreamIcNS_11char_traitsIcEEE5closeEv
Ltmp205:
	b	LBB42_26
LBB42_26:
	add	x0, sp, #176
	bl	__ZNSt3__114basic_ofstreamIcNS_11char_traitsIcEEED1Ev
	add	x0, sp, #144
	bl	__ZNSt3__112basic_stringIcNS_11char_traitsIcEENS_9allocatorIcEEED1Ev
	ldur	x9, [x29, #-24]
	adrp	x8, ___stack_chk_guard@GOTPAGE
	ldr	x8, [x8, ___stack_chk_guard@GOTPAGEOFF]
	ldr	x8, [x8]
	subs	x8, x8, x9
	cset	w8, eq
	tbnz	w8, #0, LBB42_28
	b	LBB42_27
LBB42_27:
	bl	___stack_chk_fail
LBB42_28:
	add	sp, sp, #752
	ldp	x29, x30, [sp, #16]             ; 16-byte Folded Reload
	ldp	x28, x27, [sp], #32             ; 16-byte Folded Reload
	ret
LBB42_29:
	add	x0, sp, #104
	bl	__ZNSt3__112basic_stringIcNS_11char_traitsIcEENS_9allocatorIcEEED1Ev
	b	LBB42_30
LBB42_30:
	add	x0, sp, #176
	bl	__ZNSt3__114basic_ofstreamIcNS_11char_traitsIcEEED1Ev
	b	LBB42_31
LBB42_31:
	add	x0, sp, #144
	bl	__ZNSt3__112basic_stringIcNS_11char_traitsIcEENS_9allocatorIcEEED1Ev
	b	LBB42_32
LBB42_32:
	ldr	x0, [sp, #136]
	bl	__Unwind_Resume
Lfunc_end8:
	.cfi_endproc
	.section	__TEXT,__gcc_except_tab
	.p2align	2
GCC_except_table42:
Lexception8:
	.byte	255                             ; @LPStart Encoding = omit
	.byte	255                             ; @TType Encoding = omit
	.byte	1                               ; Call site Encoding = uleb128
	.uleb128 Lcst_end8-Lcst_begin8
Lcst_begin8:
	.uleb128 Lfunc_begin8-Lfunc_begin8      ; >> Call Site 1 <<
	.uleb128 Ltmp176-Lfunc_begin8           ;   Call between Lfunc_begin8 and Ltmp176
	.byte	0                               ;     has no landing pad
	.byte	0                               ;   On action: cleanup
	.uleb128 Ltmp176-Lfunc_begin8           ; >> Call Site 2 <<
	.uleb128 Ltmp177-Ltmp176                ;   Call between Ltmp176 and Ltmp177
	.uleb128 Ltmp178-Lfunc_begin8           ;     jumps to Ltmp178
	.byte	0                               ;   On action: cleanup
	.uleb128 Ltmp179-Lfunc_begin8           ; >> Call Site 3 <<
	.uleb128 Ltmp182-Ltmp179                ;   Call between Ltmp179 and Ltmp182
	.uleb128 Ltmp211-Lfunc_begin8           ;     jumps to Ltmp211
	.byte	0                               ;   On action: cleanup
	.uleb128 Ltmp183-Lfunc_begin8           ; >> Call Site 4 <<
	.uleb128 Ltmp184-Ltmp183                ;   Call between Ltmp183 and Ltmp184
	.uleb128 Ltmp185-Lfunc_begin8           ;     jumps to Ltmp185
	.byte	0                               ;   On action: cleanup
	.uleb128 Ltmp186-Lfunc_begin8           ; >> Call Site 5 <<
	.uleb128 Ltmp207-Ltmp186                ;   Call between Ltmp186 and Ltmp207
	.uleb128 Ltmp208-Lfunc_begin8           ;     jumps to Ltmp208
	.byte	0                               ;   On action: cleanup
	.uleb128 Ltmp188-Lfunc_begin8           ; >> Call Site 6 <<
	.uleb128 Ltmp205-Ltmp188                ;   Call between Ltmp188 and Ltmp205
	.uleb128 Ltmp211-Lfunc_begin8           ;     jumps to Ltmp211
	.byte	0                               ;   On action: cleanup
	.uleb128 Ltmp205-Lfunc_begin8           ; >> Call Site 7 <<
	.uleb128 Lfunc_end8-Ltmp205             ;   Call between Ltmp205 and Lfunc_end8
	.byte	0                               ;     has no landing pad
	.byte	0                               ;   On action: cleanup
Lcst_end8:
	.p2align	2
                                        ; -- End function
	.section	__TEXT,__text,regular,pure_instructions
	.private_extern	__ZNSt3__114basic_ofstreamIcNS_11char_traitsIcEEEC1ERKNS_12basic_stringIcS2_NS_9allocatorIcEEEEj ; -- Begin function _ZNSt3__114basic_ofstreamIcNS_11char_traitsIcEEEC1ERKNS_12basic_stringIcS2_NS_9allocatorIcEEEEj
	.globl	__ZNSt3__114basic_ofstreamIcNS_11char_traitsIcEEEC1ERKNS_12basic_stringIcS2_NS_9allocatorIcEEEEj
	.weak_def_can_be_hidden	__ZNSt3__114basic_ofstreamIcNS_11char_traitsIcEEEC1ERKNS_12basic_stringIcS2_NS_9allocatorIcEEEEj
	.p2align	2
__ZNSt3__114basic_ofstreamIcNS_11char_traitsIcEEEC1ERKNS_12basic_stringIcS2_NS_9allocatorIcEEEEj: ; @_ZNSt3__114basic_ofstreamIcNS_11char_traitsIcEEEC1ERKNS_12basic_stringIcS2_NS_9allocatorIcEEEEj
Lfunc_begin9:
	.cfi_startproc
	.cfi_personality 155, ___gxx_personality_v0
	.cfi_lsda 16, Lexception9
; %bb.0:
	sub	sp, sp, #112
	.cfi_def_cfa_offset 112
	stp	x29, x30, [sp, #96]             ; 16-byte Folded Spill
	add	x29, sp, #96
	.cfi_def_cfa w29, 16
	.cfi_offset w30, -8
	.cfi_offset w29, -16
	adrp	x8, __ZTVNSt3__114basic_ofstreamIcNS_11char_traitsIcEEEE@GOTPAGE
	ldr	x8, [x8, __ZTVNSt3__114basic_ofstreamIcNS_11char_traitsIcEEEE@GOTPAGEOFF]
	add	x9, x8, #24
	str	x9, [sp, #16]                   ; 8-byte Folded Spill
	add	x8, x8, #64
	str	x8, [sp, #24]                   ; 8-byte Folded Spill
	adrp	x8, __ZTTNSt3__114basic_ofstreamIcNS_11char_traitsIcEEEE@GOTPAGE
	ldr	x8, [x8, __ZTTNSt3__114basic_ofstreamIcNS_11char_traitsIcEEEE@GOTPAGEOFF]
	add	x8, x8, #8
	str	x8, [sp, #32]                   ; 8-byte Folded Spill
	stur	x0, [x29, #-16]
	stur	x1, [x29, #-24]
	stur	w2, [x29, #-28]
	ldur	x8, [x29, #-16]
	str	x8, [sp, #40]                   ; 8-byte Folded Spill
	mov	x9, x8
	stur	x9, [x29, #-8]
	add	x0, x8, #416
	bl	__ZNSt3__19basic_iosIcNS_11char_traitsIcEEEC2B6v15006Ev
	ldr	x10, [sp, #16]                  ; 8-byte Folded Reload
	ldr	x9, [sp, #24]                   ; 8-byte Folded Reload
	ldr	x1, [sp, #32]                   ; 8-byte Folded Reload
	ldr	x8, [sp, #40]                   ; 8-byte Folded Reload
	str	x10, [x8]
	str	x9, [x8, #416]
Ltmp212:
	mov	x0, x8
	add	x2, x8, #8
	bl	__ZNSt3__113basic_ostreamIcNS_11char_traitsIcEEEC2B6v15006EPNS_15basic_streambufIcS2_EE
Ltmp213:
	b	LBB43_1
LBB43_1:
	ldr	x8, [sp, #40]                   ; 8-byte Folded Reload
	ldr	x9, [sp, #24]                   ; 8-byte Folded Reload
	ldr	x10, [sp, #16]                  ; 8-byte Folded Reload
	str	x10, [x8]
	str	x9, [x8, #416]
	add	x0, x8, #8
	str	x0, [sp, #8]                    ; 8-byte Folded Spill
Ltmp215:
	bl	__ZNSt3__113basic_filebufIcNS_11char_traitsIcEEEC1Ev
Ltmp216:
	b	LBB43_2
LBB43_2:
	ldr	x8, [sp, #40]                   ; 8-byte Folded Reload
	add	x0, x8, #8
	ldur	x1, [x29, #-24]
	ldur	w8, [x29, #-28]
	orr	w2, w8, #0x10
Ltmp218:
	bl	__ZNSt3__113basic_filebufIcNS_11char_traitsIcEEE4openERKNS_12basic_stringIcS2_NS_9allocatorIcEEEEj
	str	x0, [sp]                        ; 8-byte Folded Spill
Ltmp219:
	b	LBB43_3
LBB43_3:
	ldr	x8, [sp]                        ; 8-byte Folded Reload
	subs	x8, x8, #0
	cset	w8, ne
	tbnz	w8, #0, LBB43_9
	b	LBB43_4
LBB43_4:
	ldr	x8, [sp, #40]                   ; 8-byte Folded Reload
	ldr	x9, [x8]
	ldur	x9, [x9, #-24]
	add	x0, x8, x9
Ltmp220:
	mov	w1, #4
	bl	__ZNSt3__19basic_iosIcNS_11char_traitsIcEEE8setstateB6v15006Ej
Ltmp221:
	b	LBB43_5
LBB43_5:
	b	LBB43_9
LBB43_6:
Ltmp214:
	mov	x8, x1
	stur	x0, [x29, #-40]
	stur	w8, [x29, #-44]
	b	LBB43_11
LBB43_7:
Ltmp217:
	mov	x8, x1
	stur	x0, [x29, #-40]
	stur	w8, [x29, #-44]
	b	LBB43_10
LBB43_8:
Ltmp222:
	mov	x9, x0
	ldr	x0, [sp, #8]                    ; 8-byte Folded Reload
	mov	x8, x1
	stur	x9, [x29, #-40]
	stur	w8, [x29, #-44]
	bl	__ZNSt3__113basic_filebufIcNS_11char_traitsIcEEED1Ev
	b	LBB43_10
LBB43_9:
	ldur	x0, [x29, #-8]
	ldp	x29, x30, [sp, #96]             ; 16-byte Folded Reload
	add	sp, sp, #112
	ret
LBB43_10:
	ldr	x1, [sp, #32]                   ; 8-byte Folded Reload
	ldr	x0, [sp, #40]                   ; 8-byte Folded Reload
	bl	__ZNSt3__113basic_ostreamIcNS_11char_traitsIcEEED2Ev
	b	LBB43_11
LBB43_11:
	ldr	x8, [sp, #40]                   ; 8-byte Folded Reload
	add	x0, x8, #416
	bl	__ZNSt3__19basic_iosIcNS_11char_traitsIcEEED2Ev
	b	LBB43_12
LBB43_12:
	ldur	x0, [x29, #-40]
	bl	__Unwind_Resume
Lfunc_end9:
	.cfi_endproc
	.section	__TEXT,__gcc_except_tab
	.p2align	2
GCC_except_table43:
Lexception9:
	.byte	255                             ; @LPStart Encoding = omit
	.byte	255                             ; @TType Encoding = omit
	.byte	1                               ; Call site Encoding = uleb128
	.uleb128 Lcst_end9-Lcst_begin9
Lcst_begin9:
	.uleb128 Lfunc_begin9-Lfunc_begin9      ; >> Call Site 1 <<
	.uleb128 Ltmp212-Lfunc_begin9           ;   Call between Lfunc_begin9 and Ltmp212
	.byte	0                               ;     has no landing pad
	.byte	0                               ;   On action: cleanup
	.uleb128 Ltmp212-Lfunc_begin9           ; >> Call Site 2 <<
	.uleb128 Ltmp213-Ltmp212                ;   Call between Ltmp212 and Ltmp213
	.uleb128 Ltmp214-Lfunc_begin9           ;     jumps to Ltmp214
	.byte	0                               ;   On action: cleanup
	.uleb128 Ltmp215-Lfunc_begin9           ; >> Call Site 3 <<
	.uleb128 Ltmp216-Ltmp215                ;   Call between Ltmp215 and Ltmp216
	.uleb128 Ltmp217-Lfunc_begin9           ;     jumps to Ltmp217
	.byte	0                               ;   On action: cleanup
	.uleb128 Ltmp218-Lfunc_begin9           ; >> Call Site 4 <<
	.uleb128 Ltmp221-Ltmp218                ;   Call between Ltmp218 and Ltmp221
	.uleb128 Ltmp222-Lfunc_begin9           ;     jumps to Ltmp222
	.byte	0                               ;   On action: cleanup
	.uleb128 Ltmp221-Lfunc_begin9           ; >> Call Site 5 <<
	.uleb128 Lfunc_end9-Ltmp221             ;   Call between Ltmp221 and Lfunc_end9
	.byte	0                               ;     has no landing pad
	.byte	0                               ;   On action: cleanup
Lcst_end9:
	.p2align	2
                                        ; -- End function
	.section	__TEXT,__text,regular,pure_instructions
	.globl	__ZNSt3__1lsINS_11char_traitsIcEEEERNS_13basic_ostreamIcT_EES6_PKc ; -- Begin function _ZNSt3__1lsINS_11char_traitsIcEEEERNS_13basic_ostreamIcT_EES6_PKc
	.weak_definition	__ZNSt3__1lsINS_11char_traitsIcEEEERNS_13basic_ostreamIcT_EES6_PKc
	.p2align	2
__ZNSt3__1lsINS_11char_traitsIcEEEERNS_13basic_ostreamIcT_EES6_PKc: ; @_ZNSt3__1lsINS_11char_traitsIcEEEERNS_13basic_ostreamIcT_EES6_PKc
	.cfi_startproc
; %bb.0:
	sub	sp, sp, #48
	.cfi_def_cfa_offset 48
	stp	x29, x30, [sp, #32]             ; 16-byte Folded Spill
	add	x29, sp, #32
	.cfi_def_cfa w29, 16
	.cfi_offset w30, -8
	.cfi_offset w29, -16
	stur	x0, [x29, #-8]
	str	x1, [sp, #16]
	ldur	x8, [x29, #-8]
	str	x8, [sp, #8]                    ; 8-byte Folded Spill
	ldr	x8, [sp, #16]
	str	x8, [sp]                        ; 8-byte Folded Spill
	ldr	x0, [sp, #16]
	bl	__ZNSt3__111char_traitsIcE6lengthEPKc
	ldr	x1, [sp]                        ; 8-byte Folded Reload
	mov	x2, x0
	ldr	x0, [sp, #8]                    ; 8-byte Folded Reload
	bl	__ZNSt3__124__put_character_sequenceIcNS_11char_traitsIcEEEERNS_13basic_ostreamIT_T0_EES7_PKS4_m
	ldp	x29, x30, [sp, #32]             ; 16-byte Folded Reload
	add	sp, sp, #48
	ret
	.cfi_endproc
                                        ; -- End function
	.globl	__ZN3map3clrlsERNSt3__113basic_ostreamIcNS1_11char_traitsIcEEEERKNS0_3RGBE ; -- Begin function _ZN3map3clrlsERNSt3__113basic_ostreamIcNS1_11char_traitsIcEEEERKNS0_3RGBE
	.weak_definition	__ZN3map3clrlsERNSt3__113basic_ostreamIcNS1_11char_traitsIcEEEERKNS0_3RGBE
	.p2align	2
__ZN3map3clrlsERNSt3__113basic_ostreamIcNS1_11char_traitsIcEEEERKNS0_3RGBE: ; @_ZN3map3clrlsERNSt3__113basic_ostreamIcNS1_11char_traitsIcEEEERKNS0_3RGBE
	.cfi_startproc
; %bb.0:
	sub	sp, sp, #48
	.cfi_def_cfa_offset 48
	stp	x29, x30, [sp, #32]             ; 16-byte Folded Spill
	add	x29, sp, #32
	.cfi_def_cfa w29, 16
	.cfi_offset w30, -8
	.cfi_offset w29, -16
	stur	x0, [x29, #-8]
	str	x1, [sp, #16]
	ldur	x0, [x29, #-8]
	ldr	x8, [sp, #16]
	ldrh	w1, [x8]
	bl	__ZNSt3__113basic_ostreamIcNS_11char_traitsIcEEElsEt
	adrp	x1, l_.str.11@PAGE
	add	x1, x1, l_.str.11@PAGEOFF
	str	x1, [sp, #8]                    ; 8-byte Folded Spill
	bl	__ZNSt3__1lsINS_11char_traitsIcEEEERNS_13basic_ostreamIcT_EES6_PKc
	ldr	x8, [sp, #16]
	ldrh	w1, [x8, #2]
	bl	__ZNSt3__113basic_ostreamIcNS_11char_traitsIcEEElsEt
	ldr	x1, [sp, #8]                    ; 8-byte Folded Reload
	bl	__ZNSt3__1lsINS_11char_traitsIcEEEERNS_13basic_ostreamIcT_EES6_PKc
	ldr	x8, [sp, #16]
	ldrh	w1, [x8, #4]
	bl	__ZNSt3__113basic_ostreamIcNS_11char_traitsIcEEElsEt
	ldp	x29, x30, [sp, #32]             ; 16-byte Folded Reload
	add	sp, sp, #48
	ret
	.cfi_endproc
                                        ; -- End function
	.globl	__ZNSt3__1lsINS_11char_traitsIcEEEERNS_13basic_ostreamIcT_EES6_c ; -- Begin function _ZNSt3__1lsINS_11char_traitsIcEEEERNS_13basic_ostreamIcT_EES6_c
	.weak_definition	__ZNSt3__1lsINS_11char_traitsIcEEEERNS_13basic_ostreamIcT_EES6_c
	.p2align	2
__ZNSt3__1lsINS_11char_traitsIcEEEERNS_13basic_ostreamIcT_EES6_c: ; @_ZNSt3__1lsINS_11char_traitsIcEEEERNS_13basic_ostreamIcT_EES6_c
	.cfi_startproc
; %bb.0:
	sub	sp, sp, #32
	.cfi_def_cfa_offset 32
	stp	x29, x30, [sp, #16]             ; 16-byte Folded Spill
	add	x29, sp, #16
	.cfi_def_cfa w29, 16
	.cfi_offset w30, -8
	.cfi_offset w29, -16
	mov	x8, x1
	str	x0, [sp, #8]
	add	x1, sp, #7
	strb	w8, [sp, #7]
	ldr	x0, [sp, #8]
	mov	x2, #1
	bl	__ZNSt3__124__put_character_sequenceIcNS_11char_traitsIcEEEERNS_13basic_ostreamIT_T0_EES7_PKS4_m
	ldp	x29, x30, [sp, #16]             ; 16-byte Folded Reload
	add	sp, sp, #32
	ret
	.cfi_endproc
                                        ; -- End function
	.private_extern	__ZNSt3__114basic_ofstreamIcNS_11char_traitsIcEEE5closeEv ; -- Begin function _ZNSt3__114basic_ofstreamIcNS_11char_traitsIcEEE5closeEv
	.globl	__ZNSt3__114basic_ofstreamIcNS_11char_traitsIcEEE5closeEv
	.weak_definition	__ZNSt3__114basic_ofstreamIcNS_11char_traitsIcEEE5closeEv
	.p2align	2
__ZNSt3__114basic_ofstreamIcNS_11char_traitsIcEEE5closeEv: ; @_ZNSt3__114basic_ofstreamIcNS_11char_traitsIcEEE5closeEv
	.cfi_startproc
; %bb.0:
	sub	sp, sp, #32
	.cfi_def_cfa_offset 32
	stp	x29, x30, [sp, #16]             ; 16-byte Folded Spill
	add	x29, sp, #16
	.cfi_def_cfa w29, 16
	.cfi_offset w30, -8
	.cfi_offset w29, -16
	str	x0, [sp, #8]
	ldr	x8, [sp, #8]
	str	x8, [sp]                        ; 8-byte Folded Spill
	add	x0, x8, #8
	bl	__ZNSt3__113basic_filebufIcNS_11char_traitsIcEEE5closeEv
	subs	x8, x0, #0
	cset	w8, ne
	tbnz	w8, #0, LBB47_2
	b	LBB47_1
LBB47_1:
	ldr	x8, [sp]                        ; 8-byte Folded Reload
	ldr	x9, [x8]
	ldur	x9, [x9, #-24]
	add	x0, x8, x9
	mov	w1, #4
	bl	__ZNSt3__19basic_iosIcNS_11char_traitsIcEEE8setstateB6v15006Ej
	b	LBB47_2
LBB47_2:
	ldp	x29, x30, [sp, #16]             ; 16-byte Folded Reload
	add	sp, sp, #32
	ret
	.cfi_endproc
                                        ; -- End function
	.globl	__ZNSt3__114basic_ofstreamIcNS_11char_traitsIcEEED1Ev ; -- Begin function _ZNSt3__114basic_ofstreamIcNS_11char_traitsIcEEED1Ev
	.weak_def_can_be_hidden	__ZNSt3__114basic_ofstreamIcNS_11char_traitsIcEEED1Ev
	.p2align	2
__ZNSt3__114basic_ofstreamIcNS_11char_traitsIcEEED1Ev: ; @_ZNSt3__114basic_ofstreamIcNS_11char_traitsIcEEED1Ev
	.cfi_startproc
; %bb.0:
	sub	sp, sp, #32
	.cfi_def_cfa_offset 32
	stp	x29, x30, [sp, #16]             ; 16-byte Folded Spill
	add	x29, sp, #16
	.cfi_def_cfa w29, 16
	.cfi_offset w30, -8
	.cfi_offset w29, -16
	str	x0, [sp, #8]
	ldr	x0, [sp, #8]
	str	x0, [sp]                        ; 8-byte Folded Spill
	adrp	x1, __ZTTNSt3__114basic_ofstreamIcNS_11char_traitsIcEEEE@GOTPAGE
	ldr	x1, [x1, __ZTTNSt3__114basic_ofstreamIcNS_11char_traitsIcEEEE@GOTPAGEOFF]
	bl	__ZNSt3__114basic_ofstreamIcNS_11char_traitsIcEEED2Ev
	ldr	x8, [sp]                        ; 8-byte Folded Reload
	add	x0, x8, #416
	bl	__ZNSt3__19basic_iosIcNS_11char_traitsIcEEED2Ev
	ldr	x0, [sp]                        ; 8-byte Folded Reload
	ldp	x29, x30, [sp, #16]             ; 16-byte Folded Reload
	add	sp, sp, #32
	ret
	.cfi_endproc
                                        ; -- End function
	.globl	__ZN3map6Mapper7setFileENSt3__112basic_stringIcNS1_11char_traitsIcEENS1_9allocatorIcEEEE ; -- Begin function _ZN3map6Mapper7setFileENSt3__112basic_stringIcNS1_11char_traitsIcEENS1_9allocatorIcEEEE
	.p2align	2
__ZN3map6Mapper7setFileENSt3__112basic_stringIcNS1_11char_traitsIcEENS1_9allocatorIcEEEE: ; @_ZN3map6Mapper7setFileENSt3__112basic_stringIcNS1_11char_traitsIcEENS1_9allocatorIcEEEE
	.cfi_startproc
; %bb.0:
	sub	sp, sp, #32
	.cfi_def_cfa_offset 32
	stp	x29, x30, [sp, #16]             ; 16-byte Folded Spill
	add	x29, sp, #16
	.cfi_def_cfa w29, 16
	.cfi_offset w30, -8
	.cfi_offset w29, -16
	str	x0, [sp, #8]
	ldr	x0, [sp, #8]
	bl	__ZNSt3__112basic_stringIcNS_11char_traitsIcEENS_9allocatorIcEEEaSERKS5_
	ldp	x29, x30, [sp, #16]             ; 16-byte Folded Reload
	add	sp, sp, #32
	ret
	.cfi_endproc
                                        ; -- End function
	.globl	__ZNK3map6Mapper7getSizeEv      ; -- Begin function _ZNK3map6Mapper7getSizeEv
	.p2align	2
__ZNK3map6Mapper7getSizeEv:             ; @_ZNK3map6Mapper7getSizeEv
	.cfi_startproc
; %bb.0:
	sub	sp, sp, #16
	.cfi_def_cfa_offset 16
	str	x0, [sp]
	ldr	x8, [sp]
	ldr	x8, [x8, #48]
	str	x8, [sp, #8]
	ldr	x0, [sp, #8]
	add	sp, sp, #16
	ret
	.cfi_endproc
                                        ; -- End function
	.globl	__ZN3map6Mapper9fillWhiteEv     ; -- Begin function _ZN3map6Mapper9fillWhiteEv
	.p2align	2
__ZN3map6Mapper9fillWhiteEv:            ; @_ZN3map6Mapper9fillWhiteEv
	.cfi_startproc
; %bb.0:
	sub	sp, sp, #48
	.cfi_def_cfa_offset 48
	stp	x29, x30, [sp, #32]             ; 16-byte Folded Spill
	add	x29, sp, #32
	.cfi_def_cfa w29, 16
	.cfi_offset w30, -8
	.cfi_offset w29, -16
	stur	x0, [x29, #-8]
	ldur	x8, [x29, #-8]
	str	x8, [sp]                        ; 8-byte Folded Spill
	stur	wzr, [x29, #-12]
	b	LBB51_1
LBB51_1:                                ; =>This Loop Header: Depth=1
                                        ;     Child Loop BB51_3 Depth 2
	ldr	x9, [sp]                        ; 8-byte Folded Reload
	ldur	w8, [x29, #-12]
	ldr	w9, [x9, #48]
	subs	w8, w8, w9
	cset	w8, ge
	tbnz	w8, #0, LBB51_8
	b	LBB51_2
LBB51_2:                                ;   in Loop: Header=BB51_1 Depth=1
	str	wzr, [sp, #16]
	b	LBB51_3
LBB51_3:                                ;   Parent Loop BB51_1 Depth=1
                                        ; =>  This Inner Loop Header: Depth=2
	ldr	x9, [sp]                        ; 8-byte Folded Reload
	ldr	w8, [sp, #16]
	ldr	w9, [x9, #52]
	subs	w8, w8, w9
	cset	w8, ge
	tbnz	w8, #0, LBB51_6
	b	LBB51_4
LBB51_4:                                ;   in Loop: Header=BB51_3 Depth=2
	add	x0, sp, #10
	mov	w3, #255
	mov	x1, x3
	mov	x2, x3
	bl	__ZN3map3clr3RGBC1Eiii
	ldr	x9, [sp]                        ; 8-byte Folded Reload
	ldr	x10, [x9, #96]
	ldur	w8, [x29, #-12]
	ldr	w9, [x9, #52]
	mul	w8, w8, w9
	ldr	w9, [sp, #16]
	add	w8, w8, w9
	mov	w9, #6
	smaddl	x9, w8, w9, x10
	ldur	w8, [sp, #10]
	str	w8, [x9]
	ldrh	w8, [sp, #14]
	strh	w8, [x9, #4]
	b	LBB51_5
LBB51_5:                                ;   in Loop: Header=BB51_3 Depth=2
	ldr	w8, [sp, #16]
	add	w8, w8, #1
	str	w8, [sp, #16]
	b	LBB51_3
LBB51_6:                                ;   in Loop: Header=BB51_1 Depth=1
	b	LBB51_7
LBB51_7:                                ;   in Loop: Header=BB51_1 Depth=1
	ldur	w8, [x29, #-12]
	add	w8, w8, #1
	stur	w8, [x29, #-12]
	b	LBB51_1
LBB51_8:
	ldr	x8, [sp]                        ; 8-byte Folded Reload
	ldrb	w8, [x8, #104]
	tbz	w8, #0, LBB51_10
	b	LBB51_9
LBB51_9:
	ldr	x0, [sp]                        ; 8-byte Folded Reload
	bl	__ZN3map6Mapper8setStateEv
	b	LBB51_10
LBB51_10:
	ldp	x29, x30, [sp, #32]             ; 16-byte Folded Reload
	add	sp, sp, #48
	ret
	.cfi_endproc
                                        ; -- End function
	.globl	__ZN3map3clr3RGBC1Eiii          ; -- Begin function _ZN3map3clr3RGBC1Eiii
	.weak_def_can_be_hidden	__ZN3map3clr3RGBC1Eiii
	.p2align	2
__ZN3map3clr3RGBC1Eiii:                 ; @_ZN3map3clr3RGBC1Eiii
	.cfi_startproc
; %bb.0:
	sub	sp, sp, #48
	.cfi_def_cfa_offset 48
	stp	x29, x30, [sp, #32]             ; 16-byte Folded Spill
	add	x29, sp, #32
	.cfi_def_cfa w29, 16
	.cfi_offset w30, -8
	.cfi_offset w29, -16
	stur	x0, [x29, #-8]
	stur	w1, [x29, #-12]
	str	w2, [sp, #16]
	str	w3, [sp, #12]
	ldur	x0, [x29, #-8]
	str	x0, [sp]                        ; 8-byte Folded Spill
	ldur	w1, [x29, #-12]
	ldr	w2, [sp, #16]
	ldr	w3, [sp, #12]
	bl	__ZN3map3clr3RGBC2Eiii
	ldr	x0, [sp]                        ; 8-byte Folded Reload
	ldp	x29, x30, [sp, #32]             ; 16-byte Folded Reload
	add	sp, sp, #48
	ret
	.cfi_endproc
                                        ; -- End function
	.globl	__ZN3map6Mapper4fillENS_3clr3RGBE ; -- Begin function _ZN3map6Mapper4fillENS_3clr3RGBE
	.p2align	2
__ZN3map6Mapper4fillENS_3clr3RGBE:      ; @_ZN3map6Mapper4fillENS_3clr3RGBE
	.cfi_startproc
; %bb.0:
	sub	sp, sp, #64
	.cfi_def_cfa_offset 64
	stp	x29, x30, [sp, #48]             ; 16-byte Folded Spill
	add	x29, sp, #48
	.cfi_def_cfa w29, 16
	.cfi_offset w30, -8
	.cfi_offset w29, -16
	stur	x1, [x29, #-16]
	ldur	w8, [x29, #-16]
	stur	w8, [x29, #-8]
	ldurh	w8, [x29, #-12]
	sturh	w8, [x29, #-4]
	str	x0, [sp, #24]
	ldr	x8, [sp, #24]
	str	x8, [sp, #8]                    ; 8-byte Folded Spill
	str	wzr, [sp, #20]
	b	LBB53_1
LBB53_1:                                ; =>This Loop Header: Depth=1
                                        ;     Child Loop BB53_3 Depth 2
	ldr	x9, [sp, #8]                    ; 8-byte Folded Reload
	ldr	w8, [sp, #20]
	ldr	w9, [x9, #48]
	subs	w8, w8, w9
	cset	w8, ge
	tbnz	w8, #0, LBB53_8
	b	LBB53_2
LBB53_2:                                ;   in Loop: Header=BB53_1 Depth=1
	str	wzr, [sp, #16]
	b	LBB53_3
LBB53_3:                                ;   Parent Loop BB53_1 Depth=1
                                        ; =>  This Inner Loop Header: Depth=2
	ldr	x9, [sp, #8]                    ; 8-byte Folded Reload
	ldr	w8, [sp, #16]
	ldr	w9, [x9, #52]
	subs	w8, w8, w9
	cset	w8, ge
	tbnz	w8, #0, LBB53_6
	b	LBB53_4
LBB53_4:                                ;   in Loop: Header=BB53_3 Depth=2
	ldr	x9, [sp, #8]                    ; 8-byte Folded Reload
	ldr	x11, [x9, #96]
	ldr	w8, [sp, #20]
	ldr	w9, [x9, #52]
	mul	w8, w8, w9
	mov	x10, #6
	mov	w9, #6
	smaddl	x8, w8, w9, x11
	ldrsw	x9, [sp, #16]
	mul	x9, x9, x10
	add	x9, x8, x9
	ldur	w8, [x29, #-8]
	str	w8, [x9]
	ldurh	w8, [x29, #-4]
	strh	w8, [x9, #4]
	b	LBB53_5
LBB53_5:                                ;   in Loop: Header=BB53_3 Depth=2
	ldr	w8, [sp, #16]
	add	w8, w8, #1
	str	w8, [sp, #16]
	b	LBB53_3
LBB53_6:                                ;   in Loop: Header=BB53_1 Depth=1
	b	LBB53_7
LBB53_7:                                ;   in Loop: Header=BB53_1 Depth=1
	ldr	w8, [sp, #20]
	add	w8, w8, #1
	str	w8, [sp, #20]
	b	LBB53_1
LBB53_8:
	ldr	x8, [sp, #8]                    ; 8-byte Folded Reload
	ldrb	w8, [x8, #104]
	tbz	w8, #0, LBB53_10
	b	LBB53_9
LBB53_9:
	ldr	x0, [sp, #8]                    ; 8-byte Folded Reload
	bl	__ZN3map6Mapper8setStateEv
	b	LBB53_10
LBB53_10:
	ldp	x29, x30, [sp, #48]             ; 16-byte Folded Reload
	add	sp, sp, #64
	ret
	.cfi_endproc
                                        ; -- End function
	.globl	__ZN3map6Mapper9randomizeEv     ; -- Begin function _ZN3map6Mapper9randomizeEv
	.p2align	2
__ZN3map6Mapper9randomizeEv:            ; @_ZN3map6Mapper9randomizeEv
	.cfi_startproc
; %bb.0:
	sub	sp, sp, #64
	.cfi_def_cfa_offset 64
	stp	x29, x30, [sp, #48]             ; 16-byte Folded Spill
	add	x29, sp, #48
	.cfi_def_cfa w29, 16
	.cfi_offset w30, -8
	.cfi_offset w29, -16
	stur	x0, [x29, #-8]
	ldur	x8, [x29, #-8]
	str	x8, [sp, #16]                   ; 8-byte Folded Spill
	mov	x0, #0
	bl	_time
                                        ; kill: def $w0 killed $w0 killed $x0
	bl	_srand
	stur	wzr, [x29, #-12]
	b	LBB54_1
LBB54_1:                                ; =>This Loop Header: Depth=1
                                        ;     Child Loop BB54_3 Depth 2
	ldr	x9, [sp, #16]                   ; 8-byte Folded Reload
	ldur	w8, [x29, #-12]
	ldr	w9, [x9, #48]
	subs	w8, w8, w9
	cset	w8, ge
	tbnz	w8, #0, LBB54_8
	b	LBB54_2
LBB54_2:                                ;   in Loop: Header=BB54_1 Depth=1
	stur	wzr, [x29, #-16]
	b	LBB54_3
LBB54_3:                                ;   Parent Loop BB54_1 Depth=1
                                        ; =>  This Inner Loop Header: Depth=2
	ldr	x9, [sp, #16]                   ; 8-byte Folded Reload
	ldur	w8, [x29, #-16]
	ldr	w9, [x9, #52]
	subs	w8, w8, w9
	cset	w8, ge
	tbnz	w8, #0, LBB54_6
	b	LBB54_4
LBB54_4:                                ;   in Loop: Header=BB54_3 Depth=2
	bl	_rand
	mov	w9, #256
	str	w9, [sp, #4]                    ; 4-byte Folded Spill
	sdiv	w8, w0, w9
	mul	w8, w8, w9
	subs	w8, w0, w8
	str	w8, [sp, #8]                    ; 4-byte Folded Spill
	bl	_rand
	ldr	w9, [sp, #4]                    ; 4-byte Folded Reload
	sdiv	w8, w0, w9
	mul	w8, w8, w9
	subs	w8, w0, w8
	str	w8, [sp, #12]                   ; 4-byte Folded Spill
	bl	_rand
	ldr	w9, [sp, #4]                    ; 4-byte Folded Reload
	ldr	w1, [sp, #8]                    ; 4-byte Folded Reload
	ldr	w2, [sp, #12]                   ; 4-byte Folded Reload
	sdiv	w8, w0, w9
	mul	w8, w8, w9
	subs	w3, w0, w8
	sub	x0, x29, #22
	bl	__ZN3map3clr3RGBC1Eiii
	ldr	x9, [sp, #16]                   ; 8-byte Folded Reload
	ldr	x11, [x9, #96]
	ldur	w8, [x29, #-12]
	ldr	w9, [x9, #52]
	mul	w8, w8, w9
	mov	x10, #6
	mov	w9, #6
	smaddl	x8, w8, w9, x11
	ldursw	x9, [x29, #-16]
	mul	x9, x9, x10
	add	x9, x8, x9
	ldur	w8, [x29, #-22]
	str	w8, [x9]
	ldurh	w8, [x29, #-18]
	strh	w8, [x9, #4]
	b	LBB54_5
LBB54_5:                                ;   in Loop: Header=BB54_3 Depth=2
	ldur	w8, [x29, #-16]
	add	w8, w8, #1
	stur	w8, [x29, #-16]
	b	LBB54_3
LBB54_6:                                ;   in Loop: Header=BB54_1 Depth=1
	b	LBB54_7
LBB54_7:                                ;   in Loop: Header=BB54_1 Depth=1
	ldur	w8, [x29, #-12]
	add	w8, w8, #1
	stur	w8, [x29, #-12]
	b	LBB54_1
LBB54_8:
	ldr	x8, [sp, #16]                   ; 8-byte Folded Reload
	ldrb	w8, [x8, #104]
	tbz	w8, #0, LBB54_10
	b	LBB54_9
LBB54_9:
	ldr	x0, [sp, #16]                   ; 8-byte Folded Reload
	bl	__ZN3map6Mapper8setStateEv
	b	LBB54_10
LBB54_10:
	ldp	x29, x30, [sp, #48]             ; 16-byte Folded Reload
	add	sp, sp, #64
	ret
	.cfi_endproc
                                        ; -- End function
	.globl	__ZN3map6Mapper13randomizeGreyEv ; -- Begin function _ZN3map6Mapper13randomizeGreyEv
	.p2align	2
__ZN3map6Mapper13randomizeGreyEv:       ; @_ZN3map6Mapper13randomizeGreyEv
	.cfi_startproc
; %bb.0:
	sub	sp, sp, #64
	.cfi_def_cfa_offset 64
	stp	x29, x30, [sp, #48]             ; 16-byte Folded Spill
	add	x29, sp, #48
	.cfi_def_cfa w29, 16
	.cfi_offset w30, -8
	.cfi_offset w29, -16
	stur	x0, [x29, #-8]
	ldur	x8, [x29, #-8]
	str	x8, [sp, #8]                    ; 8-byte Folded Spill
	mov	x0, #0
	bl	_time
                                        ; kill: def $w0 killed $w0 killed $x0
	bl	_srand
	stur	wzr, [x29, #-12]
	b	LBB55_1
LBB55_1:                                ; =>This Loop Header: Depth=1
                                        ;     Child Loop BB55_3 Depth 2
	ldr	x9, [sp, #8]                    ; 8-byte Folded Reload
	ldur	w8, [x29, #-12]
	ldr	w9, [x9, #48]
	subs	w8, w8, w9
	cset	w8, ge
	tbnz	w8, #0, LBB55_8
	b	LBB55_2
LBB55_2:                                ;   in Loop: Header=BB55_1 Depth=1
	stur	wzr, [x29, #-16]
	b	LBB55_3
LBB55_3:                                ;   Parent Loop BB55_1 Depth=1
                                        ; =>  This Inner Loop Header: Depth=2
	ldr	x9, [sp, #8]                    ; 8-byte Folded Reload
	ldur	w8, [x29, #-16]
	ldr	w9, [x9, #52]
	subs	w8, w8, w9
	cset	w8, ge
	tbnz	w8, #0, LBB55_6
	b	LBB55_4
LBB55_4:                                ;   in Loop: Header=BB55_3 Depth=2
	bl	_rand
	mov	w9, #256
	sdiv	w8, w0, w9
	mul	w8, w8, w9
	subs	w8, w0, w8
	stur	w8, [x29, #-20]
	ldur	w1, [x29, #-20]
	ldur	w2, [x29, #-20]
	ldur	w3, [x29, #-20]
	add	x0, sp, #22
	bl	__ZN3map3clr3RGBC1Eiii
	ldr	x9, [sp, #8]                    ; 8-byte Folded Reload
	ldr	x11, [x9, #96]
	ldur	w8, [x29, #-12]
	ldr	w9, [x9, #52]
	mul	w8, w8, w9
	mov	x10, #6
	mov	w9, #6
	smaddl	x8, w8, w9, x11
	ldursw	x9, [x29, #-16]
	mul	x9, x9, x10
	add	x9, x8, x9
	ldur	w8, [sp, #22]
	str	w8, [x9]
	ldrh	w8, [sp, #26]
	strh	w8, [x9, #4]
	b	LBB55_5
LBB55_5:                                ;   in Loop: Header=BB55_3 Depth=2
	ldur	w8, [x29, #-16]
	add	w8, w8, #1
	stur	w8, [x29, #-16]
	b	LBB55_3
LBB55_6:                                ;   in Loop: Header=BB55_1 Depth=1
	b	LBB55_7
LBB55_7:                                ;   in Loop: Header=BB55_1 Depth=1
	ldur	w8, [x29, #-12]
	add	w8, w8, #1
	stur	w8, [x29, #-12]
	b	LBB55_1
LBB55_8:
	ldr	x8, [sp, #8]                    ; 8-byte Folded Reload
	ldrb	w8, [x8, #104]
	tbz	w8, #0, LBB55_10
	b	LBB55_9
LBB55_9:
	ldr	x0, [sp, #8]                    ; 8-byte Folded Reload
	bl	__ZN3map6Mapper8setStateEv
	b	LBB55_10
LBB55_10:
	ldp	x29, x30, [sp, #48]             ; 16-byte Folded Reload
	add	sp, sp, #64
	ret
	.cfi_endproc
                                        ; -- End function
	.globl	__ZN3map6Mapper10getColorAtENS_5PointE ; -- Begin function _ZN3map6Mapper10getColorAtENS_5PointE
	.p2align	2
__ZN3map6Mapper10getColorAtENS_5PointE: ; @_ZN3map6Mapper10getColorAtENS_5PointE
	.cfi_startproc
; %bb.0:
	sub	sp, sp, #64
	.cfi_def_cfa_offset 64
	stp	x29, x30, [sp, #48]             ; 16-byte Folded Spill
	add	x29, sp, #48
	.cfi_def_cfa w29, 16
	.cfi_offset w30, -8
	.cfi_offset w29, -16
	str	d0, [sp, #24]
	str	d1, [sp, #32]
	str	x0, [sp, #16]
	ldr	x8, [sp, #16]
	str	x8, [sp]                        ; 8-byte Folded Spill
	ldr	d0, [sp, #24]
	fcmp	d0, #0.0
	cset	w8, lt
	tbnz	w8, #0, LBB56_5
	b	LBB56_1
LBB56_1:
	ldr	x8, [sp]                        ; 8-byte Folded Reload
	ldr	d0, [sp, #24]
	ldr	s2, [x8, #48]
                                        ; implicit-def: $d1
	fmov	s1, s2
	sshll.2d	v1, v1, #0
                                        ; kill: def $d1 killed $d1 killed $q1
	scvtf	d1, d1
	fcmp	d0, d1
	cset	w8, pl
	tbnz	w8, #0, LBB56_5
	b	LBB56_2
LBB56_2:
	ldr	d0, [sp, #32]
	fcmp	d0, #0.0
	cset	w8, lt
	tbnz	w8, #0, LBB56_5
	b	LBB56_3
LBB56_3:
	ldr	x8, [sp]                        ; 8-byte Folded Reload
	ldr	d0, [sp, #32]
	ldr	s2, [x8, #52]
                                        ; implicit-def: $d1
	fmov	s1, s2
	sshll.2d	v1, v1, #0
                                        ; kill: def $d1 killed $d1 killed $q1
	scvtf	d1, d1
	fcmp	d0, d1
	cset	w8, pl
	tbnz	w8, #0, LBB56_5
	b	LBB56_4
LBB56_4:
	ldr	x8, [sp]                        ; 8-byte Folded Reload
	ldr	x10, [x8, #96]
	ldr	d0, [sp, #24]
	ldr	s2, [x8, #52]
                                        ; implicit-def: $d1
	fmov	s1, s2
	sshll.2d	v1, v1, #0
                                        ; kill: def $d1 killed $d1 killed $q1
	scvtf	d1, d1
	ldr	d2, [sp, #32]
	fmadd	d0, d0, d1, d2
	fcvtzs	w8, d0
	mov	w9, #6
	smaddl	x8, w8, w9, x10
	ldr	w9, [x8]
	stur	w9, [x29, #-8]
	ldrh	w8, [x8, #4]
	sturh	w8, [x29, #-4]
	b	LBB56_6
LBB56_5:
	sub	x0, x29, #8
	bl	__ZN3map3clr3RGBC1Ev
	b	LBB56_6
LBB56_6:
	ldur	w8, [x29, #-8]
	str	w8, [sp, #8]
	ldurh	w8, [x29, #-4]
	strh	w8, [sp, #12]
	ldr	w8, [sp, #8]
                                        ; kill: def $x8 killed $w8
	ldrh	w10, [sp, #12]
                                        ; implicit-def: $x9
	mov	x9, x10
	orr	x0, x8, x9, lsl #32
	ldp	x29, x30, [sp, #48]             ; 16-byte Folded Reload
	add	sp, sp, #64
	ret
	.cfi_endproc
                                        ; -- End function
	.globl	__ZN3map3clr3RGBC1Ev            ; -- Begin function _ZN3map3clr3RGBC1Ev
	.weak_def_can_be_hidden	__ZN3map3clr3RGBC1Ev
	.p2align	2
__ZN3map3clr3RGBC1Ev:                   ; @_ZN3map3clr3RGBC1Ev
	.cfi_startproc
; %bb.0:
	sub	sp, sp, #32
	.cfi_def_cfa_offset 32
	stp	x29, x30, [sp, #16]             ; 16-byte Folded Spill
	add	x29, sp, #16
	.cfi_def_cfa w29, 16
	.cfi_offset w30, -8
	.cfi_offset w29, -16
	str	x0, [sp, #8]
	ldr	x0, [sp, #8]
	str	x0, [sp]                        ; 8-byte Folded Spill
	bl	__ZN3map3clr3RGBC2Ev
	ldr	x0, [sp]                        ; 8-byte Folded Reload
	ldp	x29, x30, [sp, #16]             ; 16-byte Folded Reload
	add	sp, sp, #32
	ret
	.cfi_endproc
                                        ; -- End function
	.globl	__ZN3map6Mapper6drawAtENS_5PointENS_3clr3RGBE ; -- Begin function _ZN3map6Mapper6drawAtENS_5PointENS_3clr3RGBE
	.p2align	2
__ZN3map6Mapper6drawAtENS_5PointENS_3clr3RGBE: ; @_ZN3map6Mapper6drawAtENS_5PointENS_3clr3RGBE
	.cfi_startproc
; %bb.0:
	sub	sp, sp, #64
	.cfi_def_cfa_offset 64
	stp	x29, x30, [sp, #48]             ; 16-byte Folded Spill
	add	x29, sp, #48
	.cfi_def_cfa w29, 16
	.cfi_offset w30, -8
	.cfi_offset w29, -16
	stur	d0, [x29, #-16]
	stur	d1, [x29, #-8]
	str	x1, [sp, #16]
	ldr	w8, [sp, #16]
	str	w8, [sp, #24]
	ldrh	w8, [sp, #20]
	strh	w8, [sp, #28]
	str	x0, [sp, #8]
	ldr	x8, [sp, #8]
	str	x8, [sp]                        ; 8-byte Folded Spill
	ldur	d0, [x29, #-16]
	fcmp	d0, #0.0
	cset	w8, lt
	tbnz	w8, #0, LBB58_5
	b	LBB58_1
LBB58_1:
	ldr	x8, [sp]                        ; 8-byte Folded Reload
	ldur	d0, [x29, #-16]
	ldr	s2, [x8, #48]
                                        ; implicit-def: $d1
	fmov	s1, s2
	sshll.2d	v1, v1, #0
                                        ; kill: def $d1 killed $d1 killed $q1
	scvtf	d1, d1
	fcmp	d0, d1
	cset	w8, pl
	tbnz	w8, #0, LBB58_5
	b	LBB58_2
LBB58_2:
	ldur	d0, [x29, #-8]
	fcmp	d0, #0.0
	cset	w8, lt
	tbnz	w8, #0, LBB58_5
	b	LBB58_3
LBB58_3:
	ldr	x8, [sp]                        ; 8-byte Folded Reload
	ldur	d0, [x29, #-8]
	ldr	s2, [x8, #52]
                                        ; implicit-def: $d1
	fmov	s1, s2
	sshll.2d	v1, v1, #0
                                        ; kill: def $d1 killed $d1 killed $q1
	scvtf	d1, d1
	fcmp	d0, d1
	cset	w8, pl
	tbnz	w8, #0, LBB58_5
	b	LBB58_4
LBB58_4:
	ldr	x8, [sp]                        ; 8-byte Folded Reload
	ldr	x10, [x8, #96]
	ldur	d0, [x29, #-16]
	ldr	s2, [x8, #52]
                                        ; implicit-def: $d1
	fmov	s1, s2
	sshll.2d	v1, v1, #0
                                        ; kill: def $d1 killed $d1 killed $q1
	scvtf	d1, d1
	ldur	d2, [x29, #-8]
	fmadd	d0, d0, d1, d2
	fcvtzs	w8, d0
	mov	w9, #6
	smaddl	x9, w8, w9, x10
	ldr	w8, [sp, #24]
	str	w8, [x9]
	ldrh	w8, [sp, #28]
	strh	w8, [x9, #4]
	b	LBB58_5
LBB58_5:
	ldr	x8, [sp]                        ; 8-byte Folded Reload
	ldrb	w8, [x8, #104]
	tbz	w8, #0, LBB58_7
	b	LBB58_6
LBB58_6:
	ldr	x0, [sp]                        ; 8-byte Folded Reload
	bl	__ZN3map6Mapper8setStateEv
	b	LBB58_7
LBB58_7:
	ldp	x29, x30, [sp, #48]             ; 16-byte Folded Reload
	add	sp, sp, #64
	ret
	.cfi_endproc
                                        ; -- End function
	.globl	__ZN3map6Mapper8drawLineENS_5PointES1_NS_3clr3RGBEi ; -- Begin function _ZN3map6Mapper8drawLineENS_5PointES1_NS_3clr3RGBEi
	.p2align	2
__ZN3map6Mapper8drawLineENS_5PointES1_NS_3clr3RGBEi: ; @_ZN3map6Mapper8drawLineENS_5PointES1_NS_3clr3RGBEi
	.cfi_startproc
; %bb.0:
	sub	sp, sp, #240
	.cfi_def_cfa_offset 240
	stp	x29, x30, [sp, #224]            ; 16-byte Folded Spill
	add	x29, sp, #224
	.cfi_def_cfa w29, 16
	.cfi_offset w30, -8
	.cfi_offset w29, -16
	sub	x8, x29, #32
	str	x8, [sp]                        ; 8-byte Folded Spill
	sub	x9, x29, #16
	str	x9, [sp, #24]                   ; 8-byte Folded Spill
	stur	d0, [x29, #-16]
	stur	d1, [x29, #-8]
	sub	x8, x29, #32
	str	x8, [sp, #16]                   ; 8-byte Folded Spill
	stur	d2, [x29, #-32]
	stur	d3, [x29, #-24]
	stur	x1, [x29, #-48]
	ldur	w10, [x29, #-48]
	stur	w10, [x29, #-40]
	ldurh	w10, [x29, #-44]
	sturh	w10, [x29, #-36]
	stur	x0, [x29, #-56]
	stur	w2, [x29, #-60]
	ldur	x10, [x29, #-56]
	str	x10, [sp, #32]                  ; 8-byte Folded Spill
	add	x0, x9, #8
	add	x1, x8, #8
	bl	__ZNSt3__13minB6v15006IdEERKT_S3_S3_
	sub	x1, x29, #72
	movi	d0, #0000000000000000
	str	d0, [sp, #8]                    ; 8-byte Folded Spill
	stur	d0, [x29, #-72]
	bl	__ZNSt3__13maxB6v15006IdEERKT_S3_S3_
	ldr	x9, [sp, #24]                   ; 8-byte Folded Reload
	ldr	x8, [sp, #16]                   ; 8-byte Folded Reload
	ldr	d0, [x0]
	fcvtzs	w10, d0
	stur	w10, [x29, #-64]
	add	x0, x9, #8
	add	x1, x8, #8
	bl	__ZNSt3__13maxB6v15006IdEERKT_S3_S3_
	ldr	x8, [sp, #32]                   ; 8-byte Folded Reload
	ldr	w8, [x8, #48]
	subs	w8, w8, #1
	scvtf	d0, w8
	sub	x1, x29, #88
	stur	d0, [x29, #-88]
	bl	__ZNSt3__13minB6v15006IdEERKT_S3_S3_
	ldr	x1, [sp, #16]                   ; 8-byte Folded Reload
	mov	x8, x0
	ldr	x0, [sp, #24]                   ; 8-byte Folded Reload
	ldr	d0, [x8]
	fcvtzs	w8, d0
	stur	w8, [x29, #-76]
	bl	__ZNSt3__13minB6v15006IdEERKT_S3_S3_
	ldr	d0, [sp, #8]                    ; 8-byte Folded Reload
	sub	x1, x29, #104
	stur	d0, [x29, #-104]
	bl	__ZNSt3__13maxB6v15006IdEERKT_S3_S3_
	ldr	x1, [sp, #16]                   ; 8-byte Folded Reload
	mov	x8, x0
	ldr	x0, [sp, #24]                   ; 8-byte Folded Reload
	ldr	d0, [x8]
	fcvtzs	w8, d0
	stur	w8, [x29, #-92]
	bl	__ZNSt3__13maxB6v15006IdEERKT_S3_S3_
	ldr	x8, [sp, #32]                   ; 8-byte Folded Reload
	ldr	w8, [x8, #52]
	subs	w8, w8, #1
	scvtf	d0, w8
	add	x1, sp, #104
	str	d0, [sp, #104]
	bl	__ZNSt3__13minB6v15006IdEERKT_S3_S3_
	ldr	d0, [x0]
	fcvtzs	w8, d0
	stur	w8, [x29, #-108]
	ldur	d0, [x29, #-32]
	ldur	d1, [x29, #-16]
	fsub	d0, d0, d1
	fcmp	d0, #0.0
	cset	w8, eq
	tbnz	w8, #0, LBB59_12
	b	LBB59_1
LBB59_1:
	ldur	w8, [x29, #-64]
	str	w8, [sp, #100]
	b	LBB59_2
LBB59_2:                                ; =>This Loop Header: Depth=1
                                        ;     Child Loop BB59_4 Depth 2
	ldr	w8, [sp, #100]
	ldur	w9, [x29, #-76]
	subs	w8, w8, w9
	cset	w8, gt
	tbnz	w8, #0, LBB59_11
	b	LBB59_3
LBB59_3:                                ;   in Loop: Header=BB59_2 Depth=1
	ldur	w8, [x29, #-92]
	str	w8, [sp, #96]
	b	LBB59_4
LBB59_4:                                ;   Parent Loop BB59_2 Depth=1
                                        ; =>  This Inner Loop Header: Depth=2
	ldr	w8, [sp, #96]
	ldur	w9, [x29, #-108]
	subs	w8, w8, w9
	cset	w8, gt
	tbnz	w8, #0, LBB59_9
	b	LBB59_5
LBB59_5:                                ;   in Loop: Header=BB59_4 Depth=2
	ldr	x8, [sp]                        ; 8-byte Folded Reload
	ldr	q0, [x8, #16]
	str	q0, [sp, #80]
	ldr	q0, [x8]
	str	q0, [sp, #64]
	ldr	s0, [sp, #96]
	scvtf	s0, s0
	fcvt	d0, s0
	ldr	s1, [sp, #100]
	scvtf	s1, s1
	fcvt	d1, s1
	add	x0, sp, #48
	bl	__ZN3map5PointC1Edd
	ldr	d0, [sp, #80]
	ldr	d1, [sp, #88]
	ldr	d2, [sp, #64]
	ldr	d3, [sp, #72]
	ldr	d4, [sp, #48]
	ldr	d5, [sp, #56]
	bl	__Z12distFromLineN3map5PointES0_S0_
	ldur	w8, [x29, #-60]
	mov	w10, #2
	sdiv	w8, w8, w10
	ldur	w9, [x29, #-60]
	sdiv	w9, w9, w10
	mul	w8, w8, w9
	scvtf	d1, w8
	fcmp	d0, d1
	cset	w8, hi
	tbnz	w8, #0, LBB59_7
	b	LBB59_6
LBB59_6:                                ;   in Loop: Header=BB59_4 Depth=2
	ldr	x9, [sp, #32]                   ; 8-byte Folded Reload
	ldr	x10, [x9, #96]
	ldr	w8, [sp, #100]
	ldr	w9, [x9, #52]
	mul	w8, w8, w9
	ldr	w9, [sp, #96]
	add	w8, w8, w9
	mov	w9, #6
	smaddl	x9, w8, w9, x10
	ldur	w8, [x29, #-40]
	str	w8, [x9]
	ldurh	w8, [x29, #-36]
	strh	w8, [x9, #4]
	b	LBB59_7
LBB59_7:                                ;   in Loop: Header=BB59_4 Depth=2
	b	LBB59_8
LBB59_8:                                ;   in Loop: Header=BB59_4 Depth=2
	ldr	w8, [sp, #96]
	add	w8, w8, #1
	str	w8, [sp, #96]
	b	LBB59_4
LBB59_9:                                ;   in Loop: Header=BB59_2 Depth=1
	b	LBB59_10
LBB59_10:                               ;   in Loop: Header=BB59_2 Depth=1
	ldr	w8, [sp, #100]
	add	w8, w8, #1
	str	w8, [sp, #100]
	b	LBB59_2
LBB59_11:
	b	LBB59_21
LBB59_12:
	ldur	w8, [x29, #-64]
	str	w8, [sp, #44]
	b	LBB59_13
LBB59_13:                               ; =>This Loop Header: Depth=1
                                        ;     Child Loop BB59_15 Depth 2
	ldr	w8, [sp, #44]
	ldur	w9, [x29, #-76]
	subs	w8, w8, w9
	cset	w8, gt
	tbnz	w8, #0, LBB59_20
	b	LBB59_14
LBB59_14:                               ;   in Loop: Header=BB59_13 Depth=1
	ldur	w8, [x29, #-92]
	str	w8, [sp, #40]
	b	LBB59_15
LBB59_15:                               ;   Parent Loop BB59_13 Depth=1
                                        ; =>  This Inner Loop Header: Depth=2
	ldr	w8, [sp, #40]
	ldur	w9, [x29, #-108]
	subs	w8, w8, w9
	cset	w8, ge
	tbnz	w8, #0, LBB59_18
	b	LBB59_16
LBB59_16:                               ;   in Loop: Header=BB59_15 Depth=2
	ldr	x9, [sp, #32]                   ; 8-byte Folded Reload
	ldr	x10, [x9, #96]
	ldr	w8, [sp, #44]
	ldr	w9, [x9, #52]
	mul	w8, w8, w9
	ldr	w9, [sp, #40]
	add	w8, w8, w9
	mov	w9, #6
	smaddl	x9, w8, w9, x10
	ldur	w8, [x29, #-40]
	str	w8, [x9]
	ldurh	w8, [x29, #-36]
	strh	w8, [x9, #4]
	b	LBB59_17
LBB59_17:                               ;   in Loop: Header=BB59_15 Depth=2
	ldr	w8, [sp, #40]
	add	w8, w8, #1
	str	w8, [sp, #40]
	b	LBB59_15
LBB59_18:                               ;   in Loop: Header=BB59_13 Depth=1
	b	LBB59_19
LBB59_19:                               ;   in Loop: Header=BB59_13 Depth=1
	ldr	w8, [sp, #44]
	add	w8, w8, #1
	str	w8, [sp, #44]
	b	LBB59_13
LBB59_20:
	b	LBB59_21
LBB59_21:
	ldr	x8, [sp, #32]                   ; 8-byte Folded Reload
	ldrb	w8, [x8, #104]
	tbz	w8, #0, LBB59_23
	b	LBB59_22
LBB59_22:
	ldr	x0, [sp, #32]                   ; 8-byte Folded Reload
	bl	__ZN3map6Mapper8setStateEv
	b	LBB59_23
LBB59_23:
	ldp	x29, x30, [sp, #224]            ; 16-byte Folded Reload
	add	sp, sp, #240
	ret
	.cfi_endproc
                                        ; -- End function
	.private_extern	__ZNSt3__13maxB6v15006IdEERKT_S3_S3_ ; -- Begin function _ZNSt3__13maxB6v15006IdEERKT_S3_S3_
	.globl	__ZNSt3__13maxB6v15006IdEERKT_S3_S3_
	.weak_definition	__ZNSt3__13maxB6v15006IdEERKT_S3_S3_
	.p2align	2
__ZNSt3__13maxB6v15006IdEERKT_S3_S3_:   ; @_ZNSt3__13maxB6v15006IdEERKT_S3_S3_
	.cfi_startproc
; %bb.0:
	sub	sp, sp, #48
	.cfi_def_cfa_offset 48
	stp	x29, x30, [sp, #32]             ; 16-byte Folded Spill
	add	x29, sp, #32
	.cfi_def_cfa w29, 16
	.cfi_offset w30, -8
	.cfi_offset w29, -16
	stur	x0, [x29, #-8]
	str	x1, [sp, #16]
	ldur	x0, [x29, #-8]
	ldr	x1, [sp, #16]
	bl	__ZNSt3__13maxB6v15006IdNS_6__lessIddEEEERKT_S5_S5_T0_
	ldp	x29, x30, [sp, #32]             ; 16-byte Folded Reload
	add	sp, sp, #48
	ret
	.cfi_endproc
                                        ; -- End function
	.private_extern	__ZNSt3__13minB6v15006IdEERKT_S3_S3_ ; -- Begin function _ZNSt3__13minB6v15006IdEERKT_S3_S3_
	.globl	__ZNSt3__13minB6v15006IdEERKT_S3_S3_
	.weak_definition	__ZNSt3__13minB6v15006IdEERKT_S3_S3_
	.p2align	2
__ZNSt3__13minB6v15006IdEERKT_S3_S3_:   ; @_ZNSt3__13minB6v15006IdEERKT_S3_S3_
	.cfi_startproc
; %bb.0:
	sub	sp, sp, #48
	.cfi_def_cfa_offset 48
	stp	x29, x30, [sp, #32]             ; 16-byte Folded Spill
	add	x29, sp, #32
	.cfi_def_cfa w29, 16
	.cfi_offset w30, -8
	.cfi_offset w29, -16
	stur	x0, [x29, #-8]
	str	x1, [sp, #16]
	ldur	x0, [x29, #-8]
	ldr	x1, [sp, #16]
	bl	__ZNSt3__13minB6v15006IdNS_6__lessIddEEEERKT_S5_S5_T0_
	ldp	x29, x30, [sp, #32]             ; 16-byte Folded Reload
	add	sp, sp, #48
	ret
	.cfi_endproc
                                        ; -- End function
	.globl	__Z12distFromLineN3map5PointES0_S0_ ; -- Begin function _Z12distFromLineN3map5PointES0_S0_
	.weak_definition	__Z12distFromLineN3map5PointES0_S0_
	.p2align	2
__Z12distFromLineN3map5PointES0_S0_:    ; @_Z12distFromLineN3map5PointES0_S0_
	.cfi_startproc
; %bb.0:
	sub	sp, sp, #96
	.cfi_def_cfa_offset 96
	stp	x29, x30, [sp, #80]             ; 16-byte Folded Spill
	add	x29, sp, #80
	.cfi_def_cfa w29, 16
	.cfi_offset w30, -8
	.cfi_offset w29, -16
	stur	d0, [x29, #-16]
	stur	d1, [x29, #-8]
	stur	d2, [x29, #-32]
	stur	d3, [x29, #-24]
	str	d4, [sp, #32]
	str	d5, [sp, #40]
	ldur	d0, [x29, #-24]
	ldur	d1, [x29, #-8]
	fsub	d0, d0, d1
	str	d0, [sp, #24]
	ldur	d0, [x29, #-16]
	ldur	d1, [x29, #-32]
	fsub	d0, d0, d1
	str	d0, [sp, #16]
	ldur	d0, [x29, #-32]
	ldur	d1, [x29, #-8]
	ldur	d2, [x29, #-16]
	ldur	d3, [x29, #-24]
	fmul	d2, d2, d3
	fnmsub	d0, d0, d1, d2
	str	d0, [sp, #8]
	ldr	d0, [sp, #24]
	ldr	d1, [sp, #32]
	ldr	d2, [sp, #16]
	ldr	d3, [sp, #40]
	fmul	d2, d2, d3
	fmadd	d0, d0, d1, d2
	ldr	d1, [sp, #8]
	fadd	d0, d0, d1
	bl	__Z3absB6v15006d
	str	d0, [sp]                        ; 8-byte Folded Spill
	ldr	d0, [sp, #24]
	ldr	d1, [sp, #32]
	ldr	d2, [sp, #16]
	ldr	d3, [sp, #40]
	fmul	d2, d2, d3
	fmadd	d0, d0, d1, d2
	ldr	d1, [sp, #8]
	fadd	d0, d0, d1
	bl	__Z3absB6v15006d
	fmov	d1, d0
	ldr	d0, [sp]                        ; 8-byte Folded Reload
	fmul	d0, d0, d1
	ldr	d1, [sp, #24]
	ldr	d2, [sp, #24]
	ldr	d3, [sp, #16]
	ldr	d4, [sp, #16]
	fmul	d3, d3, d4
	fmadd	d1, d1, d2, d3
	fdiv	d0, d0, d1
	ldp	x29, x30, [sp, #80]             ; 16-byte Folded Reload
	add	sp, sp, #96
	ret
	.cfi_endproc
                                        ; -- End function
	.globl	__ZN3map6Mapper7drawTriENS_5PointES1_S1_NS_3clr3RGBEi ; -- Begin function _ZN3map6Mapper7drawTriENS_5PointES1_S1_NS_3clr3RGBEi
	.p2align	2
__ZN3map6Mapper7drawTriENS_5PointES1_S1_NS_3clr3RGBEi: ; @_ZN3map6Mapper7drawTriENS_5PointES1_S1_NS_3clr3RGBEi
	.cfi_startproc
; %bb.0:
	sub	sp, sp, #272
	.cfi_def_cfa_offset 272
	stp	x28, x27, [sp, #240]            ; 16-byte Folded Spill
	stp	x29, x30, [sp, #256]            ; 16-byte Folded Spill
	add	x29, sp, #256
	.cfi_def_cfa w29, 16
	.cfi_offset w30, -8
	.cfi_offset w29, -16
	.cfi_offset w27, -24
	.cfi_offset w28, -32
	stur	d0, [x29, #-32]
	stur	d1, [x29, #-24]
	stur	d2, [x29, #-48]
	stur	d3, [x29, #-40]
	stur	d4, [x29, #-64]
	stur	d5, [x29, #-56]
	stur	x1, [x29, #-80]
	ldur	w8, [x29, #-80]
	stur	w8, [x29, #-72]
	ldurh	w8, [x29, #-76]
	sturh	w8, [x29, #-68]
	stur	x0, [x29, #-88]
	stur	w2, [x29, #-92]
	ldur	x0, [x29, #-88]
	str	x0, [sp, #8]                    ; 8-byte Folded Spill
	ldrb	w8, [x0, #104]
	mov	w9, #1
	str	w9, [sp, #4]                    ; 4-byte Folded Spill
	and	w8, w8, w9
	sturb	w8, [x29, #-93]
	strb	wzr, [x0, #104]
	ldur	q0, [x29, #-32]
	stur	q0, [x29, #-112]
	ldur	q0, [x29, #-48]
	str	q0, [sp, #128]
	ldur	w8, [x29, #-72]
	str	w8, [sp, #120]
	ldurh	w8, [x29, #-68]
	strh	w8, [sp, #124]
	ldur	w2, [x29, #-92]
	ldur	d0, [x29, #-112]
	ldur	d1, [x29, #-104]
	ldr	d2, [sp, #128]
	ldr	d3, [sp, #136]
	ldr	w8, [sp, #120]
	str	w8, [sp, #112]
	ldrh	w8, [sp, #124]
	strh	w8, [sp, #116]
	ldr	x1, [sp, #112]
	bl	__ZN3map6Mapper8drawLineENS_5PointES1_NS_3clr3RGBEi
	ldr	x0, [sp, #8]                    ; 8-byte Folded Reload
	ldur	q0, [x29, #-48]
	str	q0, [sp, #96]
	ldur	q0, [x29, #-64]
	str	q0, [sp, #80]
	ldur	w8, [x29, #-72]
	str	w8, [sp, #72]
	ldurh	w8, [x29, #-68]
	strh	w8, [sp, #76]
	ldur	w2, [x29, #-92]
	ldr	d0, [sp, #96]
	ldr	d1, [sp, #104]
	ldr	d2, [sp, #80]
	ldr	d3, [sp, #88]
	ldr	w8, [sp, #72]
	str	w8, [sp, #64]
	ldrh	w8, [sp, #76]
	strh	w8, [sp, #68]
	ldr	x1, [sp, #64]
	bl	__ZN3map6Mapper8drawLineENS_5PointES1_NS_3clr3RGBEi
	ldr	x0, [sp, #8]                    ; 8-byte Folded Reload
	ldur	q0, [x29, #-32]
	str	q0, [sp, #48]
	ldur	q0, [x29, #-64]
	str	q0, [sp, #32]
	ldur	w8, [x29, #-72]
	str	w8, [sp, #24]
	ldurh	w8, [x29, #-68]
	strh	w8, [sp, #28]
	ldur	w2, [x29, #-92]
	ldr	d0, [sp, #48]
	ldr	d1, [sp, #56]
	ldr	d2, [sp, #32]
	ldr	d3, [sp, #40]
	ldr	w8, [sp, #24]
	str	w8, [sp, #16]
	ldrh	w8, [sp, #28]
	strh	w8, [sp, #20]
	ldr	x1, [sp, #16]
	bl	__ZN3map6Mapper8drawLineENS_5PointES1_NS_3clr3RGBEi
	ldr	w10, [sp, #4]                   ; 4-byte Folded Reload
	ldr	x8, [sp, #8]                    ; 8-byte Folded Reload
	ldurb	w9, [x29, #-93]
	and	w9, w9, w10
	strb	w9, [x8, #104]
	ldrb	w8, [x8, #104]
	tbz	w8, #0, LBB63_2
	b	LBB63_1
LBB63_1:
	ldr	x0, [sp, #8]                    ; 8-byte Folded Reload
	bl	__ZN3map6Mapper8setStateEv
	b	LBB63_2
LBB63_2:
	ldp	x29, x30, [sp, #256]            ; 16-byte Folded Reload
	ldp	x28, x27, [sp, #240]            ; 16-byte Folded Reload
	add	sp, sp, #272
	ret
	.cfi_endproc
                                        ; -- End function
	.globl	__ZN3map6Mapper14drawFourPointsEPNS_5PointENS_3clr3RGBEb ; -- Begin function _ZN3map6Mapper14drawFourPointsEPNS_5PointENS_3clr3RGBEb
	.p2align	2
__ZN3map6Mapper14drawFourPointsEPNS_5PointENS_3clr3RGBEb: ; @_ZN3map6Mapper14drawFourPointsEPNS_5PointENS_3clr3RGBEb
	.cfi_startproc
; %bb.0:
	sub	sp, sp, #176
	.cfi_def_cfa_offset 176
	stp	x29, x30, [sp, #160]            ; 16-byte Folded Spill
	add	x29, sp, #160
	.cfi_def_cfa w29, 16
	.cfi_offset w30, -8
	.cfi_offset w29, -16
	stur	x2, [x29, #-16]
	ldur	w8, [x29, #-16]
	stur	w8, [x29, #-8]
	ldurh	w8, [x29, #-12]
	sturh	w8, [x29, #-4]
	stur	x0, [x29, #-24]
	stur	x1, [x29, #-32]
	mov	w8, #1
	and	w8, w3, w8
	sturb	w8, [x29, #-33]
	ldur	x8, [x29, #-24]
	str	x8, [sp]                        ; 8-byte Folded Spill
	ldur	x8, [x29, #-32]
	ldr	q0, [x8]
	stur	q0, [x29, #-64]
	ldur	x8, [x29, #-32]
	ldr	q0, [x8, #16]
	str	q0, [sp, #80]
	ldur	x8, [x29, #-32]
	ldr	q0, [x8, #32]
	str	q0, [sp, #64]
	ldur	x8, [x29, #-32]
	ldr	q0, [x8, #48]
	str	q0, [sp, #48]
	ldr	d0, [sp, #88]
	ldur	d1, [x29, #-56]
	fsub	d0, d0, d1
	ldr	d1, [sp, #80]
	ldur	d2, [x29, #-64]
	fsub	d1, d1, d2
	fdiv	d0, d0, d1
	fcvt	s0, d0
	str	s0, [sp, #44]
	ldur	d2, [x29, #-56]
	ldr	s0, [sp, #44]
	fcvt	d0, s0
	ldur	d1, [x29, #-64]
	fmsub	d0, d0, d1, d2
	fcvt	s0, d0
	str	s0, [sp, #40]
	ldr	d0, [sp, #72]
	ldr	d1, [sp, #88]
	fsub	d0, d0, d1
	ldr	d1, [sp, #64]
	ldr	d2, [sp, #80]
	fsub	d1, d1, d2
	fdiv	d0, d0, d1
	fcvt	s0, d0
	str	s0, [sp, #36]
	ldr	d2, [sp, #88]
	ldr	s0, [sp, #36]
	fcvt	d0, s0
	ldr	d1, [sp, #80]
	fmsub	d0, d0, d1, d2
	fcvt	s0, d0
	str	s0, [sp, #32]
	ldr	d0, [sp, #56]
	ldr	d1, [sp, #72]
	fsub	d0, d0, d1
	ldr	d1, [sp, #48]
	ldr	d2, [sp, #64]
	fsub	d1, d1, d2
	fdiv	d0, d0, d1
	fcvt	s0, d0
	str	s0, [sp, #28]
	ldr	d2, [sp, #72]
	ldr	s0, [sp, #28]
	fcvt	d0, s0
	ldr	d1, [sp, #64]
	fmsub	d0, d0, d1, d2
	fcvt	s0, d0
	str	s0, [sp, #24]
	ldur	d0, [x29, #-56]
	ldr	d1, [sp, #56]
	fsub	d0, d0, d1
	ldur	d1, [x29, #-64]
	ldr	d2, [sp, #48]
	fsub	d1, d1, d2
	fdiv	d0, d0, d1
	fcvt	s0, d0
	str	s0, [sp, #20]
	ldr	d2, [sp, #56]
	ldr	s0, [sp, #20]
	fcvt	d0, s0
	ldr	d1, [sp, #48]
	fmsub	d0, d0, d1, d2
	fcvt	s0, d0
	str	s0, [sp, #16]
	str	wzr, [sp, #12]
	b	LBB64_1
LBB64_1:                                ; =>This Loop Header: Depth=1
                                        ;     Child Loop BB64_3 Depth 2
	ldr	x9, [sp]                        ; 8-byte Folded Reload
	ldr	w8, [sp, #12]
	ldr	w9, [x9, #48]
	subs	w8, w8, w9
	cset	w8, ge
	tbnz	w8, #0, LBB64_17
	b	LBB64_2
LBB64_2:                                ;   in Loop: Header=BB64_1 Depth=1
	str	wzr, [sp, #8]
	b	LBB64_3
LBB64_3:                                ;   Parent Loop BB64_1 Depth=1
                                        ; =>  This Inner Loop Header: Depth=2
	ldr	x9, [sp]                        ; 8-byte Folded Reload
	ldr	w8, [sp, #8]
	ldr	w9, [x9, #52]
	subs	w8, w8, w9
	cset	w8, ge
	tbnz	w8, #0, LBB64_15
	b	LBB64_4
LBB64_4:                                ;   in Loop: Header=BB64_3 Depth=2
	ldr	w8, [sp, #12]
	ldr	s0, [sp, #44]
	ldr	s1, [sp, #8]
	scvtf	s1, s1
	ldr	s2, [sp, #40]
	fmadd	s0, s0, s1, s2
	fcvtzs	w9, s0
	ldurb	w10, [x29, #-33]
	and	w10, w10, #0x1
	add	w9, w9, w10
	subs	w8, w8, w9
	cset	w8, lt
	tbnz	w8, #0, LBB64_13
	b	LBB64_5
LBB64_5:                                ;   in Loop: Header=BB64_3 Depth=2
	ldr	d0, [sp, #80]
	ldr	d1, [sp, #64]
	fcmp	d0, d1
	cset	w8, ne
	tbnz	w8, #0, LBB64_7
	b	LBB64_6
LBB64_6:                                ;   in Loop: Header=BB64_3 Depth=2
	ldr	s1, [sp, #8]
                                        ; implicit-def: $d0
	fmov	s0, s1
	sshll.2d	v0, v0, #0
                                        ; kill: def $d0 killed $d0 killed $q0
	scvtf	d0, d0
	ldr	d1, [sp, #80]
	fcmp	d0, d1
	cset	w8, ls
	tbnz	w8, #0, LBB64_8
	b	LBB64_13
LBB64_7:                                ;   in Loop: Header=BB64_3 Depth=2
	ldr	w8, [sp, #12]
	ldr	s0, [sp, #36]
	ldr	s1, [sp, #8]
	scvtf	s1, s1
	ldr	s2, [sp, #32]
	fmadd	s0, s0, s1, s2
	fcvtzs	w9, s0
	ldurb	w10, [x29, #-33]
	and	w10, w10, #0x1
	add	w9, w9, w10
	subs	w8, w8, w9
	cset	w8, lt
	tbnz	w8, #0, LBB64_13
	b	LBB64_8
LBB64_8:                                ;   in Loop: Header=BB64_3 Depth=2
	ldr	w8, [sp, #12]
	ldr	s0, [sp, #28]
	ldr	s1, [sp, #8]
	scvtf	s1, s1
	ldr	s2, [sp, #24]
	fmadd	s0, s0, s1, s2
	fcvtzs	w9, s0
	ldurb	w10, [x29, #-33]
	and	w10, w10, #0x1
	add	w9, w9, w10
	subs	w8, w8, w9
	cset	w8, gt
	tbnz	w8, #0, LBB64_13
	b	LBB64_9
LBB64_9:                                ;   in Loop: Header=BB64_3 Depth=2
	ldur	d0, [x29, #-64]
	ldr	d1, [sp, #48]
	fcmp	d0, d1
	cset	w8, ne
	tbnz	w8, #0, LBB64_11
	b	LBB64_10
LBB64_10:                               ;   in Loop: Header=BB64_3 Depth=2
	ldr	s1, [sp, #8]
                                        ; implicit-def: $d0
	fmov	s0, s1
	sshll.2d	v0, v0, #0
                                        ; kill: def $d0 killed $d0 killed $q0
	scvtf	d0, d0
	ldur	d1, [x29, #-64]
	fcmp	d0, d1
	cset	w8, ge
	tbnz	w8, #0, LBB64_12
	b	LBB64_13
LBB64_11:                               ;   in Loop: Header=BB64_3 Depth=2
	ldr	w8, [sp, #12]
	ldr	s0, [sp, #20]
	ldr	s1, [sp, #8]
	scvtf	s1, s1
	ldr	s2, [sp, #16]
	fmadd	s0, s0, s1, s2
	fcvtzs	w9, s0
	ldurb	w10, [x29, #-33]
	and	w10, w10, #0x1
	add	w9, w9, w10
	subs	w8, w8, w9
	cset	w8, gt
	tbnz	w8, #0, LBB64_13
	b	LBB64_12
LBB64_12:                               ;   in Loop: Header=BB64_3 Depth=2
	ldr	x9, [sp]                        ; 8-byte Folded Reload
	ldr	x10, [x9, #96]
	ldr	w8, [sp, #12]
	ldr	w9, [x9, #52]
	mul	w8, w8, w9
	ldr	w9, [sp, #8]
	add	w8, w8, w9
	mov	w9, #6
	smaddl	x9, w8, w9, x10
	ldur	w8, [x29, #-8]
	str	w8, [x9]
	ldurh	w8, [x29, #-4]
	strh	w8, [x9, #4]
	b	LBB64_13
LBB64_13:                               ;   in Loop: Header=BB64_3 Depth=2
	b	LBB64_14
LBB64_14:                               ;   in Loop: Header=BB64_3 Depth=2
	ldr	w8, [sp, #8]
	add	w8, w8, #1
	str	w8, [sp, #8]
	b	LBB64_3
LBB64_15:                               ;   in Loop: Header=BB64_1 Depth=1
	b	LBB64_16
LBB64_16:                               ;   in Loop: Header=BB64_1 Depth=1
	ldr	w8, [sp, #12]
	add	w8, w8, #1
	str	w8, [sp, #12]
	b	LBB64_1
LBB64_17:
	ldr	x8, [sp]                        ; 8-byte Folded Reload
	ldrb	w8, [x8, #104]
	tbz	w8, #0, LBB64_19
	b	LBB64_18
LBB64_18:
	ldr	x0, [sp]                        ; 8-byte Folded Reload
	bl	__ZN3map6Mapper8setStateEv
	b	LBB64_19
LBB64_19:
	ldp	x29, x30, [sp, #160]            ; 16-byte Folded Reload
	add	sp, sp, #176
	ret
	.cfi_endproc
                                        ; -- End function
	.globl	__ZN3map6Mapper9drawMultiENSt3__16vectorINS_5PointENS1_9allocatorIS3_EEEENS_3clr3RGBEb ; -- Begin function _ZN3map6Mapper9drawMultiENSt3__16vectorINS_5PointENS1_9allocatorIS3_EEEENS_3clr3RGBEb
	.p2align	2
__ZN3map6Mapper9drawMultiENSt3__16vectorINS_5PointENS1_9allocatorIS3_EEEENS_3clr3RGBEb: ; @_ZN3map6Mapper9drawMultiENSt3__16vectorINS_5PointENS1_9allocatorIS3_EEEENS_3clr3RGBEb
	.cfi_startproc
; %bb.0:
	sub	sp, sp, #128
	.cfi_def_cfa_offset 128
	stp	x29, x30, [sp, #112]            ; 16-byte Folded Spill
	add	x29, sp, #112
	.cfi_def_cfa w29, 16
	.cfi_offset w30, -8
	.cfi_offset w29, -16
	mov	x8, x0
	mov	x0, x1
	str	x0, [sp]                        ; 8-byte Folded Spill
	stur	x2, [x29, #-16]
	ldur	w9, [x29, #-16]
	stur	w9, [x29, #-8]
	ldurh	w9, [x29, #-12]
	sturh	w9, [x29, #-4]
	stur	x8, [x29, #-24]
	mov	w8, #1
	and	w8, w3, w8
	sturb	w8, [x29, #-25]
	ldur	x8, [x29, #-24]
	str	x8, [sp, #8]                    ; 8-byte Folded Spill
	bl	__ZNKSt3__16vectorIN3map5PointENS_9allocatorIS2_EEE4sizeB6v15006Ev
	subs	x8, x0, #2
	cset	w8, hs
	tbnz	w8, #0, LBB65_2
	b	LBB65_1
LBB65_1:
	adrp	x0, l___func__._ZN3map6Mapper9drawMultiENSt3__16vectorINS_5PointENS1_9allocatorIS3_EEEENS_3clr3RGBEb@PAGE
	add	x0, x0, l___func__._ZN3map6Mapper9drawMultiENSt3__16vectorINS_5PointENS1_9allocatorIS3_EEEENS_3clr3RGBEb@PAGEOFF
	adrp	x1, l_.str.3@PAGE
	add	x1, x1, l_.str.3@PAGEOFF
	mov	w2, #249
	adrp	x3, l_.str.12@PAGE
	add	x3, x3, l_.str.12@PAGEOFF
	bl	___assert_rtn
LBB65_2:
	b	LBB65_3
LBB65_3:
	ldr	x0, [sp]                        ; 8-byte Folded Reload
	bl	__ZNKSt3__16vectorIN3map5PointENS_9allocatorIS2_EEE4sizeB6v15006Ev
	subs	x8, x0, #1
                                        ; kill: def $w8 killed $w8 killed $x8
	stur	w8, [x29, #-32]
	stur	wzr, [x29, #-36]
	b	LBB65_4
LBB65_4:                                ; =>This Inner Loop Header: Depth=1
	ldur	w8, [x29, #-36]
	ldur	w9, [x29, #-32]
	subs	w8, w8, w9
	cset	w8, ge
	tbnz	w8, #0, LBB65_7
	b	LBB65_5
LBB65_5:                                ;   in Loop: Header=BB65_4 Depth=1
	ldr	x0, [sp]                        ; 8-byte Folded Reload
	ldursw	x1, [x29, #-36]
	bl	__ZNSt3__16vectorIN3map5PointENS_9allocatorIS2_EEEixB6v15006Em
	mov	x8, x0
	ldr	x0, [sp]                        ; 8-byte Folded Reload
	ldr	q0, [x8]
	str	q0, [sp, #48]
	ldur	w8, [x29, #-36]
	add	w9, w8, #1
                                        ; implicit-def: $x8
	mov	x8, x9
	sxtw	x1, w8
	bl	__ZNSt3__16vectorIN3map5PointENS_9allocatorIS2_EEEixB6v15006Em
	mov	x8, x0
	ldr	x0, [sp, #8]                    ; 8-byte Folded Reload
	ldr	q0, [x8]
	str	q0, [sp, #32]
	ldur	w8, [x29, #-8]
	str	w8, [sp, #24]
	ldurh	w8, [x29, #-4]
	strh	w8, [sp, #28]
	ldurb	w8, [x29, #-25]
	and	w2, w8, #0x1
	ldr	d0, [sp, #48]
	ldr	d1, [sp, #56]
	ldr	d2, [sp, #32]
	ldr	d3, [sp, #40]
	ldr	w8, [sp, #24]
	str	w8, [sp, #16]
	ldrh	w8, [sp, #28]
	strh	w8, [sp, #20]
	ldr	x1, [sp, #16]
	bl	__ZN3map6Mapper8drawLineENS_5PointES1_NS_3clr3RGBEi
	b	LBB65_6
LBB65_6:                                ;   in Loop: Header=BB65_4 Depth=1
	ldur	w8, [x29, #-36]
	add	w8, w8, #1
	stur	w8, [x29, #-36]
	b	LBB65_4
LBB65_7:
	ldr	x8, [sp, #8]                    ; 8-byte Folded Reload
	ldrb	w8, [x8, #104]
	tbz	w8, #0, LBB65_9
	b	LBB65_8
LBB65_8:
	ldr	x0, [sp, #8]                    ; 8-byte Folded Reload
	bl	__ZN3map6Mapper8setStateEv
	b	LBB65_9
LBB65_9:
	ldp	x29, x30, [sp, #112]            ; 16-byte Folded Reload
	add	sp, sp, #128
	ret
	.cfi_endproc
                                        ; -- End function
	.private_extern	__ZNKSt3__16vectorIN3map5PointENS_9allocatorIS2_EEE4sizeB6v15006Ev ; -- Begin function _ZNKSt3__16vectorIN3map5PointENS_9allocatorIS2_EEE4sizeB6v15006Ev
	.globl	__ZNKSt3__16vectorIN3map5PointENS_9allocatorIS2_EEE4sizeB6v15006Ev
	.weak_definition	__ZNKSt3__16vectorIN3map5PointENS_9allocatorIS2_EEE4sizeB6v15006Ev
	.p2align	2
__ZNKSt3__16vectorIN3map5PointENS_9allocatorIS2_EEE4sizeB6v15006Ev: ; @_ZNKSt3__16vectorIN3map5PointENS_9allocatorIS2_EEE4sizeB6v15006Ev
	.cfi_startproc
; %bb.0:
	sub	sp, sp, #16
	.cfi_def_cfa_offset 16
	str	x0, [sp, #8]
	ldr	x9, [sp, #8]
	ldr	x8, [x9, #8]
	ldr	x9, [x9]
	subs	x8, x8, x9
	mov	x9, #16
	sdiv	x0, x8, x9
	add	sp, sp, #16
	ret
	.cfi_endproc
                                        ; -- End function
	.private_extern	__ZNSt3__16vectorIN3map5PointENS_9allocatorIS2_EEEixB6v15006Em ; -- Begin function _ZNSt3__16vectorIN3map5PointENS_9allocatorIS2_EEEixB6v15006Em
	.globl	__ZNSt3__16vectorIN3map5PointENS_9allocatorIS2_EEEixB6v15006Em
	.weak_definition	__ZNSt3__16vectorIN3map5PointENS_9allocatorIS2_EEEixB6v15006Em
	.p2align	2
__ZNSt3__16vectorIN3map5PointENS_9allocatorIS2_EEEixB6v15006Em: ; @_ZNSt3__16vectorIN3map5PointENS_9allocatorIS2_EEEixB6v15006Em
	.cfi_startproc
; %bb.0:
	sub	sp, sp, #16
	.cfi_def_cfa_offset 16
	str	x0, [sp, #8]
	str	x1, [sp]
	ldr	x8, [sp, #8]
	ldr	x8, [x8]
	ldr	x9, [sp]
	add	x0, x8, x9, lsl #4
	add	sp, sp, #16
	ret
	.cfi_endproc
                                        ; -- End function
	.globl	__ZN3map6Mapper8drawRectENS_5PointEffNS_3clr3RGBEbbNS_13RectAlignmentE ; -- Begin function _ZN3map6Mapper8drawRectENS_5PointEffNS_3clr3RGBEbbNS_13RectAlignmentE
	.p2align	2
__ZN3map6Mapper8drawRectENS_5PointEffNS_3clr3RGBEbbNS_13RectAlignmentE: ; @_ZN3map6Mapper8drawRectENS_5PointEffNS_3clr3RGBEbbNS_13RectAlignmentE
	.cfi_startproc
; %bb.0:
	sub	sp, sp, #448
	.cfi_def_cfa_offset 448
	stp	x28, x27, [sp, #416]            ; 16-byte Folded Spill
	stp	x29, x30, [sp, #432]            ; 16-byte Folded Spill
	add	x29, sp, #432
	.cfi_def_cfa w29, 16
	.cfi_offset w30, -8
	.cfi_offset w29, -16
	.cfi_offset w27, -24
	.cfi_offset w28, -32
	stur	d0, [x29, #-32]
	stur	d1, [x29, #-24]
	stur	x1, [x29, #-48]
	ldur	w8, [x29, #-48]
	stur	w8, [x29, #-40]
	ldurh	w8, [x29, #-44]
	sturh	w8, [x29, #-36]
	stur	x0, [x29, #-56]
	stur	s2, [x29, #-60]
	stur	s3, [x29, #-64]
	mov	w8, #1
	and	w9, w2, w8
	sturb	w9, [x29, #-65]
	and	w8, w3, w8
	sturb	w8, [x29, #-66]
	stur	w4, [x29, #-72]
	ldur	x8, [x29, #-56]
	str	x8, [sp, #56]                   ; 8-byte Folded Spill
	ldur	s0, [x29, #-60]
	fcmp	s0, #0.0
	cset	w8, pl
	tbnz	w8, #0, LBB68_2
	b	LBB68_1
LBB68_1:
	ldr	x8, [sp, #56]                   ; 8-byte Folded Reload
	ldr	w8, [x8, #48]
	mov	w9, #10
	sdiv	w8, w8, w9
	scvtf	s0, w8
	stur	s0, [x29, #-60]
	b	LBB68_2
LBB68_2:
	ldur	s0, [x29, #-64]
	fcmp	s0, #0.0
	cset	w8, pl
	tbnz	w8, #0, LBB68_4
	b	LBB68_3
LBB68_3:
	ldr	x8, [sp, #56]                   ; 8-byte Folded Reload
	ldr	w8, [x8, #48]
	mov	w9, #10
	sdiv	w8, w8, w9
	scvtf	s0, w8
	stur	s0, [x29, #-64]
	b	LBB68_4
LBB68_4:
	ldur	s0, [x29, #-60]
	fmov	s1, #1.00000000
	fcmp	s0, s1
	cset	w8, pl
	tbnz	w8, #0, LBB68_6
	b	LBB68_5
LBB68_5:
	ldr	x8, [sp, #56]                   ; 8-byte Folded Reload
	ldr	s0, [x8, #48]
	scvtf	s1, s0
	ldur	s0, [x29, #-60]
	fmul	s0, s0, s1
	stur	s0, [x29, #-60]
	b	LBB68_6
LBB68_6:
	ldur	s0, [x29, #-64]
	fmov	s1, #1.00000000
	fcmp	s0, s1
	cset	w8, pl
	tbnz	w8, #0, LBB68_8
	b	LBB68_7
LBB68_7:
	ldr	x8, [sp, #56]                   ; 8-byte Folded Reload
	ldr	s0, [x8, #52]
	scvtf	s1, s0
	ldur	s0, [x29, #-64]
	fmul	s0, s0, s1
	stur	s0, [x29, #-64]
	b	LBB68_8
LBB68_8:
	ldur	d0, [x29, #-32]
	fmov	d1, #1.00000000
	fcmp	d0, d1
	cset	w8, pl
	tbnz	w8, #0, LBB68_10
	b	LBB68_9
LBB68_9:
	ldr	x8, [sp, #56]                   ; 8-byte Folded Reload
	ldr	s1, [x8, #48]
                                        ; implicit-def: $d0
	fmov	s0, s1
	sshll.2d	v0, v0, #0
                                        ; kill: def $d0 killed $d0 killed $q0
	scvtf	d1, d0
	ldur	d0, [x29, #-32]
	fmul	d0, d0, d1
	stur	d0, [x29, #-32]
	b	LBB68_10
LBB68_10:
	ldur	d0, [x29, #-24]
	fmov	d1, #1.00000000
	fcmp	d0, d1
	cset	w8, pl
	tbnz	w8, #0, LBB68_12
	b	LBB68_11
LBB68_11:
	ldr	x8, [sp, #56]                   ; 8-byte Folded Reload
	ldr	s1, [x8, #52]
                                        ; implicit-def: $d0
	fmov	s0, s1
	sshll.2d	v0, v0, #0
                                        ; kill: def $d0 killed $d0 killed $q0
	scvtf	d1, d0
	ldur	d0, [x29, #-24]
	fmul	d0, d0, d1
	stur	d0, [x29, #-24]
	b	LBB68_12
LBB68_12:
	ldur	w8, [x29, #-72]
	add	w8, w8, #1
                                        ; kill: def $x8 killed $w8
	str	x8, [sp, #48]                   ; 8-byte Folded Spill
	subs	x8, x8, #11
	cset	w8, hi
	tbnz	w8, #0, LBB68_22
; %bb.13:
	ldr	x11, [sp, #48]                  ; 8-byte Folded Reload
	adrp	x10, lJTI68_0@PAGE
	add	x10, x10, lJTI68_0@PAGEOFF
Ltmp226:
	adr	x8, Ltmp226
	ldrsw	x9, [x10, x11, lsl #2]
	add	x8, x8, x9
	br	x8
LBB68_14:
	ldr	x8, [sp, #56]                   ; 8-byte Folded Reload
	ldr	w10, [x8, #52]
	mov	w9, #2
	sdiv	w10, w10, w9
	scvtf	d0, w10
	stur	d0, [x29, #-32]
	ldr	w8, [x8, #48]
	sdiv	w8, w8, w9
	scvtf	d0, w8
	stur	d0, [x29, #-24]
	b	LBB68_22
LBB68_15:
	ldur	s0, [x29, #-64]
	fmov	s1, #2.00000000
	fdiv	s0, s0, s1
	fcvt	d0, s0
	stur	d0, [x29, #-32]
	ldur	s0, [x29, #-60]
	fdiv	s0, s0, s1
	fcvt	d0, s0
	stur	d0, [x29, #-24]
	b	LBB68_22
LBB68_16:
	ldr	x8, [sp, #56]                   ; 8-byte Folded Reload
	ldr	s0, [x8, #52]
	scvtf	s0, s0
	ldur	s2, [x29, #-64]
	fmov	s1, #2.00000000
	fdiv	s2, s2, s1
	fsub	s0, s0, s2
	fcvt	d0, s0
	stur	d0, [x29, #-32]
	ldur	s0, [x29, #-60]
	fdiv	s0, s0, s1
	fcvt	d0, s0
	stur	d0, [x29, #-24]
	b	LBB68_22
LBB68_17:
	ldr	x8, [sp, #56]                   ; 8-byte Folded Reload
	ldur	s0, [x29, #-64]
	fmov	s2, #2.00000000
	fdiv	s0, s0, s2
	fcvt	d0, s0
	stur	d0, [x29, #-32]
	ldr	s0, [x8, #48]
	scvtf	s0, s0
	ldur	s1, [x29, #-60]
	fdiv	s1, s1, s2
	fsub	s0, s0, s1
	fcvt	d0, s0
	stur	d0, [x29, #-24]
	b	LBB68_22
LBB68_18:
	ldr	x8, [sp, #56]                   ; 8-byte Folded Reload
	ldr	s0, [x8, #52]
	scvtf	s0, s0
	ldur	s1, [x29, #-64]
	fmov	s2, #2.00000000
	fdiv	s1, s1, s2
	fsub	s0, s0, s1
	fcvt	d0, s0
	stur	d0, [x29, #-32]
	ldr	s0, [x8, #48]
	scvtf	s0, s0
	ldur	s1, [x29, #-60]
	fdiv	s1, s1, s2
	fsub	s0, s0, s1
	fcvt	d0, s0
	stur	d0, [x29, #-24]
	b	LBB68_22
LBB68_19:
	ldr	x8, [sp, #56]                   ; 8-byte Folded Reload
	ldr	s0, [x8, #52]
	scvtf	s0, s0
	stur	s0, [x29, #-64]
	ldr	w8, [x8, #52]
	mov	w9, #2
	sdiv	w8, w8, w9
	scvtf	d0, w8
	stur	d0, [x29, #-32]
	b	LBB68_22
LBB68_20:
	ldr	x8, [sp, #56]                   ; 8-byte Folded Reload
	ldr	s0, [x8, #48]
	scvtf	s0, s0
	stur	s0, [x29, #-60]
	ldr	w8, [x8, #48]
	mov	w9, #2
	sdiv	w8, w8, w9
	scvtf	d0, w8
	stur	d0, [x29, #-24]
	b	LBB68_22
LBB68_21:
	b	LBB68_22
LBB68_22:
	ldurb	w8, [x29, #-65]
	tbz	w8, #0, LBB68_37
	b	LBB68_23
LBB68_23:
	ldur	d0, [x29, #-24]
	ldur	s1, [x29, #-60]
	fmov	s2, #2.00000000
	str	s2, [sp, #44]                   ; 4-byte Folded Spill
	fdiv	s1, s1, s2
	fcvt	d1, s1
	fsub	d0, d0, d1
	fmov	d1, #1.00000000
	str	d1, [sp, #24]                   ; 8-byte Folded Spill
	fsub	d0, d0, d1
	sub	x0, x29, #88
	stur	d0, [x29, #-88]
	sub	x1, x29, #96
	movi	d0, #0000000000000000
	str	d0, [sp, #32]                   ; 8-byte Folded Spill
	stur	d0, [x29, #-96]
	bl	__ZNSt3__13maxB6v15006IdEERKT_S3_S3_
	ldr	s2, [sp, #44]                   ; 4-byte Folded Reload
	ldr	x8, [sp, #56]                   ; 8-byte Folded Reload
	ldr	d0, [x0]
	fcvtzs	w9, d0
	stur	w9, [x29, #-76]
	ldur	d0, [x29, #-24]
	ldur	s1, [x29, #-60]
	fdiv	s1, s1, s2
	fcvt	d1, s1
	fadd	d0, d0, d1
	sub	x0, x29, #112
	stur	d0, [x29, #-112]
	ldr	s1, [x8, #48]
                                        ; implicit-def: $d0
	fmov	s0, s1
	sshll.2d	v0, v0, #0
                                        ; kill: def $d0 killed $d0 killed $q0
	scvtf	d0, d0
	sub	x1, x29, #120
	stur	d0, [x29, #-120]
	bl	__ZNSt3__13minB6v15006IdEERKT_S3_S3_
	ldr	d2, [sp, #24]                   ; 8-byte Folded Reload
	ldr	d0, [sp, #32]                   ; 8-byte Folded Reload
	ldr	s4, [sp, #44]                   ; 4-byte Folded Reload
	ldr	d1, [x0]
	fcvtzs	w8, d1
	stur	w8, [x29, #-100]
	ldur	d1, [x29, #-32]
	ldur	s3, [x29, #-64]
	fdiv	s3, s3, s4
	fcvt	d3, s3
	fsub	d1, d1, d3
	fsub	d1, d1, d2
	sub	x0, x29, #136
	stur	d1, [x29, #-136]
	sub	x1, x29, #144
	stur	d0, [x29, #-144]
	bl	__ZNSt3__13maxB6v15006IdEERKT_S3_S3_
	ldr	s2, [sp, #44]                   ; 4-byte Folded Reload
	ldr	x8, [sp, #56]                   ; 8-byte Folded Reload
	ldr	d0, [x0]
	fcvtzs	w9, d0
	stur	w9, [x29, #-124]
	ldur	d0, [x29, #-32]
	ldur	s1, [x29, #-64]
	fdiv	s1, s1, s2
	fcvt	d1, s1
	fadd	d0, d0, d1
	sub	x0, x29, #160
	stur	d0, [x29, #-160]
	ldr	s1, [x8, #52]
                                        ; implicit-def: $d0
	fmov	s0, s1
	sshll.2d	v0, v0, #0
                                        ; kill: def $d0 killed $d0 killed $q0
	scvtf	d0, d0
	sub	x1, x29, #168
	stur	d0, [x29, #-168]
	bl	__ZNSt3__13minB6v15006IdEERKT_S3_S3_
	ldr	d0, [x0]
	fcvtzs	w8, d0
	stur	w8, [x29, #-148]
	ldur	w8, [x29, #-76]
	stur	w8, [x29, #-172]
	b	LBB68_24
LBB68_24:                               ; =>This Loop Header: Depth=1
                                        ;     Child Loop BB68_26 Depth 2
	ldur	w8, [x29, #-172]
	ldur	w9, [x29, #-100]
	subs	w8, w8, w9
	cset	w8, gt
	tbnz	w8, #0, LBB68_36
	b	LBB68_25
LBB68_25:                               ;   in Loop: Header=BB68_24 Depth=1
	ldur	w8, [x29, #-124]
	stur	w8, [x29, #-176]
	b	LBB68_26
LBB68_26:                               ;   Parent Loop BB68_24 Depth=1
                                        ; =>  This Inner Loop Header: Depth=2
	ldur	w8, [x29, #-176]
	ldur	w9, [x29, #-148]
	subs	w8, w8, w9
	cset	w8, gt
	tbnz	w8, #0, LBB68_34
	b	LBB68_27
LBB68_27:                               ;   in Loop: Header=BB68_26 Depth=2
	ldur	w8, [x29, #-172]
	subs	w8, w8, #0
	cset	w8, lt
	tbnz	w8, #0, LBB68_32
	b	LBB68_28
LBB68_28:                               ;   in Loop: Header=BB68_26 Depth=2
	ldr	x9, [sp, #56]                   ; 8-byte Folded Reload
	ldur	w8, [x29, #-172]
	ldr	w9, [x9, #48]
	subs	w8, w8, w9
	cset	w8, ge
	tbnz	w8, #0, LBB68_32
	b	LBB68_29
LBB68_29:                               ;   in Loop: Header=BB68_26 Depth=2
	ldur	w8, [x29, #-176]
	subs	w8, w8, #0
	cset	w8, lt
	tbnz	w8, #0, LBB68_32
	b	LBB68_30
LBB68_30:                               ;   in Loop: Header=BB68_26 Depth=2
	ldr	x9, [sp, #56]                   ; 8-byte Folded Reload
	ldur	w8, [x29, #-176]
	ldr	w9, [x9, #52]
	subs	w8, w8, w9
	cset	w8, ge
	tbnz	w8, #0, LBB68_32
	b	LBB68_31
LBB68_31:                               ;   in Loop: Header=BB68_26 Depth=2
	ldr	x9, [sp, #56]                   ; 8-byte Folded Reload
	ldr	x10, [x9, #96]
	ldur	w8, [x29, #-172]
	ldr	w9, [x9, #52]
	mul	w8, w8, w9
	ldur	w9, [x29, #-176]
	add	w8, w8, w9
	mov	w9, #6
	smaddl	x9, w8, w9, x10
	ldur	w8, [x29, #-40]
	str	w8, [x9]
	ldurh	w8, [x29, #-36]
	strh	w8, [x9, #4]
	b	LBB68_32
LBB68_32:                               ;   in Loop: Header=BB68_26 Depth=2
	b	LBB68_33
LBB68_33:                               ;   in Loop: Header=BB68_26 Depth=2
	ldur	w8, [x29, #-176]
	add	w8, w8, #1
	stur	w8, [x29, #-176]
	b	LBB68_26
LBB68_34:                               ;   in Loop: Header=BB68_24 Depth=1
	b	LBB68_35
LBB68_35:                               ;   in Loop: Header=BB68_24 Depth=1
	ldur	w8, [x29, #-172]
	add	w8, w8, #1
	stur	w8, [x29, #-172]
	b	LBB68_24
LBB68_36:
	b	LBB68_38
LBB68_37:
	ldur	d0, [x29, #-32]
	ldur	s1, [x29, #-60]
	fmov	s4, #2.00000000
	str	s4, [sp, #12]                   ; 4-byte Folded Spill
	fdiv	s1, s1, s4
	fcvt	d1, s1
	fsub	d0, d0, d1
	fmov	d2, #1.00000000
	str	d2, [sp, #16]                   ; 8-byte Folded Spill
	fsub	d0, d0, d2
	ldur	d1, [x29, #-24]
	ldur	s3, [x29, #-64]
	fdiv	s3, s3, s4
	fcvt	d3, s3
	fsub	d1, d1, d3
	fsub	d1, d1, d2
	sub	x0, x29, #192
	bl	__ZN3map5PointC1Edd
	ldr	s4, [sp, #12]                   ; 4-byte Folded Reload
	ldr	d2, [sp, #16]                   ; 8-byte Folded Reload
	ldur	d0, [x29, #-32]
	ldur	s1, [x29, #-60]
	fdiv	s1, s1, s4
	fcvt	d1, s1
	fsub	d0, d0, d1
	fsub	d0, d0, d2
	ldur	d1, [x29, #-24]
	ldur	s3, [x29, #-64]
	fdiv	s3, s3, s4
	fcvt	d3, s3
	fadd	d1, d1, d3
	fsub	d1, d1, d2
	sub	x0, x29, #208
	bl	__ZN3map5PointC1Edd
	ldr	x0, [sp, #56]                   ; 8-byte Folded Reload
	ldur	w8, [x29, #-40]
	str	w8, [sp, #216]
	ldurh	w8, [x29, #-36]
	strh	w8, [sp, #220]
	ldurb	w8, [x29, #-66]
	and	w2, w8, #0x1
	ldur	d0, [x29, #-192]
	ldur	d1, [x29, #-184]
	ldur	d2, [x29, #-208]
	ldur	d3, [x29, #-200]
	ldr	w8, [sp, #216]
	str	w8, [sp, #208]
	ldrh	w8, [sp, #220]
	strh	w8, [sp, #212]
	ldr	x1, [sp, #208]
	bl	__ZN3map6Mapper8drawLineENS_5PointES1_NS_3clr3RGBEi
	ldr	s4, [sp, #12]                   ; 4-byte Folded Reload
	ldr	d2, [sp, #16]                   ; 8-byte Folded Reload
	ldur	d0, [x29, #-32]
	ldur	s1, [x29, #-60]
	fdiv	s1, s1, s4
	fcvt	d1, s1
	fsub	d0, d0, d1
	fsub	d0, d0, d2
	ldur	d1, [x29, #-24]
	ldur	s3, [x29, #-64]
	fdiv	s3, s3, s4
	fcvt	d3, s3
	fadd	d1, d1, d3
	fsub	d1, d1, d2
	add	x0, sp, #192
	bl	__ZN3map5PointC1Edd
	ldr	s4, [sp, #12]                   ; 4-byte Folded Reload
	ldr	d2, [sp, #16]                   ; 8-byte Folded Reload
	ldur	d0, [x29, #-32]
	ldur	s1, [x29, #-60]
	fdiv	s1, s1, s4
	fcvt	d1, s1
	fadd	d0, d0, d1
	fsub	d0, d0, d2
	ldur	d1, [x29, #-24]
	ldur	s3, [x29, #-64]
	fdiv	s3, s3, s4
	fcvt	d3, s3
	fadd	d1, d1, d3
	fsub	d1, d1, d2
	add	x0, sp, #176
	bl	__ZN3map5PointC1Edd
	ldr	x0, [sp, #56]                   ; 8-byte Folded Reload
	ldur	w8, [x29, #-40]
	str	w8, [sp, #168]
	ldurh	w8, [x29, #-36]
	strh	w8, [sp, #172]
	ldurb	w8, [x29, #-66]
	and	w2, w8, #0x1
	ldr	d0, [sp, #192]
	ldr	d1, [sp, #200]
	ldr	d2, [sp, #176]
	ldr	d3, [sp, #184]
	ldr	w8, [sp, #168]
	str	w8, [sp, #160]
	ldrh	w8, [sp, #172]
	strh	w8, [sp, #164]
	ldr	x1, [sp, #160]
	bl	__ZN3map6Mapper8drawLineENS_5PointES1_NS_3clr3RGBEi
	ldr	s4, [sp, #12]                   ; 4-byte Folded Reload
	ldr	d2, [sp, #16]                   ; 8-byte Folded Reload
	ldur	d0, [x29, #-32]
	ldur	s1, [x29, #-60]
	fdiv	s1, s1, s4
	fcvt	d1, s1
	fadd	d0, d0, d1
	fsub	d0, d0, d2
	ldur	d1, [x29, #-24]
	ldur	s3, [x29, #-64]
	fdiv	s3, s3, s4
	fcvt	d3, s3
	fadd	d1, d1, d3
	fsub	d1, d1, d2
	add	x0, sp, #144
	bl	__ZN3map5PointC1Edd
	ldr	s4, [sp, #12]                   ; 4-byte Folded Reload
	ldr	d2, [sp, #16]                   ; 8-byte Folded Reload
	ldur	d0, [x29, #-32]
	ldur	s1, [x29, #-60]
	fdiv	s1, s1, s4
	fcvt	d1, s1
	fadd	d0, d0, d1
	fsub	d0, d0, d2
	ldur	d1, [x29, #-24]
	ldur	s3, [x29, #-64]
	fdiv	s3, s3, s4
	fcvt	d3, s3
	fsub	d1, d1, d3
	fsub	d1, d1, d2
	add	x0, sp, #128
	bl	__ZN3map5PointC1Edd
	ldr	x0, [sp, #56]                   ; 8-byte Folded Reload
	ldur	w8, [x29, #-40]
	str	w8, [sp, #120]
	ldurh	w8, [x29, #-36]
	strh	w8, [sp, #124]
	ldurb	w8, [x29, #-66]
	and	w2, w8, #0x1
	ldr	d0, [sp, #144]
	ldr	d1, [sp, #152]
	ldr	d2, [sp, #128]
	ldr	d3, [sp, #136]
	ldr	w8, [sp, #120]
	str	w8, [sp, #112]
	ldrh	w8, [sp, #124]
	strh	w8, [sp, #116]
	ldr	x1, [sp, #112]
	bl	__ZN3map6Mapper8drawLineENS_5PointES1_NS_3clr3RGBEi
	ldr	s4, [sp, #12]                   ; 4-byte Folded Reload
	ldr	d2, [sp, #16]                   ; 8-byte Folded Reload
	ldur	d0, [x29, #-32]
	ldur	s1, [x29, #-60]
	fdiv	s1, s1, s4
	fcvt	d1, s1
	fadd	d0, d0, d1
	fsub	d0, d0, d2
	ldur	d1, [x29, #-24]
	ldur	s3, [x29, #-64]
	fdiv	s3, s3, s4
	fcvt	d3, s3
	fsub	d1, d1, d3
	fsub	d1, d1, d2
	add	x0, sp, #96
	bl	__ZN3map5PointC1Edd
	ldr	s4, [sp, #12]                   ; 4-byte Folded Reload
	ldr	d2, [sp, #16]                   ; 8-byte Folded Reload
	ldur	d0, [x29, #-32]
	ldur	s1, [x29, #-60]
	fdiv	s1, s1, s4
	fcvt	d1, s1
	fsub	d0, d0, d1
	fsub	d0, d0, d2
	ldur	d1, [x29, #-24]
	ldur	s3, [x29, #-64]
	fdiv	s3, s3, s4
	fcvt	d3, s3
	fsub	d1, d1, d3
	fsub	d1, d1, d2
	add	x0, sp, #80
	bl	__ZN3map5PointC1Edd
	ldr	x0, [sp, #56]                   ; 8-byte Folded Reload
	ldur	w8, [x29, #-40]
	str	w8, [sp, #72]
	ldurh	w8, [x29, #-36]
	strh	w8, [sp, #76]
	ldurb	w8, [x29, #-66]
	and	w2, w8, #0x1
	ldr	d0, [sp, #96]
	ldr	d1, [sp, #104]
	ldr	d2, [sp, #80]
	ldr	d3, [sp, #88]
	ldr	w8, [sp, #72]
	str	w8, [sp, #64]
	ldrh	w8, [sp, #76]
	strh	w8, [sp, #68]
	ldr	x1, [sp, #64]
	bl	__ZN3map6Mapper8drawLineENS_5PointES1_NS_3clr3RGBEi
	b	LBB68_38
LBB68_38:
	ldr	x8, [sp, #56]                   ; 8-byte Folded Reload
	ldrb	w8, [x8, #104]
	tbz	w8, #0, LBB68_40
	b	LBB68_39
LBB68_39:
	ldr	x0, [sp, #56]                   ; 8-byte Folded Reload
	bl	__ZN3map6Mapper8setStateEv
	b	LBB68_40
LBB68_40:
	ldp	x29, x30, [sp, #432]            ; 16-byte Folded Reload
	ldp	x28, x27, [sp, #416]            ; 16-byte Folded Reload
	add	sp, sp, #448
	ret
	.cfi_endproc
	.p2align	2
lJTI68_0:
	.long	LBB68_21-Ltmp226
	.long	LBB68_14-Ltmp226
	.long	LBB68_22-Ltmp226
	.long	LBB68_22-Ltmp226
	.long	LBB68_22-Ltmp226
	.long	LBB68_22-Ltmp226
	.long	LBB68_15-Ltmp226
	.long	LBB68_16-Ltmp226
	.long	LBB68_17-Ltmp226
	.long	LBB68_18-Ltmp226
	.long	LBB68_19-Ltmp226
	.long	LBB68_20-Ltmp226
                                        ; -- End function
	.globl	__ZN3map6Mapper10drawCircleENS_5PointEiNS_3clr3RGBEbbiNS_9AlignmentE ; -- Begin function _ZN3map6Mapper10drawCircleENS_5PointEiNS_3clr3RGBEbbiNS_9AlignmentE
	.p2align	2
__ZN3map6Mapper10drawCircleENS_5PointEiNS_3clr3RGBEbbiNS_9AlignmentE: ; @_ZN3map6Mapper10drawCircleENS_5PointEiNS_3clr3RGBEbbiNS_9AlignmentE
	.cfi_startproc
; %bb.0:
	sub	sp, sp, #176
	.cfi_def_cfa_offset 176
	stp	x29, x30, [sp, #160]            ; 16-byte Folded Spill
	add	x29, sp, #160
	.cfi_def_cfa w29, 16
	.cfi_offset w30, -8
	.cfi_offset w29, -16
	stur	d0, [x29, #-16]
	stur	d1, [x29, #-8]
	stur	x2, [x29, #-32]
	ldur	w8, [x29, #-32]
	stur	w8, [x29, #-24]
	ldurh	w8, [x29, #-28]
	sturh	w8, [x29, #-20]
	stur	x0, [x29, #-40]
	stur	w1, [x29, #-44]
	mov	w8, #1
	and	w9, w3, w8
	sturb	w9, [x29, #-45]
	and	w8, w4, w8
	sturb	w8, [x29, #-46]
	stur	w5, [x29, #-52]
	stur	w6, [x29, #-56]
	ldur	x8, [x29, #-40]
	str	x8, [sp, #56]                   ; 8-byte Folded Spill
	ldur	w8, [x29, #-52]
	subs	w8, w8, #2
	cset	w8, ge
	tbnz	w8, #0, LBB69_2
	b	LBB69_1
LBB69_1:
	mov	w8, #2
	str	w8, [sp, #52]                   ; 4-byte Folded Spill
	b	LBB69_3
LBB69_2:
	ldur	w8, [x29, #-52]
	str	w8, [sp, #52]                   ; 4-byte Folded Spill
	b	LBB69_3
LBB69_3:
	ldr	w8, [sp, #52]                   ; 4-byte Folded Reload
	stur	w8, [x29, #-52]
	ldur	w8, [x29, #-44]
	subs	w8, w8, #0
	cset	w8, ge
	tbnz	w8, #0, LBB69_5
	b	LBB69_4
LBB69_4:
	ldr	x8, [sp, #56]                   ; 8-byte Folded Reload
	ldr	w8, [x8, #48]
	mov	w9, #10
	sdiv	w8, w8, w9
	stur	w8, [x29, #-44]
	b	LBB69_5
LBB69_5:
	ldur	w8, [x29, #-56]
	add	w8, w8, #1
                                        ; kill: def $x8 killed $w8
	str	x8, [sp, #40]                   ; 8-byte Folded Spill
	subs	x8, x8, #5
	cset	w8, hi
	tbnz	w8, #0, LBB69_13
; %bb.6:
	ldr	x11, [sp, #40]                  ; 8-byte Folded Reload
	adrp	x10, lJTI69_0@PAGE
	add	x10, x10, lJTI69_0@PAGEOFF
Ltmp227:
	adr	x8, Ltmp227
	ldrsw	x9, [x10, x11, lsl #2]
	add	x8, x8, x9
	br	x8
LBB69_7:
	ldr	x8, [sp, #56]                   ; 8-byte Folded Reload
	ldr	w10, [x8, #52]
	mov	w9, #2
	sdiv	w10, w10, w9
	scvtf	d0, w10
	stur	d0, [x29, #-16]
	ldr	w8, [x8, #48]
	sdiv	w8, w8, w9
	scvtf	d0, w8
	stur	d0, [x29, #-8]
	b	LBB69_13
LBB69_8:
	ldr	x8, [sp, #56]                   ; 8-byte Folded Reload
	movi	d0, #0000000000000000
	stur	d0, [x29, #-16]
	ldr	w8, [x8, #48]
	mov	w9, #2
	sdiv	w8, w8, w9
	scvtf	d0, w8
	stur	d0, [x29, #-8]
	b	LBB69_13
LBB69_9:
	ldr	x8, [sp, #56]                   ; 8-byte Folded Reload
	ldr	w9, [x8, #52]
	ldur	w10, [x29, #-44]
	subs	w9, w9, w10
	scvtf	d0, w9
	stur	d0, [x29, #-16]
	ldr	w8, [x8, #48]
	mov	w9, #2
	sdiv	w8, w8, w9
	scvtf	d0, w8
	stur	d0, [x29, #-8]
	b	LBB69_13
LBB69_10:
	ldr	x8, [sp, #56]                   ; 8-byte Folded Reload
	ldr	w8, [x8, #52]
	mov	w9, #2
	sdiv	w8, w8, w9
	scvtf	d0, w8
	stur	d0, [x29, #-16]
	movi	d0, #0000000000000000
	stur	d0, [x29, #-8]
	b	LBB69_13
LBB69_11:
	ldr	x8, [sp, #56]                   ; 8-byte Folded Reload
	ldr	w9, [x8, #52]
	mov	w10, #2
	sdiv	w9, w9, w10
	scvtf	d0, w9
	stur	d0, [x29, #-16]
	ldr	w8, [x8, #48]
	ldur	w9, [x29, #-44]
	subs	w8, w8, w9
	scvtf	d0, w8
	stur	d0, [x29, #-8]
	b	LBB69_13
LBB69_12:
	b	LBB69_13
LBB69_13:
	ldurb	w8, [x29, #-46]
	tbz	w8, #0, LBB69_15
	b	LBB69_14
LBB69_14:
	ldurh	w9, [x29, #-24]
	mov	w8, #255
	subs	w9, w8, w9
	sturh	w9, [x29, #-24]
	ldurh	w9, [x29, #-22]
	subs	w9, w8, w9
	sturh	w9, [x29, #-22]
	ldurh	w9, [x29, #-20]
	subs	w8, w8, w9
	sturh	w8, [x29, #-20]
	b	LBB69_15
LBB69_15:
	ldur	d0, [x29, #-8]
	ldur	s2, [x29, #-44]
                                        ; implicit-def: $d1
	fmov	s1, s2
	sshll.2d	v1, v1, #0
                                        ; kill: def $d1 killed $d1 killed $q1
	scvtf	d1, d1
	fsub	d0, d0, d1
	fcmp	d0, #0.0
	cset	w8, lt
	tbnz	w8, #0, LBB69_17
	b	LBB69_16
LBB69_16:
	ldur	d0, [x29, #-8]
	ldur	s2, [x29, #-44]
                                        ; implicit-def: $d1
	fmov	s1, s2
	sshll.2d	v1, v1, #0
                                        ; kill: def $d1 killed $d1 killed $q1
	scvtf	d1, d1
	fsub	d0, d0, d1
	str	d0, [sp, #32]                   ; 8-byte Folded Spill
	b	LBB69_18
LBB69_17:
	movi	d0, #0000000000000000
	str	d0, [sp, #32]                   ; 8-byte Folded Spill
	b	LBB69_18
LBB69_18:
	ldr	d0, [sp, #32]                   ; 8-byte Folded Reload
	fcvtzs	w8, d0
	stur	w8, [x29, #-60]
	ldur	d0, [x29, #-16]
	ldur	s2, [x29, #-44]
                                        ; implicit-def: $d1
	fmov	s1, s2
	sshll.2d	v1, v1, #0
                                        ; kill: def $d1 killed $d1 killed $q1
	scvtf	d1, d1
	fsub	d0, d0, d1
	fcmp	d0, #0.0
	cset	w8, lt
	tbnz	w8, #0, LBB69_20
	b	LBB69_19
LBB69_19:
	ldur	d0, [x29, #-16]
	ldur	s2, [x29, #-44]
                                        ; implicit-def: $d1
	fmov	s1, s2
	sshll.2d	v1, v1, #0
                                        ; kill: def $d1 killed $d1 killed $q1
	scvtf	d1, d1
	fsub	d0, d0, d1
	str	d0, [sp, #24]                   ; 8-byte Folded Spill
	b	LBB69_21
LBB69_20:
	movi	d0, #0000000000000000
	str	d0, [sp, #24]                   ; 8-byte Folded Spill
	b	LBB69_21
LBB69_21:
	ldr	x8, [sp, #56]                   ; 8-byte Folded Reload
	ldr	d0, [sp, #24]                   ; 8-byte Folded Reload
	fcvtzs	w9, d0
	stur	w9, [x29, #-64]
	ldur	d0, [x29, #-8]
	ldur	w10, [x29, #-44]
	mov	w9, #2
	mul	w9, w9, w10
	scvtf	d1, w9
	fadd	d0, d0, d1
	ldr	s2, [x8, #48]
                                        ; implicit-def: $d1
	fmov	s1, s2
	sshll.2d	v1, v1, #0
                                        ; kill: def $d1 killed $d1 killed $q1
	scvtf	d1, d1
	fcmp	d0, d1
	cset	w8, pl
	tbnz	w8, #0, LBB69_23
	b	LBB69_22
LBB69_22:
	ldur	d0, [x29, #-8]
	ldur	w9, [x29, #-44]
	mov	w8, #2
	mul	w8, w8, w9
	scvtf	d1, w8
	fadd	d0, d0, d1
	str	d0, [sp, #16]                   ; 8-byte Folded Spill
	b	LBB69_24
LBB69_23:
	ldr	x8, [sp, #56]                   ; 8-byte Folded Reload
	ldr	s1, [x8, #48]
                                        ; implicit-def: $d0
	fmov	s0, s1
	sshll.2d	v0, v0, #0
                                        ; kill: def $d0 killed $d0 killed $q0
	scvtf	d0, d0
	str	d0, [sp, #16]                   ; 8-byte Folded Spill
	b	LBB69_24
LBB69_24:
	ldr	x8, [sp, #56]                   ; 8-byte Folded Reload
	ldr	d0, [sp, #16]                   ; 8-byte Folded Reload
	fcvtzs	w9, d0
	stur	w9, [x29, #-68]
	ldur	d0, [x29, #-16]
	ldur	w10, [x29, #-44]
	mov	w9, #2
	mul	w9, w9, w10
	scvtf	d1, w9
	fadd	d0, d0, d1
	ldr	s2, [x8, #52]
                                        ; implicit-def: $d1
	fmov	s1, s2
	sshll.2d	v1, v1, #0
                                        ; kill: def $d1 killed $d1 killed $q1
	scvtf	d1, d1
	fcmp	d0, d1
	cset	w8, pl
	tbnz	w8, #0, LBB69_26
	b	LBB69_25
LBB69_25:
	ldur	d0, [x29, #-16]
	ldur	w9, [x29, #-44]
	mov	w8, #2
	mul	w8, w8, w9
	scvtf	d1, w8
	fadd	d0, d0, d1
	str	d0, [sp, #8]                    ; 8-byte Folded Spill
	b	LBB69_27
LBB69_26:
	ldr	x8, [sp, #56]                   ; 8-byte Folded Reload
	ldr	s1, [x8, #52]
                                        ; implicit-def: $d0
	fmov	s0, s1
	sshll.2d	v0, v0, #0
                                        ; kill: def $d0 killed $d0 killed $q0
	scvtf	d0, d0
	str	d0, [sp, #8]                    ; 8-byte Folded Spill
	b	LBB69_27
LBB69_27:
	ldr	d0, [sp, #8]                    ; 8-byte Folded Reload
	fcvtzs	w8, d0
	stur	w8, [x29, #-72]
	ldurb	w8, [x29, #-46]
	tbz	w8, #0, LBB69_39
	b	LBB69_28
LBB69_28:
	stur	wzr, [x29, #-76]
	b	LBB69_29
LBB69_29:                               ; =>This Loop Header: Depth=1
                                        ;     Child Loop BB69_31 Depth 2
	ldr	x9, [sp, #56]                   ; 8-byte Folded Reload
	ldur	w8, [x29, #-76]
	ldr	w9, [x9, #48]
	subs	w8, w8, w9
	cset	w8, ge
	tbnz	w8, #0, LBB69_38
	b	LBB69_30
LBB69_30:                               ;   in Loop: Header=BB69_29 Depth=1
	str	wzr, [sp, #80]
	b	LBB69_31
LBB69_31:                               ;   Parent Loop BB69_29 Depth=1
                                        ; =>  This Inner Loop Header: Depth=2
	ldr	x9, [sp, #56]                   ; 8-byte Folded Reload
	ldr	w8, [sp, #80]
	ldr	w9, [x9, #52]
	subs	w8, w8, w9
	cset	w8, ge
	tbnz	w8, #0, LBB69_36
	b	LBB69_32
LBB69_32:                               ;   in Loop: Header=BB69_31 Depth=2
	ldur	s1, [x29, #-76]
                                        ; implicit-def: $d0
	fmov	s0, s1
	sshll.2d	v0, v0, #0
                                        ; kill: def $d0 killed $d0 killed $q0
	scvtf	d0, d0
	ldur	d1, [x29, #-8]
	fsub	d0, d0, d1
	ldur	s2, [x29, #-76]
                                        ; implicit-def: $d1
	fmov	s1, s2
	sshll.2d	v1, v1, #0
                                        ; kill: def $d1 killed $d1 killed $q1
	scvtf	d1, d1
	ldur	d2, [x29, #-8]
	fsub	d1, d1, d2
	ldr	s3, [sp, #80]
                                        ; implicit-def: $d2
	fmov	s2, s3
	sshll.2d	v2, v2, #0
                                        ; kill: def $d2 killed $d2 killed $q2
	scvtf	d2, d2
	ldur	d3, [x29, #-16]
	fsub	d2, d2, d3
	ldr	s4, [sp, #80]
                                        ; implicit-def: $d3
	fmov	s3, s4
	sshll.2d	v3, v3, #0
                                        ; kill: def $d3 killed $d3 killed $q3
	scvtf	d3, d3
	ldur	d4, [x29, #-16]
	fsub	d3, d3, d4
	fmul	d2, d2, d3
	fnmadd	d0, d0, d1, d2
	ldur	w8, [x29, #-44]
	ldur	w9, [x29, #-44]
	mneg	w8, w8, w9
	scvtf	d1, w8
	fcmp	d0, d1
	cset	w8, hi
	tbnz	w8, #0, LBB69_34
	b	LBB69_33
LBB69_33:                               ;   in Loop: Header=BB69_31 Depth=2
	ldr	x9, [sp, #56]                   ; 8-byte Folded Reload
	ldr	x10, [x9, #96]
	ldur	w8, [x29, #-76]
	ldr	w9, [x9, #52]
	mul	w8, w8, w9
	ldr	w9, [sp, #80]
	add	w8, w8, w9
	mov	w9, #6
	smaddl	x9, w8, w9, x10
	ldur	w8, [x29, #-24]
	str	w8, [x9]
	ldurh	w8, [x29, #-20]
	strh	w8, [x9, #4]
	b	LBB69_34
LBB69_34:                               ;   in Loop: Header=BB69_31 Depth=2
	b	LBB69_35
LBB69_35:                               ;   in Loop: Header=BB69_31 Depth=2
	ldr	w8, [sp, #80]
	add	w8, w8, #1
	str	w8, [sp, #80]
	b	LBB69_31
LBB69_36:                               ;   in Loop: Header=BB69_29 Depth=1
	b	LBB69_37
LBB69_37:                               ;   in Loop: Header=BB69_29 Depth=1
	ldur	w8, [x29, #-76]
	add	w8, w8, #1
	stur	w8, [x29, #-76]
	b	LBB69_29
LBB69_38:
	b	LBB69_64
LBB69_39:
	ldurb	w8, [x29, #-45]
	tbz	w8, #0, LBB69_51
	b	LBB69_40
LBB69_40:
	ldur	w8, [x29, #-60]
	str	w8, [sp, #76]
	b	LBB69_41
LBB69_41:                               ; =>This Loop Header: Depth=1
                                        ;     Child Loop BB69_43 Depth 2
	ldr	w8, [sp, #76]
	ldur	w9, [x29, #-68]
	subs	w8, w8, w9
	cset	w8, ge
	tbnz	w8, #0, LBB69_50
	b	LBB69_42
LBB69_42:                               ;   in Loop: Header=BB69_41 Depth=1
	ldur	w8, [x29, #-64]
	str	w8, [sp, #72]
	b	LBB69_43
LBB69_43:                               ;   Parent Loop BB69_41 Depth=1
                                        ; =>  This Inner Loop Header: Depth=2
	ldr	w8, [sp, #72]
	ldur	w9, [x29, #-72]
	subs	w8, w8, w9
	cset	w8, ge
	tbnz	w8, #0, LBB69_48
	b	LBB69_44
LBB69_44:                               ;   in Loop: Header=BB69_43 Depth=2
	ldr	s1, [sp, #76]
                                        ; implicit-def: $d0
	fmov	s0, s1
	sshll.2d	v0, v0, #0
                                        ; kill: def $d0 killed $d0 killed $q0
	scvtf	d0, d0
	ldur	d1, [x29, #-8]
	fsub	d0, d0, d1
	ldr	s2, [sp, #76]
                                        ; implicit-def: $d1
	fmov	s1, s2
	sshll.2d	v1, v1, #0
                                        ; kill: def $d1 killed $d1 killed $q1
	scvtf	d1, d1
	ldur	d2, [x29, #-8]
	fsub	d1, d1, d2
	ldr	s3, [sp, #72]
                                        ; implicit-def: $d2
	fmov	s2, s3
	sshll.2d	v2, v2, #0
                                        ; kill: def $d2 killed $d2 killed $q2
	scvtf	d2, d2
	ldur	d3, [x29, #-16]
	fsub	d2, d2, d3
	ldr	s4, [sp, #72]
                                        ; implicit-def: $d3
	fmov	s3, s4
	sshll.2d	v3, v3, #0
                                        ; kill: def $d3 killed $d3 killed $q3
	scvtf	d3, d3
	ldur	d4, [x29, #-16]
	fsub	d3, d3, d4
	fmul	d2, d2, d3
	fmadd	d0, d0, d1, d2
	ldur	w8, [x29, #-44]
	ldur	w9, [x29, #-44]
	mul	w8, w8, w9
	scvtf	d1, w8
	fcmp	d0, d1
	cset	w8, hi
	tbnz	w8, #0, LBB69_46
	b	LBB69_45
LBB69_45:                               ;   in Loop: Header=BB69_43 Depth=2
	ldr	x9, [sp, #56]                   ; 8-byte Folded Reload
	ldr	x10, [x9, #96]
	ldr	w8, [sp, #76]
	ldr	w9, [x9, #52]
	mul	w8, w8, w9
	ldr	w9, [sp, #72]
	add	w8, w8, w9
	mov	w9, #6
	smaddl	x9, w8, w9, x10
	ldur	w8, [x29, #-24]
	str	w8, [x9]
	ldurh	w8, [x29, #-20]
	strh	w8, [x9, #4]
	b	LBB69_46
LBB69_46:                               ;   in Loop: Header=BB69_43 Depth=2
	b	LBB69_47
LBB69_47:                               ;   in Loop: Header=BB69_43 Depth=2
	ldr	w8, [sp, #72]
	add	w8, w8, #1
	str	w8, [sp, #72]
	b	LBB69_43
LBB69_48:                               ;   in Loop: Header=BB69_41 Depth=1
	b	LBB69_49
LBB69_49:                               ;   in Loop: Header=BB69_41 Depth=1
	ldr	w8, [sp, #76]
	add	w8, w8, #1
	str	w8, [sp, #76]
	b	LBB69_41
LBB69_50:
	b	LBB69_63
LBB69_51:
	ldur	w8, [x29, #-60]
	str	w8, [sp, #68]
	b	LBB69_52
LBB69_52:                               ; =>This Loop Header: Depth=1
                                        ;     Child Loop BB69_54 Depth 2
	ldr	w8, [sp, #68]
	ldur	w9, [x29, #-68]
	subs	w8, w8, w9
	cset	w8, ge
	tbnz	w8, #0, LBB69_62
	b	LBB69_53
LBB69_53:                               ;   in Loop: Header=BB69_52 Depth=1
	ldur	w8, [x29, #-64]
	str	w8, [sp, #64]
	b	LBB69_54
LBB69_54:                               ;   Parent Loop BB69_52 Depth=1
                                        ; =>  This Inner Loop Header: Depth=2
	ldr	w8, [sp, #64]
	ldur	w9, [x29, #-72]
	subs	w8, w8, w9
	cset	w8, ge
	tbnz	w8, #0, LBB69_60
	b	LBB69_55
LBB69_55:                               ;   in Loop: Header=BB69_54 Depth=2
	ldr	s1, [sp, #68]
                                        ; implicit-def: $d0
	fmov	s0, s1
	sshll.2d	v0, v0, #0
                                        ; kill: def $d0 killed $d0 killed $q0
	scvtf	d0, d0
	ldur	d1, [x29, #-8]
	fsub	d0, d0, d1
	ldr	s2, [sp, #68]
                                        ; implicit-def: $d1
	fmov	s1, s2
	sshll.2d	v1, v1, #0
                                        ; kill: def $d1 killed $d1 killed $q1
	scvtf	d1, d1
	ldur	d2, [x29, #-8]
	fsub	d1, d1, d2
	ldr	s3, [sp, #64]
                                        ; implicit-def: $d2
	fmov	s2, s3
	sshll.2d	v2, v2, #0
                                        ; kill: def $d2 killed $d2 killed $q2
	scvtf	d2, d2
	ldur	d3, [x29, #-16]
	fsub	d2, d2, d3
	ldr	s4, [sp, #64]
                                        ; implicit-def: $d3
	fmov	s3, s4
	sshll.2d	v3, v3, #0
                                        ; kill: def $d3 killed $d3 killed $q3
	scvtf	d3, d3
	ldur	d4, [x29, #-16]
	fsub	d3, d3, d4
	fmul	d2, d2, d3
	fmadd	d0, d0, d1, d2
	ldur	w8, [x29, #-44]
	ldur	w9, [x29, #-44]
	mul	w8, w8, w9
	ldur	w9, [x29, #-52]
	ldur	w10, [x29, #-44]
	mul	w9, w9, w10
	subs	w8, w8, w9
	scvtf	d1, w8
	fcmp	d0, d1
	cset	w8, lt
	tbnz	w8, #0, LBB69_58
	b	LBB69_56
LBB69_56:                               ;   in Loop: Header=BB69_54 Depth=2
	ldr	s1, [sp, #68]
                                        ; implicit-def: $d0
	fmov	s0, s1
	sshll.2d	v0, v0, #0
                                        ; kill: def $d0 killed $d0 killed $q0
	scvtf	d0, d0
	ldur	d1, [x29, #-8]
	fsub	d0, d0, d1
	ldr	s2, [sp, #68]
                                        ; implicit-def: $d1
	fmov	s1, s2
	sshll.2d	v1, v1, #0
                                        ; kill: def $d1 killed $d1 killed $q1
	scvtf	d1, d1
	ldur	d2, [x29, #-8]
	fsub	d1, d1, d2
	ldr	s3, [sp, #64]
                                        ; implicit-def: $d2
	fmov	s2, s3
	sshll.2d	v2, v2, #0
                                        ; kill: def $d2 killed $d2 killed $q2
	scvtf	d2, d2
	ldur	d3, [x29, #-16]
	fsub	d2, d2, d3
	ldr	s4, [sp, #64]
                                        ; implicit-def: $d3
	fmov	s3, s4
	sshll.2d	v3, v3, #0
                                        ; kill: def $d3 killed $d3 killed $q3
	scvtf	d3, d3
	ldur	d4, [x29, #-16]
	fsub	d3, d3, d4
	fmul	d2, d2, d3
	fmadd	d0, d0, d1, d2
	ldur	w8, [x29, #-44]
	ldur	w9, [x29, #-44]
	mul	w8, w8, w9
	ldur	w9, [x29, #-44]
	add	w8, w8, w9
	scvtf	d1, w8
	fcmp	d0, d1
	cset	w8, hi
	tbnz	w8, #0, LBB69_58
	b	LBB69_57
LBB69_57:                               ;   in Loop: Header=BB69_54 Depth=2
	ldr	x9, [sp, #56]                   ; 8-byte Folded Reload
	ldr	x10, [x9, #96]
	ldr	w8, [sp, #68]
	ldr	w9, [x9, #52]
	mul	w8, w8, w9
	ldr	w9, [sp, #64]
	add	w8, w8, w9
	mov	w9, #6
	smaddl	x9, w8, w9, x10
	ldur	w8, [x29, #-24]
	str	w8, [x9]
	ldurh	w8, [x29, #-20]
	strh	w8, [x9, #4]
	b	LBB69_58
LBB69_58:                               ;   in Loop: Header=BB69_54 Depth=2
	b	LBB69_59
LBB69_59:                               ;   in Loop: Header=BB69_54 Depth=2
	ldr	w8, [sp, #64]
	add	w8, w8, #1
	str	w8, [sp, #64]
	b	LBB69_54
LBB69_60:                               ;   in Loop: Header=BB69_52 Depth=1
	b	LBB69_61
LBB69_61:                               ;   in Loop: Header=BB69_52 Depth=1
	ldr	w8, [sp, #68]
	add	w8, w8, #1
	str	w8, [sp, #68]
	b	LBB69_52
LBB69_62:
	b	LBB69_63
LBB69_63:
	b	LBB69_64
LBB69_64:
	ldr	x8, [sp, #56]                   ; 8-byte Folded Reload
	ldrb	w8, [x8, #104]
	tbz	w8, #0, LBB69_66
	b	LBB69_65
LBB69_65:
	ldr	x0, [sp, #56]                   ; 8-byte Folded Reload
	bl	__ZN3map6Mapper8setStateEv
	b	LBB69_66
LBB69_66:
	ldp	x29, x30, [sp, #160]            ; 16-byte Folded Reload
	add	sp, sp, #176
	ret
	.cfi_endproc
	.p2align	2
lJTI69_0:
	.long	LBB69_12-Ltmp227
	.long	LBB69_7-Ltmp227
	.long	LBB69_8-Ltmp227
	.long	LBB69_9-Ltmp227
	.long	LBB69_10-Ltmp227
	.long	LBB69_11-Ltmp227
                                        ; -- End function
	.globl	__ZN3map6Mapper11drawEllipseENS_5PointEiiNS_3clr3RGBEbbiNS_9AlignmentE ; -- Begin function _ZN3map6Mapper11drawEllipseENS_5PointEiiNS_3clr3RGBEbbiNS_9AlignmentE
	.p2align	2
__ZN3map6Mapper11drawEllipseENS_5PointEiiNS_3clr3RGBEbbiNS_9AlignmentE: ; @_ZN3map6Mapper11drawEllipseENS_5PointEiiNS_3clr3RGBEbbiNS_9AlignmentE
	.cfi_startproc
; %bb.0:
	sub	sp, sp, #336
	.cfi_def_cfa_offset 336
	stp	x28, x27, [sp, #304]            ; 16-byte Folded Spill
	stp	x29, x30, [sp, #320]            ; 16-byte Folded Spill
	add	x29, sp, #320
	.cfi_def_cfa w29, 16
	.cfi_offset w30, -8
	.cfi_offset w29, -16
	.cfi_offset w27, -24
	.cfi_offset w28, -32
	sub	x8, x29, #32
	str	x8, [sp, #128]                  ; 8-byte Folded Spill
	str	d0, [x8]
	str	d1, [x8, #8]
	stur	x3, [x29, #-48]
	ldur	w8, [x29, #-48]
	stur	w8, [x29, #-40]
	ldurh	w8, [x29, #-44]
	sturh	w8, [x29, #-36]
	stur	x0, [x29, #-56]
	stur	w1, [x29, #-60]
	stur	w2, [x29, #-64]
	mov	w8, #1
	and	w9, w4, w8
	sturb	w9, [x29, #-65]
	and	w8, w5, w8
	sturb	w8, [x29, #-66]
	stur	w6, [x29, #-72]
	stur	w7, [x29, #-76]
	ldur	x8, [x29, #-56]
	str	x8, [sp, #136]                  ; 8-byte Folded Spill
	ldur	s0, [x29, #-72]
	scvtf	s0, s0
	mov	w8, #1120403456
	fmov	s1, w8
	fdiv	s0, s0, s1
	stur	s0, [x29, #-80]
	ldur	w8, [x29, #-60]
	subs	w8, w8, #0
	cset	w8, ge
	tbnz	w8, #0, LBB70_2
	b	LBB70_1
LBB70_1:
	ldr	x8, [sp, #136]                  ; 8-byte Folded Reload
	ldr	w8, [x8, #48]
	mov	w9, #10
	sdiv	w8, w8, w9
	stur	w8, [x29, #-60]
	b	LBB70_2
LBB70_2:
	ldur	w8, [x29, #-64]
	subs	w8, w8, #0
	cset	w8, ge
	tbnz	w8, #0, LBB70_4
	b	LBB70_3
LBB70_3:
	ldr	x8, [sp, #136]                  ; 8-byte Folded Reload
	ldr	w8, [x8, #48]
	mov	w9, #10
	sdiv	w8, w8, w9
	stur	w8, [x29, #-64]
	b	LBB70_4
LBB70_4:
	ldr	x8, [sp, #128]                  ; 8-byte Folded Reload
	ldr	d0, [x8, #8]
	ldur	s2, [x29, #-60]
                                        ; implicit-def: $d1
	fmov	s1, s2
	sshll.2d	v1, v1, #0
                                        ; kill: def $d1 killed $d1 killed $q1
	scvtf	d1, d1
	fsub	d0, d0, d1
	fcvtzs	w9, d0
	stur	w9, [x29, #-84]
	ldr	d0, [x8]
	ldur	s2, [x29, #-64]
                                        ; implicit-def: $d1
	fmov	s1, s2
	sshll.2d	v1, v1, #0
                                        ; kill: def $d1 killed $d1 killed $q1
	scvtf	d1, d1
	fsub	d0, d0, d1
	fcvtzs	w8, d0
	stur	w8, [x29, #-88]
	ldur	w8, [x29, #-76]
	add	w8, w8, #1
                                        ; kill: def $x8 killed $w8
	str	x8, [sp, #120]                  ; 8-byte Folded Spill
	subs	x8, x8, #5
	cset	w8, hi
	tbnz	w8, #0, LBB70_12
; %bb.5:
	ldr	x11, [sp, #120]                 ; 8-byte Folded Reload
	adrp	x10, lJTI70_0@PAGE
	add	x10, x10, lJTI70_0@PAGEOFF
Ltmp228:
	adr	x8, Ltmp228
	ldrsw	x9, [x10, x11, lsl #2]
	add	x8, x8, x9
	br	x8
LBB70_6:
	ldr	x8, [sp, #136]                  ; 8-byte Folded Reload
	ldr	w10, [x8, #48]
	mov	w9, #2
	sdiv	w10, w10, w9
	ldur	w11, [x29, #-60]
	subs	w10, w10, w11
	stur	w10, [x29, #-84]
	ldr	w8, [x8, #52]
	sdiv	w8, w8, w9
	ldur	w9, [x29, #-64]
	subs	w8, w8, w9
	stur	w8, [x29, #-88]
	b	LBB70_12
LBB70_7:
	ldr	x8, [sp, #136]                  ; 8-byte Folded Reload
	stur	wzr, [x29, #-84]
	ldr	w8, [x8, #52]
	mov	w9, #2
	sdiv	w8, w8, w9
	ldur	w9, [x29, #-64]
	subs	w8, w8, w9
	stur	w8, [x29, #-88]
	b	LBB70_12
LBB70_8:
	ldr	x8, [sp, #136]                  ; 8-byte Folded Reload
	ldr	w10, [x8, #48]
	ldur	w11, [x29, #-60]
	mov	w9, #2
	mul	w11, w9, w11
	subs	w10, w10, w11
	stur	w10, [x29, #-84]
	ldr	w8, [x8, #52]
	sdiv	w8, w8, w9
	ldur	w9, [x29, #-64]
	subs	w8, w8, w9
	stur	w8, [x29, #-88]
	b	LBB70_12
LBB70_9:
	ldr	x8, [sp, #136]                  ; 8-byte Folded Reload
	ldr	w8, [x8, #48]
	mov	w9, #2
	sdiv	w8, w8, w9
	ldur	w9, [x29, #-60]
	subs	w8, w8, w9
	stur	w8, [x29, #-84]
	stur	wzr, [x29, #-88]
	b	LBB70_12
LBB70_10:
	ldr	x8, [sp, #136]                  ; 8-byte Folded Reload
	ldr	w10, [x8, #48]
	mov	w9, #2
	sdiv	w10, w10, w9
	ldur	w11, [x29, #-60]
	subs	w10, w10, w11
	stur	w10, [x29, #-84]
	ldr	w8, [x8, #52]
	ldur	w10, [x29, #-64]
	mul	w9, w9, w10
	subs	w8, w8, w9
	stur	w8, [x29, #-88]
	b	LBB70_12
LBB70_11:
	b	LBB70_12
LBB70_12:
	ldurb	w8, [x29, #-66]
	tbz	w8, #0, LBB70_24
	b	LBB70_13
LBB70_13:
	sub	x0, x29, #40
	bl	__ZNK3map3clr3RGB8invertedEv
	lsr	x8, x0, #32
	mov	x9, x0
	stur	w9, [x29, #-104]
                                        ; kill: def $w8 killed $w8 killed $x8
	sturh	w8, [x29, #-100]
	ldur	w8, [x29, #-104]
	stur	w8, [x29, #-96]
	ldurh	w8, [x29, #-100]
	sturh	w8, [x29, #-92]
	stur	wzr, [x29, #-108]
	b	LBB70_14
LBB70_14:                               ; =>This Loop Header: Depth=1
                                        ;     Child Loop BB70_16 Depth 2
	ldr	x9, [sp, #136]                  ; 8-byte Folded Reload
	ldur	w8, [x29, #-108]
	ldr	w9, [x9, #48]
	subs	w8, w8, w9
	cset	w8, ge
	tbnz	w8, #0, LBB70_23
	b	LBB70_15
LBB70_15:                               ;   in Loop: Header=BB70_14 Depth=1
	stur	wzr, [x29, #-112]
	b	LBB70_16
LBB70_16:                               ;   Parent Loop BB70_14 Depth=1
                                        ; =>  This Inner Loop Header: Depth=2
	ldr	x9, [sp, #136]                  ; 8-byte Folded Reload
	ldur	w8, [x29, #-112]
	ldr	w9, [x9, #52]
	subs	w8, w8, w9
	cset	w8, ge
	tbnz	w8, #0, LBB70_21
	b	LBB70_17
LBB70_17:                               ;   in Loop: Header=BB70_16 Depth=2
	ldur	w8, [x29, #-108]
	ldur	w9, [x29, #-84]
	subs	w8, w8, w9
	ldur	w9, [x29, #-60]
	subs	w0, w8, w9
	mov	w1, #2
	str	w1, [sp, #100]                  ; 4-byte Folded Spill
	bl	__Z3powB6v15006IiiENSt3__19enable_ifIXaasr3std13is_arithmeticIT_EE5valuesr3std13is_arithmeticIT0_EE5valueENS0_9__promoteIS2_S3_vEEE4type4typeES2_S3_
	ldr	w1, [sp, #100]                  ; 4-byte Folded Reload
	str	d0, [sp, #88]                   ; 8-byte Folded Spill
	ldur	w0, [x29, #-60]
	bl	__Z3powB6v15006IiiENSt3__19enable_ifIXaasr3std13is_arithmeticIT_EE5valuesr3std13is_arithmeticIT0_EE5valueENS0_9__promoteIS2_S3_vEEE4type4typeES2_S3_
	ldr	w1, [sp, #100]                  ; 4-byte Folded Reload
	fmov	d1, d0
	ldr	d0, [sp, #88]                   ; 8-byte Folded Reload
	fdiv	d0, d0, d1
	str	d0, [sp, #112]                  ; 8-byte Folded Spill
	ldur	w8, [x29, #-112]
	ldur	w9, [x29, #-88]
	subs	w8, w8, w9
	ldur	w9, [x29, #-64]
	subs	w0, w8, w9
	bl	__Z3powB6v15006IiiENSt3__19enable_ifIXaasr3std13is_arithmeticIT_EE5valuesr3std13is_arithmeticIT0_EE5valueENS0_9__promoteIS2_S3_vEEE4type4typeES2_S3_
	ldr	w1, [sp, #100]                  ; 4-byte Folded Reload
	str	d0, [sp, #104]                  ; 8-byte Folded Spill
	ldur	w0, [x29, #-64]
	bl	__Z3powB6v15006IiiENSt3__19enable_ifIXaasr3std13is_arithmeticIT_EE5valuesr3std13is_arithmeticIT0_EE5valueENS0_9__promoteIS2_S3_vEEE4type4typeES2_S3_
	ldr	d1, [sp, #104]                  ; 8-byte Folded Reload
	fmov	d2, d0
	ldr	d0, [sp, #112]                  ; 8-byte Folded Reload
	fdiv	d1, d1, d2
	fadd	d0, d0, d1
	fcvt	s0, d0
	stur	s0, [x29, #-116]
	ldur	s0, [x29, #-116]
	fmov	s1, #1.00000000
	fcmp	s0, s1
	cset	w8, le
	tbnz	w8, #0, LBB70_19
	b	LBB70_18
LBB70_18:                               ;   in Loop: Header=BB70_16 Depth=2
	ldr	x9, [sp, #136]                  ; 8-byte Folded Reload
	ldr	x10, [x9, #96]
	ldur	w8, [x29, #-108]
	ldr	w9, [x9, #52]
	mul	w8, w8, w9
	ldur	w9, [x29, #-112]
	add	w8, w8, w9
	mov	w9, #6
	smaddl	x9, w8, w9, x10
	ldur	w8, [x29, #-96]
	str	w8, [x9]
	ldurh	w8, [x29, #-92]
	strh	w8, [x9, #4]
	b	LBB70_19
LBB70_19:                               ;   in Loop: Header=BB70_16 Depth=2
	b	LBB70_20
LBB70_20:                               ;   in Loop: Header=BB70_16 Depth=2
	ldur	w8, [x29, #-112]
	add	w8, w8, #1
	stur	w8, [x29, #-112]
	b	LBB70_16
LBB70_21:                               ;   in Loop: Header=BB70_14 Depth=1
	b	LBB70_22
LBB70_22:                               ;   in Loop: Header=BB70_14 Depth=1
	ldur	w8, [x29, #-108]
	add	w8, w8, #1
	stur	w8, [x29, #-108]
	b	LBB70_14
LBB70_23:
	b	LBB70_49
LBB70_24:
	ldurb	w8, [x29, #-65]
	tbz	w8, #0, LBB70_36
	b	LBB70_25
LBB70_25:
	sub	x1, x29, #124
	stur	wzr, [x29, #-124]
	sub	x0, x29, #84
	bl	__ZNSt3__13maxB6v15006IiEERKT_S3_S3_
	ldr	w8, [x0]
	stur	w8, [x29, #-120]
	b	LBB70_26
LBB70_26:                               ; =>This Loop Header: Depth=1
                                        ;     Child Loop BB70_28 Depth 2
	ldr	x8, [sp, #136]                  ; 8-byte Folded Reload
	ldur	w9, [x29, #-120]
	str	w9, [sp, #84]                   ; 4-byte Folded Spill
	ldur	w9, [x29, #-84]
	ldur	w11, [x29, #-60]
	mov	w10, #2
	mul	w10, w10, w11
	add	w9, w9, w10
	sub	x0, x29, #128
	stur	w9, [x29, #-128]
	add	x1, x8, #48
	bl	__ZNSt3__13minB6v15006IiEERKT_S3_S3_
	ldr	w8, [sp, #84]                   ; 4-byte Folded Reload
	ldr	w9, [x0]
	subs	w8, w8, w9
	cset	w8, ge
	tbnz	w8, #0, LBB70_35
	b	LBB70_27
LBB70_27:                               ;   in Loop: Header=BB70_26 Depth=1
	sub	x1, x29, #136
	stur	wzr, [x29, #-136]
	sub	x0, x29, #88
	bl	__ZNSt3__13maxB6v15006IiEERKT_S3_S3_
	ldr	w8, [x0]
	stur	w8, [x29, #-132]
	b	LBB70_28
LBB70_28:                               ;   Parent Loop BB70_26 Depth=1
                                        ; =>  This Inner Loop Header: Depth=2
	ldr	x8, [sp, #136]                  ; 8-byte Folded Reload
	ldur	w9, [x29, #-132]
	str	w9, [sp, #80]                   ; 4-byte Folded Spill
	ldur	w9, [x29, #-88]
	ldur	w11, [x29, #-64]
	mov	w10, #2
	mul	w10, w10, w11
	add	w9, w9, w10
	sub	x0, x29, #140
	stur	w9, [x29, #-140]
	add	x1, x8, #52
	bl	__ZNSt3__13minB6v15006IiEERKT_S3_S3_
	ldr	w8, [sp, #80]                   ; 4-byte Folded Reload
	ldr	w9, [x0]
	subs	w8, w8, w9
	cset	w8, gt
	tbnz	w8, #0, LBB70_33
	b	LBB70_29
LBB70_29:                               ;   in Loop: Header=BB70_28 Depth=2
	ldur	w8, [x29, #-120]
	ldur	w9, [x29, #-84]
	subs	w8, w8, w9
	ldur	w9, [x29, #-60]
	subs	w0, w8, w9
	mov	w1, #2
	str	w1, [sp, #60]                   ; 4-byte Folded Spill
	bl	__Z3powB6v15006IiiENSt3__19enable_ifIXaasr3std13is_arithmeticIT_EE5valuesr3std13is_arithmeticIT0_EE5valueENS0_9__promoteIS2_S3_vEEE4type4typeES2_S3_
	ldr	w1, [sp, #60]                   ; 4-byte Folded Reload
	str	d0, [sp, #48]                   ; 8-byte Folded Spill
	ldur	w0, [x29, #-60]
	bl	__Z3powB6v15006IiiENSt3__19enable_ifIXaasr3std13is_arithmeticIT_EE5valuesr3std13is_arithmeticIT0_EE5valueENS0_9__promoteIS2_S3_vEEE4type4typeES2_S3_
	ldr	w1, [sp, #60]                   ; 4-byte Folded Reload
	fmov	d1, d0
	ldr	d0, [sp, #48]                   ; 8-byte Folded Reload
	fdiv	d0, d0, d1
	str	d0, [sp, #72]                   ; 8-byte Folded Spill
	ldur	w8, [x29, #-132]
	ldur	w9, [x29, #-88]
	subs	w8, w8, w9
	ldur	w9, [x29, #-64]
	subs	w0, w8, w9
	bl	__Z3powB6v15006IiiENSt3__19enable_ifIXaasr3std13is_arithmeticIT_EE5valuesr3std13is_arithmeticIT0_EE5valueENS0_9__promoteIS2_S3_vEEE4type4typeES2_S3_
	ldr	w1, [sp, #60]                   ; 4-byte Folded Reload
	str	d0, [sp, #64]                   ; 8-byte Folded Spill
	ldur	w0, [x29, #-64]
	bl	__Z3powB6v15006IiiENSt3__19enable_ifIXaasr3std13is_arithmeticIT_EE5valuesr3std13is_arithmeticIT0_EE5valueENS0_9__promoteIS2_S3_vEEE4type4typeES2_S3_
	ldr	d1, [sp, #64]                   ; 8-byte Folded Reload
	fmov	d2, d0
	ldr	d0, [sp, #72]                   ; 8-byte Folded Reload
	fdiv	d1, d1, d2
	fadd	d0, d0, d1
	fcvt	s0, d0
	stur	s0, [x29, #-144]
	ldur	s0, [x29, #-144]
	fmov	s1, #1.00000000
	fcmp	s0, s1
	cset	w8, hi
	tbnz	w8, #0, LBB70_31
	b	LBB70_30
LBB70_30:                               ;   in Loop: Header=BB70_28 Depth=2
	ldr	x9, [sp, #136]                  ; 8-byte Folded Reload
	ldr	x10, [x9, #96]
	ldur	w8, [x29, #-120]
	ldr	w9, [x9, #52]
	mul	w8, w8, w9
	ldur	w9, [x29, #-132]
	add	w8, w8, w9
	mov	w9, #6
	smaddl	x9, w8, w9, x10
	ldur	w8, [x29, #-40]
	str	w8, [x9]
	ldurh	w8, [x29, #-36]
	strh	w8, [x9, #4]
	b	LBB70_31
LBB70_31:                               ;   in Loop: Header=BB70_28 Depth=2
	b	LBB70_32
LBB70_32:                               ;   in Loop: Header=BB70_28 Depth=2
	ldur	w8, [x29, #-132]
	add	w8, w8, #1
	stur	w8, [x29, #-132]
	b	LBB70_28
LBB70_33:                               ;   in Loop: Header=BB70_26 Depth=1
	b	LBB70_34
LBB70_34:                               ;   in Loop: Header=BB70_26 Depth=1
	ldur	w8, [x29, #-120]
	add	w8, w8, #1
	stur	w8, [x29, #-120]
	b	LBB70_26
LBB70_35:
	b	LBB70_48
LBB70_36:
	sub	x1, x29, #152
	stur	wzr, [x29, #-152]
	sub	x0, x29, #84
	bl	__ZNSt3__13maxB6v15006IiEERKT_S3_S3_
	ldr	w8, [x0]
	stur	w8, [x29, #-148]
	b	LBB70_37
LBB70_37:                               ; =>This Loop Header: Depth=1
                                        ;     Child Loop BB70_39 Depth 2
	ldr	x8, [sp, #136]                  ; 8-byte Folded Reload
	ldur	w9, [x29, #-148]
	str	w9, [sp, #44]                   ; 4-byte Folded Spill
	ldur	w9, [x29, #-84]
	ldur	w11, [x29, #-60]
	mov	w10, #2
	mul	w10, w10, w11
	add	w9, w9, w10
	add	w9, w9, #1
	sub	x0, x29, #156
	stur	w9, [x29, #-156]
	add	x1, x8, #48
	bl	__ZNSt3__13minB6v15006IiEERKT_S3_S3_
	ldr	w8, [sp, #44]                   ; 4-byte Folded Reload
	ldr	w9, [x0]
	subs	w8, w8, w9
	cset	w8, ge
	tbnz	w8, #0, LBB70_47
	b	LBB70_38
LBB70_38:                               ;   in Loop: Header=BB70_37 Depth=1
	add	x1, sp, #156
	str	wzr, [sp, #156]
	sub	x0, x29, #88
	bl	__ZNSt3__13maxB6v15006IiEERKT_S3_S3_
	ldr	w8, [x0]
	str	w8, [sp, #160]
	b	LBB70_39
LBB70_39:                               ;   Parent Loop BB70_37 Depth=1
                                        ; =>  This Inner Loop Header: Depth=2
	ldr	x8, [sp, #136]                  ; 8-byte Folded Reload
	ldr	w9, [sp, #160]
	str	w9, [sp, #40]                   ; 4-byte Folded Spill
	ldur	w9, [x29, #-88]
	ldur	w11, [x29, #-64]
	mov	w10, #2
	mul	w10, w10, w11
	add	w9, w9, w10
	add	w9, w9, #1
	add	x0, sp, #152
	str	w9, [sp, #152]
	add	x1, x8, #52
	bl	__ZNSt3__13minB6v15006IiEERKT_S3_S3_
	ldr	w8, [sp, #40]                   ; 4-byte Folded Reload
	ldr	w9, [x0]
	subs	w8, w8, w9
	cset	w8, gt
	tbnz	w8, #0, LBB70_45
	b	LBB70_40
LBB70_40:                               ;   in Loop: Header=BB70_39 Depth=2
	ldur	w8, [x29, #-148]
	ldur	w9, [x29, #-84]
	subs	w8, w8, w9
	ldur	w9, [x29, #-60]
	subs	w0, w8, w9
	mov	w1, #2
	str	w1, [sp, #20]                   ; 4-byte Folded Spill
	bl	__Z3powB6v15006IiiENSt3__19enable_ifIXaasr3std13is_arithmeticIT_EE5valuesr3std13is_arithmeticIT0_EE5valueENS0_9__promoteIS2_S3_vEEE4type4typeES2_S3_
	ldr	w1, [sp, #20]                   ; 4-byte Folded Reload
	str	d0, [sp, #8]                    ; 8-byte Folded Spill
	ldur	w0, [x29, #-60]
	bl	__Z3powB6v15006IiiENSt3__19enable_ifIXaasr3std13is_arithmeticIT_EE5valuesr3std13is_arithmeticIT0_EE5valueENS0_9__promoteIS2_S3_vEEE4type4typeES2_S3_
	ldr	w1, [sp, #20]                   ; 4-byte Folded Reload
	fmov	d1, d0
	ldr	d0, [sp, #8]                    ; 8-byte Folded Reload
	fdiv	d0, d0, d1
	str	d0, [sp, #32]                   ; 8-byte Folded Spill
	ldr	w8, [sp, #160]
	ldur	w9, [x29, #-88]
	subs	w8, w8, w9
	ldur	w9, [x29, #-64]
	subs	w0, w8, w9
	bl	__Z3powB6v15006IiiENSt3__19enable_ifIXaasr3std13is_arithmeticIT_EE5valuesr3std13is_arithmeticIT0_EE5valueENS0_9__promoteIS2_S3_vEEE4type4typeES2_S3_
	ldr	w1, [sp, #20]                   ; 4-byte Folded Reload
	str	d0, [sp, #24]                   ; 8-byte Folded Spill
	ldur	w0, [x29, #-64]
	bl	__Z3powB6v15006IiiENSt3__19enable_ifIXaasr3std13is_arithmeticIT_EE5valuesr3std13is_arithmeticIT0_EE5valueENS0_9__promoteIS2_S3_vEEE4type4typeES2_S3_
	ldr	d1, [sp, #24]                   ; 8-byte Folded Reload
	fmov	d2, d0
	ldr	d0, [sp, #32]                   ; 8-byte Folded Reload
	fdiv	d1, d1, d2
	fadd	d0, d0, d1
	fcvt	s0, d0
	str	s0, [sp, #148]
	ldr	s0, [sp, #148]
	ldur	s2, [x29, #-80]
	fmov	s1, #1.00000000
	fadd	s1, s1, s2
	fcmp	s0, s1
	cset	w8, hi
	tbnz	w8, #0, LBB70_43
	b	LBB70_41
LBB70_41:                               ;   in Loop: Header=BB70_39 Depth=2
	ldr	s0, [sp, #148]
	ldur	s2, [x29, #-80]
	fmov	s1, #1.00000000
	fsub	s1, s1, s2
	fcmp	s0, s1
	cset	w8, lt
	tbnz	w8, #0, LBB70_43
	b	LBB70_42
LBB70_42:                               ;   in Loop: Header=BB70_39 Depth=2
	ldr	x9, [sp, #136]                  ; 8-byte Folded Reload
	ldr	x10, [x9, #96]
	ldur	w8, [x29, #-148]
	ldr	w9, [x9, #52]
	mul	w8, w8, w9
	ldr	w9, [sp, #160]
	add	w8, w8, w9
	mov	w9, #6
	smaddl	x9, w8, w9, x10
	ldur	w8, [x29, #-40]
	str	w8, [x9]
	ldurh	w8, [x29, #-36]
	strh	w8, [x9, #4]
	b	LBB70_43
LBB70_43:                               ;   in Loop: Header=BB70_39 Depth=2
	b	LBB70_44
LBB70_44:                               ;   in Loop: Header=BB70_39 Depth=2
	ldr	w8, [sp, #160]
	add	w8, w8, #1
	str	w8, [sp, #160]
	b	LBB70_39
LBB70_45:                               ;   in Loop: Header=BB70_37 Depth=1
	b	LBB70_46
LBB70_46:                               ;   in Loop: Header=BB70_37 Depth=1
	ldur	w8, [x29, #-148]
	add	w8, w8, #1
	stur	w8, [x29, #-148]
	b	LBB70_37
LBB70_47:
	b	LBB70_48
LBB70_48:
	b	LBB70_49
LBB70_49:
	ldr	x8, [sp, #136]                  ; 8-byte Folded Reload
	ldrb	w8, [x8, #104]
	tbz	w8, #0, LBB70_51
	b	LBB70_50
LBB70_50:
	ldr	x0, [sp, #136]                  ; 8-byte Folded Reload
	bl	__ZN3map6Mapper8setStateEv
	b	LBB70_51
LBB70_51:
	ldp	x29, x30, [sp, #320]            ; 16-byte Folded Reload
	ldp	x28, x27, [sp, #304]            ; 16-byte Folded Reload
	add	sp, sp, #336
	ret
	.cfi_endproc
	.p2align	2
lJTI70_0:
	.long	LBB70_11-Ltmp228
	.long	LBB70_6-Ltmp228
	.long	LBB70_7-Ltmp228
	.long	LBB70_8-Ltmp228
	.long	LBB70_9-Ltmp228
	.long	LBB70_10-Ltmp228
                                        ; -- End function
	.globl	__ZNK3map3clr3RGB8invertedEv    ; -- Begin function _ZNK3map3clr3RGB8invertedEv
	.weak_definition	__ZNK3map3clr3RGB8invertedEv
	.p2align	2
__ZNK3map3clr3RGB8invertedEv:           ; @_ZNK3map3clr3RGB8invertedEv
	.cfi_startproc
; %bb.0:
	sub	sp, sp, #48
	.cfi_def_cfa_offset 48
	stp	x29, x30, [sp, #32]             ; 16-byte Folded Spill
	add	x29, sp, #32
	.cfi_def_cfa w29, 16
	.cfi_offset w30, -8
	.cfi_offset w29, -16
	str	x0, [sp, #16]
	ldr	x9, [sp, #16]
	ldrh	w10, [x9]
	mov	w8, #255
	subs	w1, w8, w10
	ldrh	w10, [x9, #2]
	subs	w2, w8, w10
	ldrh	w9, [x9, #4]
	subs	w3, w8, w9
	sub	x0, x29, #6
	bl	__ZN3map3clr3RGBC1Eiii
	ldur	w8, [x29, #-6]
	str	w8, [sp, #8]
	ldurh	w8, [x29, #-2]
	strh	w8, [sp, #12]
	ldr	w8, [sp, #8]
                                        ; kill: def $x8 killed $w8
	ldrh	w10, [sp, #12]
                                        ; implicit-def: $x9
	mov	x9, x10
	orr	x0, x8, x9, lsl #32
	ldp	x29, x30, [sp, #32]             ; 16-byte Folded Reload
	add	sp, sp, #48
	ret
	.cfi_endproc
                                        ; -- End function
	.private_extern	__Z3powB6v15006IiiENSt3__19enable_ifIXaasr3std13is_arithmeticIT_EE5valuesr3std13is_arithmeticIT0_EE5valueENS0_9__promoteIS2_S3_vEEE4type4typeES2_S3_ ; -- Begin function _Z3powB6v15006IiiENSt3__19enable_ifIXaasr3std13is_arithmeticIT_EE5valuesr3std13is_arithmeticIT0_EE5valueENS0_9__promoteIS2_S3_vEEE4type4typeES2_S3_
	.globl	__Z3powB6v15006IiiENSt3__19enable_ifIXaasr3std13is_arithmeticIT_EE5valuesr3std13is_arithmeticIT0_EE5valueENS0_9__promoteIS2_S3_vEEE4type4typeES2_S3_
	.weak_definition	__Z3powB6v15006IiiENSt3__19enable_ifIXaasr3std13is_arithmeticIT_EE5valuesr3std13is_arithmeticIT0_EE5valueENS0_9__promoteIS2_S3_vEEE4type4typeES2_S3_
	.p2align	2
__Z3powB6v15006IiiENSt3__19enable_ifIXaasr3std13is_arithmeticIT_EE5valuesr3std13is_arithmeticIT0_EE5valueENS0_9__promoteIS2_S3_vEEE4type4typeES2_S3_: ; @_Z3powB6v15006IiiENSt3__19enable_ifIXaasr3std13is_arithmeticIT_EE5valuesr3std13is_arithmeticIT0_EE5valueENS0_9__promoteIS2_S3_vEEE4type4typeES2_S3_
	.cfi_startproc
; %bb.0:
	sub	sp, sp, #32
	.cfi_def_cfa_offset 32
	stp	x29, x30, [sp, #16]             ; 16-byte Folded Spill
	add	x29, sp, #16
	.cfi_def_cfa w29, 16
	.cfi_offset w30, -8
	.cfi_offset w29, -16
	stur	w0, [x29, #-4]
	str	w1, [sp, #8]
	ldur	s1, [x29, #-4]
                                        ; implicit-def: $d0
	fmov	s0, s1
	sshll.2d	v0, v0, #0
                                        ; kill: def $d0 killed $d0 killed $q0
	scvtf	d0, d0
	ldr	s2, [sp, #8]
                                        ; implicit-def: $d1
	fmov	s1, s2
	sshll.2d	v1, v1, #0
                                        ; kill: def $d1 killed $d1 killed $q1
	scvtf	d1, d1
	bl	_pow
	ldp	x29, x30, [sp, #16]             ; 16-byte Folded Reload
	add	sp, sp, #32
	ret
	.cfi_endproc
                                        ; -- End function
	.private_extern	__ZNSt3__13maxB6v15006IiEERKT_S3_S3_ ; -- Begin function _ZNSt3__13maxB6v15006IiEERKT_S3_S3_
	.globl	__ZNSt3__13maxB6v15006IiEERKT_S3_S3_
	.weak_definition	__ZNSt3__13maxB6v15006IiEERKT_S3_S3_
	.p2align	2
__ZNSt3__13maxB6v15006IiEERKT_S3_S3_:   ; @_ZNSt3__13maxB6v15006IiEERKT_S3_S3_
	.cfi_startproc
; %bb.0:
	sub	sp, sp, #48
	.cfi_def_cfa_offset 48
	stp	x29, x30, [sp, #32]             ; 16-byte Folded Spill
	add	x29, sp, #32
	.cfi_def_cfa w29, 16
	.cfi_offset w30, -8
	.cfi_offset w29, -16
	stur	x0, [x29, #-8]
	str	x1, [sp, #16]
	ldur	x0, [x29, #-8]
	ldr	x1, [sp, #16]
	bl	__ZNSt3__13maxB6v15006IiNS_6__lessIiiEEEERKT_S5_S5_T0_
	ldp	x29, x30, [sp, #32]             ; 16-byte Folded Reload
	add	sp, sp, #48
	ret
	.cfi_endproc
                                        ; -- End function
	.private_extern	__ZNSt3__13minB6v15006IiEERKT_S3_S3_ ; -- Begin function _ZNSt3__13minB6v15006IiEERKT_S3_S3_
	.globl	__ZNSt3__13minB6v15006IiEERKT_S3_S3_
	.weak_definition	__ZNSt3__13minB6v15006IiEERKT_S3_S3_
	.p2align	2
__ZNSt3__13minB6v15006IiEERKT_S3_S3_:   ; @_ZNSt3__13minB6v15006IiEERKT_S3_S3_
	.cfi_startproc
; %bb.0:
	sub	sp, sp, #48
	.cfi_def_cfa_offset 48
	stp	x29, x30, [sp, #32]             ; 16-byte Folded Spill
	add	x29, sp, #32
	.cfi_def_cfa w29, 16
	.cfi_offset w30, -8
	.cfi_offset w29, -16
	stur	x0, [x29, #-8]
	str	x1, [sp, #16]
	ldur	x0, [x29, #-8]
	ldr	x1, [sp, #16]
	bl	__ZNSt3__13minB6v15006IiNS_6__lessIiiEEEERKT_S5_S5_T0_
	ldp	x29, x30, [sp, #32]             ; 16-byte Folded Reload
	add	sp, sp, #48
	ret
	.cfi_endproc
                                        ; -- End function
	.globl	__ZN3map6Mapper4drawEPKNS_6shapes5ShapeE ; -- Begin function _ZN3map6Mapper4drawEPKNS_6shapes5ShapeE
	.p2align	2
__ZN3map6Mapper4drawEPKNS_6shapes5ShapeE: ; @_ZN3map6Mapper4drawEPKNS_6shapes5ShapeE
	.cfi_startproc
; %bb.0:
	sub	sp, sp, #32
	.cfi_def_cfa_offset 32
	stp	x29, x30, [sp, #16]             ; 16-byte Folded Spill
	add	x29, sp, #16
	.cfi_def_cfa w29, 16
	.cfi_offset w30, -8
	.cfi_offset w29, -16
	str	x0, [sp, #8]
	str	x1, [sp]
	ldr	x1, [sp, #8]
	ldr	x0, [sp]
	ldr	x8, [x0]
	ldr	x8, [x8, #48]
	blr	x8
	ldp	x29, x30, [sp, #16]             ; 16-byte Folded Reload
	add	sp, sp, #32
	ret
	.cfi_endproc
                                        ; -- End function
	.globl	__ZN3map6Mapper11bezierCurveENSt3__16vectorINS_5PointENS1_9allocatorIS3_EEEEfNS_3clr3RGBEb ; -- Begin function _ZN3map6Mapper11bezierCurveENSt3__16vectorINS_5PointENS1_9allocatorIS3_EEEEfNS_3clr3RGBEb
	.p2align	2
__ZN3map6Mapper11bezierCurveENSt3__16vectorINS_5PointENS1_9allocatorIS3_EEEEfNS_3clr3RGBEb: ; @_ZN3map6Mapper11bezierCurveENSt3__16vectorINS_5PointENS1_9allocatorIS3_EEEEfNS_3clr3RGBEb
Lfunc_begin10:
	.cfi_startproc
	.cfi_personality 155, ___gxx_personality_v0
	.cfi_lsda 16, Lexception10
; %bb.0:
	stp	x28, x27, [sp, #-32]!           ; 16-byte Folded Spill
	.cfi_def_cfa_offset 32
	stp	x29, x30, [sp, #16]             ; 16-byte Folded Spill
	add	x29, sp, #16
	.cfi_def_cfa w29, 16
	.cfi_offset w30, -8
	.cfi_offset w29, -16
	.cfi_offset w27, -24
	.cfi_offset w28, -32
	sub	sp, sp, #560
	mov	x8, x0
	mov	x0, x1
	str	x0, [sp, #128]                  ; 8-byte Folded Spill
	adrp	x9, ___stack_chk_guard@GOTPAGE
	ldr	x9, [x9, ___stack_chk_guard@GOTPAGEOFF]
	ldr	x9, [x9]
	stur	x9, [x29, #-24]
	stur	x2, [x29, #-64]
	ldur	w9, [x29, #-64]
	stur	w9, [x29, #-56]
	ldurh	w9, [x29, #-60]
	sturh	w9, [x29, #-52]
	stur	x8, [x29, #-72]
	stur	s0, [x29, #-76]
	mov	w8, #1
	and	w8, w3, w8
	sturb	w8, [x29, #-77]
	ldur	x8, [x29, #-72]
	str	x8, [sp, #136]                  ; 8-byte Folded Spill
	bl	__ZNKSt3__16vectorIN3map5PointENS_9allocatorIS2_EEE4sizeB6v15006Ev
	subs	x8, x0, #2
	cset	w8, hs
	tbnz	w8, #0, LBB76_2
	b	LBB76_1
LBB76_1:
	adrp	x0, l___func__._ZN3map6Mapper11bezierCurveENSt3__16vectorINS_5PointENS1_9allocatorIS3_EEEEfNS_3clr3RGBEb@PAGE
	add	x0, x0, l___func__._ZN3map6Mapper11bezierCurveENSt3__16vectorINS_5PointENS1_9allocatorIS3_EEEEfNS_3clr3RGBEb@PAGEOFF
	adrp	x1, l_.str.3@PAGE
	add	x1, x1, l_.str.3@PAGEOFF
	mov	w2, #605
	adrp	x3, l_.str.13@PAGE
	add	x3, x3, l_.str.13@PAGEOFF
	bl	___assert_rtn
LBB76_2:
	b	LBB76_3
LBB76_3:
	ldr	x0, [sp, #128]                  ; 8-byte Folded Reload
	bl	__ZNKSt3__16vectorIN3map5PointENS_9allocatorIS2_EEE4sizeB6v15006Ev
	mov	x8, x0
	stur	w8, [x29, #-84]
	sub	x0, x29, #112
	bl	__ZN3map5PointC1Ev
	ldr	x0, [sp, #128]                  ; 8-byte Folded Reload
	mov	x1, #0
	bl	__ZNSt3__16vectorIN3map5PointENS_9allocatorIS2_EEEixB6v15006Em
	ldr	x8, [sp, #136]                  ; 8-byte Folded Reload
	ldr	q0, [x0]
	stur	q0, [x29, #-128]
	ldrb	w9, [x8, #104]
	and	w9, w9, #0x1
	sturb	w9, [x29, #-129]
	strb	wzr, [x8, #104]
	movi	d0, #0000000000000000
	stur	s0, [x29, #-136]
	b	LBB76_4
LBB76_4:                                ; =>This Loop Header: Depth=1
                                        ;     Child Loop BB76_8 Depth 2
                                        ;     Child Loop BB76_10 Depth 2
                                        ;       Child Loop BB76_22 Depth 3
	ldur	s0, [x29, #-136]
	fmov	s1, #1.00000000
	fcmp	s0, s1
	cset	w8, hi
	tbnz	w8, #0, LBB76_37
	b	LBB76_5
LBB76_5:                                ;   in Loop: Header=BB76_4 Depth=1
	ldr	x1, [sp, #128]                  ; 8-byte Folded Reload
	sub	x0, x29, #48
	mov	x8, x0
	stur	x8, [x29, #-184]
Ltmp229:
	bl	__ZNSt3__16vectorIN3map5PointENS_9allocatorIS2_EEEC1ERKS5_
Ltmp230:
	b	LBB76_6
LBB76_6:                                ;   in Loop: Header=BB76_4 Depth=1
	sub	x8, x29, #48
	stur	x8, [x29, #-176]
	mov	x8, #1
	stur	x8, [x29, #-168]
	ldur	x1, [x29, #-176]
	ldur	x2, [x29, #-168]
Ltmp232:
	sub	x0, x29, #160
	bl	__ZNSt3__16vectorINS0_IN3map5PointENS_9allocatorIS2_EEEENS3_IS5_EEEC1B6v15006ESt16initializer_listIS5_E
Ltmp233:
	b	LBB76_7
LBB76_7:                                ;   in Loop: Header=BB76_4 Depth=1
	sub	x8, x29, #48
	add	x8, x8, #24
	str	x8, [sp, #120]                  ; 8-byte Folded Spill
	b	LBB76_8
LBB76_8:                                ;   Parent Loop BB76_4 Depth=1
                                        ; =>  This Inner Loop Header: Depth=2
	ldr	x8, [sp, #120]                  ; 8-byte Folded Reload
	subs	x0, x8, #24
	str	x0, [sp, #112]                  ; 8-byte Folded Spill
	bl	__ZNSt3__16vectorIN3map5PointENS_9allocatorIS2_EEED1B6v15006Ev
	ldr	x9, [sp, #112]                  ; 8-byte Folded Reload
	sub	x8, x29, #48
	subs	x8, x9, x8
	cset	w8, ne
	str	x9, [sp, #120]                  ; 8-byte Folded Spill
	tbnz	w8, #0, LBB76_8
	b	LBB76_9
LBB76_9:                                ;   in Loop: Header=BB76_4 Depth=1
	mov	w8, #1
	stur	w8, [x29, #-200]
	b	LBB76_10
LBB76_10:                               ;   Parent Loop BB76_4 Depth=1
                                        ; =>  This Loop Header: Depth=2
                                        ;       Child Loop BB76_22 Depth 3
	ldur	w8, [x29, #-200]
	ldur	w9, [x29, #-84]
	subs	w8, w8, w9
	cset	w8, ge
	tbnz	w8, #0, LBB76_32
	b	LBB76_11
LBB76_11:                               ;   in Loop: Header=BB76_10 Depth=2
	ldur	w8, [x29, #-84]
	add	w8, w8, #1
	ldur	w9, [x29, #-200]
	subs	w8, w8, w9
	subs	w8, w8, #1
	cset	w8, le
	tbnz	w8, #0, LBB76_21
	b	LBB76_12
LBB76_12:                               ;   in Loop: Header=BB76_10 Depth=2
	sub	x0, x29, #224
	str	x0, [sp, #104]                  ; 8-byte Folded Spill
	bl	__ZNSt3__16vectorIN3map5PointENS_9allocatorIS2_EEEC1B6v15006Ev
	ldr	x1, [sp, #104]                  ; 8-byte Folded Reload
Ltmp239:
	sub	x0, x29, #160
	bl	__ZNSt3__16vectorINS0_IN3map5PointENS_9allocatorIS2_EEEENS3_IS5_EEE9push_backB6v15006EOS5_
Ltmp240:
	b	LBB76_13
LBB76_13:                               ;   in Loop: Header=BB76_10 Depth=2
	sub	x0, x29, #224
	bl	__ZNSt3__16vectorIN3map5PointENS_9allocatorIS2_EEED1B6v15006Ev
	b	LBB76_21
LBB76_14:
Ltmp231:
	mov	x8, x1
	stur	x0, [x29, #-192]
	stur	w8, [x29, #-196]
	ldur	x9, [x29, #-184]
	sub	x8, x29, #48
	subs	x8, x8, x9
	cset	w8, eq
	str	x9, [sp, #96]                   ; 8-byte Folded Spill
	tbnz	w8, #0, LBB76_16
	b	LBB76_15
LBB76_15:                               ; =>This Inner Loop Header: Depth=1
	ldr	x8, [sp, #96]                   ; 8-byte Folded Reload
	subs	x0, x8, #24
	str	x0, [sp, #88]                   ; 8-byte Folded Spill
	bl	__ZNSt3__16vectorIN3map5PointENS_9allocatorIS2_EEED1B6v15006Ev
	ldr	x9, [sp, #88]                   ; 8-byte Folded Reload
	sub	x8, x29, #48
	subs	x8, x9, x8
	cset	w8, ne
	str	x9, [sp, #96]                   ; 8-byte Folded Spill
	tbnz	w8, #0, LBB76_15
	b	LBB76_16
LBB76_16:
	b	LBB76_42
LBB76_17:
Ltmp234:
	mov	x8, x1
	stur	x0, [x29, #-192]
	stur	w8, [x29, #-196]
	sub	x8, x29, #48
	add	x8, x8, #24
	str	x8, [sp, #80]                   ; 8-byte Folded Spill
	b	LBB76_18
LBB76_18:                               ; =>This Inner Loop Header: Depth=1
	ldr	x8, [sp, #80]                   ; 8-byte Folded Reload
	subs	x0, x8, #24
	str	x0, [sp, #72]                   ; 8-byte Folded Spill
	bl	__ZNSt3__16vectorIN3map5PointENS_9allocatorIS2_EEED1B6v15006Ev
	ldr	x9, [sp, #72]                   ; 8-byte Folded Reload
	sub	x8, x29, #48
	subs	x8, x9, x8
	cset	w8, ne
	str	x9, [sp, #80]                   ; 8-byte Folded Spill
	tbnz	w8, #0, LBB76_18
	b	LBB76_19
LBB76_19:
	b	LBB76_42
LBB76_20:
Ltmp241:
	mov	x8, x1
	stur	x0, [x29, #-192]
	stur	w8, [x29, #-196]
	sub	x0, x29, #224
	bl	__ZNSt3__16vectorIN3map5PointENS_9allocatorIS2_EEED1B6v15006Ev
	b	LBB76_36
LBB76_21:                               ;   in Loop: Header=BB76_10 Depth=2
	mov	w8, #1
	stur	w8, [x29, #-228]
	b	LBB76_22
LBB76_22:                               ;   Parent Loop BB76_4 Depth=1
                                        ;     Parent Loop BB76_10 Depth=2
                                        ; =>    This Inner Loop Header: Depth=3
	ldur	w8, [x29, #-228]
	ldur	w9, [x29, #-84]
	add	w9, w9, #1
	ldur	w10, [x29, #-200]
	subs	w9, w9, w10
	subs	w8, w8, w9
	cset	w8, ge
	tbnz	w8, #0, LBB76_30
	b	LBB76_23
LBB76_23:                               ;   in Loop: Header=BB76_22 Depth=3
	ldur	w8, [x29, #-200]
	subs	w9, w8, #1
                                        ; implicit-def: $x8
	mov	x8, x9
	sxtw	x1, w8
	sub	x0, x29, #160
	str	x0, [sp, #64]                   ; 8-byte Folded Spill
	bl	__ZNSt3__16vectorINS0_IN3map5PointENS_9allocatorIS2_EEEENS3_IS5_EEEixB6v15006Em
	ldur	w8, [x29, #-228]
	subs	w9, w8, #1
                                        ; implicit-def: $x8
	mov	x8, x9
	sxtw	x1, w8
	bl	__ZNSt3__16vectorIN3map5PointENS_9allocatorIS2_EEEixB6v15006Em
	mov	x8, x0
	ldr	x0, [sp, #64]                   ; 8-byte Folded Reload
	ldr	q0, [x8]
	stur	q0, [x29, #-256]
	ldur	w8, [x29, #-200]
	subs	w9, w8, #1
                                        ; implicit-def: $x8
	mov	x8, x9
	sxtw	x1, w8
	bl	__ZNSt3__16vectorINS0_IN3map5PointENS_9allocatorIS2_EEEENS3_IS5_EEEixB6v15006Em
	ldursw	x1, [x29, #-228]
	bl	__ZNSt3__16vectorIN3map5PointENS_9allocatorIS2_EEEixB6v15006Em
	ldr	q0, [x0]
	str	q0, [sp, #304]
Ltmp242:
	add	x0, sp, #298
	mov	w1, #200
	mov	w2, #150
	mov	w3, #0
	bl	__ZN3map3clr3RGBC1Eiii
Ltmp243:
	b	LBB76_24
LBB76_24:                               ;   in Loop: Header=BB76_22 Depth=3
	ldr	x0, [sp, #136]                  ; 8-byte Folded Reload
	ldur	d0, [x29, #-256]
	ldur	d1, [x29, #-248]
	ldr	d2, [sp, #304]
	ldr	d3, [sp, #312]
	add	x8, sp, #43
	ldur	w8, [x8, #255]
	str	w8, [sp, #288]
	ldrh	w8, [sp, #302]
	strh	w8, [sp, #292]
	ldr	x1, [sp, #288]
Ltmp244:
	mov	w2, #0
	bl	__ZN3map6Mapper8drawLineENS_5PointES1_NS_3clr3RGBEi
Ltmp245:
	b	LBB76_25
LBB76_25:                               ;   in Loop: Header=BB76_22 Depth=3
	ldursw	x1, [x29, #-200]
	sub	x0, x29, #160
	str	x0, [sp, #40]                   ; 8-byte Folded Spill
	bl	__ZNSt3__16vectorINS0_IN3map5PointENS_9allocatorIS2_EEEENS3_IS5_EEEixB6v15006Em
	mov	x1, x0
	ldr	x0, [sp, #40]                   ; 8-byte Folded Reload
	str	x1, [sp, #32]                   ; 8-byte Folded Spill
	ldur	w8, [x29, #-200]
	subs	w9, w8, #1
                                        ; implicit-def: $x8
	mov	x8, x9
	sxtw	x1, w8
	bl	__ZNSt3__16vectorINS0_IN3map5PointENS_9allocatorIS2_EEEENS3_IS5_EEEixB6v15006Em
	ldur	w8, [x29, #-228]
	subs	w9, w8, #1
                                        ; implicit-def: $x8
	mov	x8, x9
	sxtw	x1, w8
	bl	__ZNSt3__16vectorIN3map5PointENS_9allocatorIS2_EEEixB6v15006Em
	mov	x8, x0
	ldr	x0, [sp, #40]                   ; 8-byte Folded Reload
	ldr	q0, [x8]
	str	q0, [sp, #256]
	ldur	w8, [x29, #-200]
	subs	w9, w8, #1
                                        ; implicit-def: $x8
	mov	x8, x9
	sxtw	x1, w8
	bl	__ZNSt3__16vectorINS0_IN3map5PointENS_9allocatorIS2_EEEENS3_IS5_EEEixB6v15006Em
	ldursw	x1, [x29, #-228]
	bl	__ZNSt3__16vectorIN3map5PointENS_9allocatorIS2_EEEixB6v15006Em
	ldr	q0, [x0]
	str	q0, [sp, #240]
	ldur	s4, [x29, #-136]
	ldr	d0, [sp, #256]
	ldr	d1, [sp, #264]
	ldr	d2, [sp, #240]
	ldr	d3, [sp, #248]
Ltmp246:
	bl	__Z4lerpN3map5PointES0_f
	str	d0, [sp, #48]                   ; 8-byte Folded Spill
	str	d1, [sp, #56]                   ; 8-byte Folded Spill
Ltmp247:
	b	LBB76_26
LBB76_26:                               ;   in Loop: Header=BB76_22 Depth=3
	ldr	x0, [sp, #32]                   ; 8-byte Folded Reload
	ldr	d0, [sp, #56]                   ; 8-byte Folded Reload
	ldr	d1, [sp, #48]                   ; 8-byte Folded Reload
	add	x1, sp, #272
	str	d1, [sp, #272]
	str	d0, [sp, #280]
Ltmp248:
	bl	__ZNSt3__16vectorIN3map5PointENS_9allocatorIS2_EEE9push_backB6v15006EOS2_
Ltmp249:
	b	LBB76_27
LBB76_27:                               ;   in Loop: Header=BB76_22 Depth=3
	b	LBB76_28
LBB76_28:                               ;   in Loop: Header=BB76_22 Depth=3
	ldur	w8, [x29, #-228]
	add	w8, w8, #1
	stur	w8, [x29, #-228]
	b	LBB76_22
LBB76_29:
Ltmp250:
	mov	x8, x1
	stur	x0, [x29, #-192]
	stur	w8, [x29, #-196]
	b	LBB76_36
LBB76_30:                               ;   in Loop: Header=BB76_10 Depth=2
	b	LBB76_31
LBB76_31:                               ;   in Loop: Header=BB76_10 Depth=2
	ldur	w8, [x29, #-200]
	add	w8, w8, #1
	stur	w8, [x29, #-200]
	b	LBB76_10
LBB76_32:                               ;   in Loop: Header=BB76_4 Depth=1
	sub	x0, x29, #160
	str	x0, [sp, #8]                    ; 8-byte Folded Spill
	bl	__ZNKSt3__16vectorINS0_IN3map5PointENS_9allocatorIS2_EEEENS3_IS5_EEE4sizeB6v15006Ev
	mov	x8, x0
	ldr	x0, [sp, #8]                    ; 8-byte Folded Reload
	subs	x1, x8, #2
	bl	__ZNSt3__16vectorINS0_IN3map5PointENS_9allocatorIS2_EEEENS3_IS5_EEEixB6v15006Em
	mov	x1, #0
	bl	__ZNSt3__16vectorIN3map5PointENS_9allocatorIS2_EEEixB6v15006Em
	mov	x8, x0
	ldr	x0, [sp, #8]                    ; 8-byte Folded Reload
	ldr	q0, [x8]
	str	q0, [sp, #208]
	bl	__ZNKSt3__16vectorINS0_IN3map5PointENS_9allocatorIS2_EEEENS3_IS5_EEE4sizeB6v15006Ev
	mov	x8, x0
	ldr	x0, [sp, #8]                    ; 8-byte Folded Reload
	subs	x1, x8, #2
	bl	__ZNSt3__16vectorINS0_IN3map5PointENS_9allocatorIS2_EEEENS3_IS5_EEEixB6v15006Em
	mov	x1, #1
	bl	__ZNSt3__16vectorIN3map5PointENS_9allocatorIS2_EEEixB6v15006Em
	ldr	q0, [x0]
	str	q0, [sp, #192]
	ldur	s4, [x29, #-136]
	ldr	d0, [sp, #208]
	ldr	d1, [sp, #216]
	ldr	d2, [sp, #192]
	ldr	d3, [sp, #200]
Ltmp235:
	bl	__Z4lerpN3map5PointES0_f
	str	d0, [sp, #16]                   ; 8-byte Folded Spill
	str	d1, [sp, #24]                   ; 8-byte Folded Spill
Ltmp236:
	b	LBB76_33
LBB76_33:                               ;   in Loop: Header=BB76_4 Depth=1
	ldr	x0, [sp, #136]                  ; 8-byte Folded Reload
	ldr	d0, [sp, #24]                   ; 8-byte Folded Reload
	ldr	d1, [sp, #16]                   ; 8-byte Folded Reload
	str	d1, [sp, #224]
	str	d0, [sp, #232]
	ldr	q0, [sp, #224]
	stur	q0, [x29, #-112]
	ldur	q0, [x29, #-128]
	str	q0, [sp, #176]
	ldur	q0, [x29, #-112]
	str	q0, [sp, #160]
	ldur	w8, [x29, #-56]
	str	w8, [sp, #152]
	ldurh	w8, [x29, #-52]
	strh	w8, [sp, #156]
	ldurb	w8, [x29, #-77]
	and	w2, w8, #0x1
	ldr	d0, [sp, #176]
	ldr	d1, [sp, #184]
	ldr	d2, [sp, #160]
	ldr	d3, [sp, #168]
	ldr	w8, [sp, #152]
	str	w8, [sp, #144]
	ldrh	w8, [sp, #156]
	strh	w8, [sp, #148]
	ldr	x1, [sp, #144]
Ltmp237:
	bl	__ZN3map6Mapper8drawLineENS_5PointES1_NS_3clr3RGBEi
Ltmp238:
	b	LBB76_34
LBB76_34:                               ;   in Loop: Header=BB76_4 Depth=1
	ldur	q0, [x29, #-112]
	stur	q0, [x29, #-128]
	sub	x0, x29, #160
	bl	__ZNSt3__16vectorINS0_IN3map5PointENS_9allocatorIS2_EEEENS3_IS5_EEED1B6v15006Ev
	b	LBB76_35
LBB76_35:                               ;   in Loop: Header=BB76_4 Depth=1
	ldur	s1, [x29, #-76]
	ldur	s0, [x29, #-136]
	fadd	s0, s0, s1
	stur	s0, [x29, #-136]
	b	LBB76_4
LBB76_36:
	sub	x0, x29, #160
	bl	__ZNSt3__16vectorINS0_IN3map5PointENS_9allocatorIS2_EEEENS3_IS5_EEED1B6v15006Ev
	b	LBB76_42
LBB76_37:
	ldr	x8, [sp, #136]                  ; 8-byte Folded Reload
	ldurb	w9, [x29, #-129]
	mov	w10, #1
	and	w9, w9, w10
	strb	w9, [x8, #104]
	ldrb	w8, [x8, #104]
	tbz	w8, #0, LBB76_39
	b	LBB76_38
LBB76_38:
	ldr	x0, [sp, #136]                  ; 8-byte Folded Reload
	bl	__ZN3map6Mapper8setStateEv
	b	LBB76_39
LBB76_39:
	ldur	x9, [x29, #-24]
	adrp	x8, ___stack_chk_guard@GOTPAGE
	ldr	x8, [x8, ___stack_chk_guard@GOTPAGEOFF]
	ldr	x8, [x8]
	subs	x8, x8, x9
	cset	w8, eq
	tbnz	w8, #0, LBB76_41
	b	LBB76_40
LBB76_40:
	bl	___stack_chk_fail
LBB76_41:
	add	sp, sp, #560
	ldp	x29, x30, [sp, #16]             ; 16-byte Folded Reload
	ldp	x28, x27, [sp], #32             ; 16-byte Folded Reload
	ret
LBB76_42:
	ldur	x0, [x29, #-192]
	bl	__Unwind_Resume
Lfunc_end10:
	.cfi_endproc
	.section	__TEXT,__gcc_except_tab
	.p2align	2
GCC_except_table76:
Lexception10:
	.byte	255                             ; @LPStart Encoding = omit
	.byte	255                             ; @TType Encoding = omit
	.byte	1                               ; Call site Encoding = uleb128
	.uleb128 Lcst_end10-Lcst_begin10
Lcst_begin10:
	.uleb128 Lfunc_begin10-Lfunc_begin10    ; >> Call Site 1 <<
	.uleb128 Ltmp229-Lfunc_begin10          ;   Call between Lfunc_begin10 and Ltmp229
	.byte	0                               ;     has no landing pad
	.byte	0                               ;   On action: cleanup
	.uleb128 Ltmp229-Lfunc_begin10          ; >> Call Site 2 <<
	.uleb128 Ltmp230-Ltmp229                ;   Call between Ltmp229 and Ltmp230
	.uleb128 Ltmp231-Lfunc_begin10          ;     jumps to Ltmp231
	.byte	0                               ;   On action: cleanup
	.uleb128 Ltmp232-Lfunc_begin10          ; >> Call Site 3 <<
	.uleb128 Ltmp233-Ltmp232                ;   Call between Ltmp232 and Ltmp233
	.uleb128 Ltmp234-Lfunc_begin10          ;     jumps to Ltmp234
	.byte	0                               ;   On action: cleanup
	.uleb128 Ltmp239-Lfunc_begin10          ; >> Call Site 4 <<
	.uleb128 Ltmp240-Ltmp239                ;   Call between Ltmp239 and Ltmp240
	.uleb128 Ltmp241-Lfunc_begin10          ;     jumps to Ltmp241
	.byte	0                               ;   On action: cleanup
	.uleb128 Ltmp242-Lfunc_begin10          ; >> Call Site 5 <<
	.uleb128 Ltmp238-Ltmp242                ;   Call between Ltmp242 and Ltmp238
	.uleb128 Ltmp250-Lfunc_begin10          ;     jumps to Ltmp250
	.byte	0                               ;   On action: cleanup
	.uleb128 Ltmp238-Lfunc_begin10          ; >> Call Site 6 <<
	.uleb128 Lfunc_end10-Ltmp238            ;   Call between Ltmp238 and Lfunc_end10
	.byte	0                               ;     has no landing pad
	.byte	0                               ;   On action: cleanup
Lcst_end10:
	.p2align	2
                                        ; -- End function
	.section	__TEXT,__text,regular,pure_instructions
	.globl	__ZN3map5PointC1Ev              ; -- Begin function _ZN3map5PointC1Ev
	.weak_def_can_be_hidden	__ZN3map5PointC1Ev
	.p2align	2
__ZN3map5PointC1Ev:                     ; @_ZN3map5PointC1Ev
	.cfi_startproc
; %bb.0:
	sub	sp, sp, #32
	.cfi_def_cfa_offset 32
	stp	x29, x30, [sp, #16]             ; 16-byte Folded Spill
	add	x29, sp, #16
	.cfi_def_cfa w29, 16
	.cfi_offset w30, -8
	.cfi_offset w29, -16
	str	x0, [sp, #8]
	ldr	x0, [sp, #8]
	str	x0, [sp]                        ; 8-byte Folded Spill
	bl	__ZN3map5PointC2Ev
	ldr	x0, [sp]                        ; 8-byte Folded Reload
	ldp	x29, x30, [sp, #16]             ; 16-byte Folded Reload
	add	sp, sp, #32
	ret
	.cfi_endproc
                                        ; -- End function
	.globl	__ZNSt3__16vectorIN3map5PointENS_9allocatorIS2_EEEC1ERKS5_ ; -- Begin function _ZNSt3__16vectorIN3map5PointENS_9allocatorIS2_EEEC1ERKS5_
	.weak_def_can_be_hidden	__ZNSt3__16vectorIN3map5PointENS_9allocatorIS2_EEEC1ERKS5_
	.p2align	2
__ZNSt3__16vectorIN3map5PointENS_9allocatorIS2_EEEC1ERKS5_: ; @_ZNSt3__16vectorIN3map5PointENS_9allocatorIS2_EEEC1ERKS5_
	.cfi_startproc
; %bb.0:
	sub	sp, sp, #48
	.cfi_def_cfa_offset 48
	stp	x29, x30, [sp, #32]             ; 16-byte Folded Spill
	add	x29, sp, #32
	.cfi_def_cfa w29, 16
	.cfi_offset w30, -8
	.cfi_offset w29, -16
	stur	x0, [x29, #-8]
	str	x1, [sp, #16]
	ldur	x0, [x29, #-8]
	str	x0, [sp, #8]                    ; 8-byte Folded Spill
	ldr	x1, [sp, #16]
	bl	__ZNSt3__16vectorIN3map5PointENS_9allocatorIS2_EEEC2ERKS5_
	ldr	x0, [sp, #8]                    ; 8-byte Folded Reload
	ldp	x29, x30, [sp, #32]             ; 16-byte Folded Reload
	add	sp, sp, #48
	ret
	.cfi_endproc
                                        ; -- End function
	.private_extern	__ZNSt3__16vectorIN3map5PointENS_9allocatorIS2_EEED1B6v15006Ev ; -- Begin function _ZNSt3__16vectorIN3map5PointENS_9allocatorIS2_EEED1B6v15006Ev
	.globl	__ZNSt3__16vectorIN3map5PointENS_9allocatorIS2_EEED1B6v15006Ev
	.weak_def_can_be_hidden	__ZNSt3__16vectorIN3map5PointENS_9allocatorIS2_EEED1B6v15006Ev
	.p2align	2
__ZNSt3__16vectorIN3map5PointENS_9allocatorIS2_EEED1B6v15006Ev: ; @_ZNSt3__16vectorIN3map5PointENS_9allocatorIS2_EEED1B6v15006Ev
	.cfi_startproc
; %bb.0:
	sub	sp, sp, #32
	.cfi_def_cfa_offset 32
	stp	x29, x30, [sp, #16]             ; 16-byte Folded Spill
	add	x29, sp, #16
	.cfi_def_cfa w29, 16
	.cfi_offset w30, -8
	.cfi_offset w29, -16
	str	x0, [sp, #8]
	ldr	x0, [sp, #8]
	str	x0, [sp]                        ; 8-byte Folded Spill
	bl	__ZNSt3__16vectorIN3map5PointENS_9allocatorIS2_EEED2B6v15006Ev
	ldr	x0, [sp]                        ; 8-byte Folded Reload
	ldp	x29, x30, [sp, #16]             ; 16-byte Folded Reload
	add	sp, sp, #32
	ret
	.cfi_endproc
                                        ; -- End function
	.private_extern	__ZNSt3__16vectorINS0_IN3map5PointENS_9allocatorIS2_EEEENS3_IS5_EEEC1B6v15006ESt16initializer_listIS5_E ; -- Begin function _ZNSt3__16vectorINS0_IN3map5PointENS_9allocatorIS2_EEEENS3_IS5_EEEC1B6v15006ESt16initializer_listIS5_E
	.globl	__ZNSt3__16vectorINS0_IN3map5PointENS_9allocatorIS2_EEEENS3_IS5_EEEC1B6v15006ESt16initializer_listIS5_E
	.weak_def_can_be_hidden	__ZNSt3__16vectorINS0_IN3map5PointENS_9allocatorIS2_EEEENS3_IS5_EEEC1B6v15006ESt16initializer_listIS5_E
	.p2align	2
__ZNSt3__16vectorINS0_IN3map5PointENS_9allocatorIS2_EEEENS3_IS5_EEEC1B6v15006ESt16initializer_listIS5_E: ; @_ZNSt3__16vectorINS0_IN3map5PointENS_9allocatorIS2_EEEENS3_IS5_EEEC1B6v15006ESt16initializer_listIS5_E
	.cfi_startproc
; %bb.0:
	sub	sp, sp, #48
	.cfi_def_cfa_offset 48
	stp	x29, x30, [sp, #32]             ; 16-byte Folded Spill
	add	x29, sp, #32
	.cfi_def_cfa w29, 16
	.cfi_offset w30, -8
	.cfi_offset w29, -16
	str	x1, [sp, #16]
	str	x2, [sp, #24]
	str	x0, [sp, #8]
	ldr	x0, [sp, #8]
	str	x0, [sp]                        ; 8-byte Folded Spill
	ldr	x1, [sp, #16]
	ldr	x2, [sp, #24]
	bl	__ZNSt3__16vectorINS0_IN3map5PointENS_9allocatorIS2_EEEENS3_IS5_EEEC2B6v15006ESt16initializer_listIS5_E
	ldr	x0, [sp]                        ; 8-byte Folded Reload
	ldp	x29, x30, [sp, #32]             ; 16-byte Folded Reload
	add	sp, sp, #48
	ret
	.cfi_endproc
                                        ; -- End function
	.private_extern	__ZNSt3__16vectorINS0_IN3map5PointENS_9allocatorIS2_EEEENS3_IS5_EEE9push_backB6v15006EOS5_ ; -- Begin function _ZNSt3__16vectorINS0_IN3map5PointENS_9allocatorIS2_EEEENS3_IS5_EEE9push_backB6v15006EOS5_
	.globl	__ZNSt3__16vectorINS0_IN3map5PointENS_9allocatorIS2_EEEENS3_IS5_EEE9push_backB6v15006EOS5_
	.weak_definition	__ZNSt3__16vectorINS0_IN3map5PointENS_9allocatorIS2_EEEENS3_IS5_EEE9push_backB6v15006EOS5_
	.p2align	2
__ZNSt3__16vectorINS0_IN3map5PointENS_9allocatorIS2_EEEENS3_IS5_EEE9push_backB6v15006EOS5_: ; @_ZNSt3__16vectorINS0_IN3map5PointENS_9allocatorIS2_EEEENS3_IS5_EEE9push_backB6v15006EOS5_
	.cfi_startproc
; %bb.0:
	sub	sp, sp, #48
	.cfi_def_cfa_offset 48
	stp	x29, x30, [sp, #32]             ; 16-byte Folded Spill
	add	x29, sp, #32
	.cfi_def_cfa w29, 16
	.cfi_offset w30, -8
	.cfi_offset w29, -16
	stur	x0, [x29, #-8]
	str	x1, [sp, #16]
	ldur	x0, [x29, #-8]
	str	x0, [sp]                        ; 8-byte Folded Spill
	ldr	x8, [x0, #8]
	str	x8, [sp, #8]                    ; 8-byte Folded Spill
	bl	__ZNSt3__16vectorINS0_IN3map5PointENS_9allocatorIS2_EEEENS3_IS5_EEE9__end_capB6v15006Ev
	ldr	x8, [sp, #8]                    ; 8-byte Folded Reload
	ldr	x9, [x0]
	subs	x8, x8, x9
	cset	w8, hs
	tbnz	w8, #0, LBB81_2
	b	LBB81_1
LBB81_1:
	ldr	x0, [sp]                        ; 8-byte Folded Reload
	ldr	x1, [sp, #16]
	bl	__ZNSt3__16vectorINS0_IN3map5PointENS_9allocatorIS2_EEEENS3_IS5_EEE22__construct_one_at_endB6v15006IJS5_EEEvDpOT_
	b	LBB81_3
LBB81_2:
	ldr	x0, [sp]                        ; 8-byte Folded Reload
	ldr	x1, [sp, #16]
	bl	__ZNSt3__16vectorINS0_IN3map5PointENS_9allocatorIS2_EEEENS3_IS5_EEE21__push_back_slow_pathIS5_EEvOT_
	b	LBB81_3
LBB81_3:
	ldp	x29, x30, [sp, #32]             ; 16-byte Folded Reload
	add	sp, sp, #48
	ret
	.cfi_endproc
                                        ; -- End function
	.private_extern	__ZNSt3__16vectorIN3map5PointENS_9allocatorIS2_EEEC1B6v15006Ev ; -- Begin function _ZNSt3__16vectorIN3map5PointENS_9allocatorIS2_EEEC1B6v15006Ev
	.globl	__ZNSt3__16vectorIN3map5PointENS_9allocatorIS2_EEEC1B6v15006Ev
	.weak_def_can_be_hidden	__ZNSt3__16vectorIN3map5PointENS_9allocatorIS2_EEEC1B6v15006Ev
	.p2align	2
__ZNSt3__16vectorIN3map5PointENS_9allocatorIS2_EEEC1B6v15006Ev: ; @_ZNSt3__16vectorIN3map5PointENS_9allocatorIS2_EEEC1B6v15006Ev
	.cfi_startproc
; %bb.0:
	sub	sp, sp, #32
	.cfi_def_cfa_offset 32
	stp	x29, x30, [sp, #16]             ; 16-byte Folded Spill
	add	x29, sp, #16
	.cfi_def_cfa w29, 16
	.cfi_offset w30, -8
	.cfi_offset w29, -16
	str	x0, [sp, #8]
	ldr	x0, [sp, #8]
	str	x0, [sp]                        ; 8-byte Folded Spill
	bl	__ZNSt3__16vectorIN3map5PointENS_9allocatorIS2_EEEC2B6v15006Ev
	ldr	x0, [sp]                        ; 8-byte Folded Reload
	ldp	x29, x30, [sp, #16]             ; 16-byte Folded Reload
	add	sp, sp, #32
	ret
	.cfi_endproc
                                        ; -- End function
	.private_extern	__ZNSt3__16vectorINS0_IN3map5PointENS_9allocatorIS2_EEEENS3_IS5_EEEixB6v15006Em ; -- Begin function _ZNSt3__16vectorINS0_IN3map5PointENS_9allocatorIS2_EEEENS3_IS5_EEEixB6v15006Em
	.globl	__ZNSt3__16vectorINS0_IN3map5PointENS_9allocatorIS2_EEEENS3_IS5_EEEixB6v15006Em
	.weak_definition	__ZNSt3__16vectorINS0_IN3map5PointENS_9allocatorIS2_EEEENS3_IS5_EEEixB6v15006Em
	.p2align	2
__ZNSt3__16vectorINS0_IN3map5PointENS_9allocatorIS2_EEEENS3_IS5_EEEixB6v15006Em: ; @_ZNSt3__16vectorINS0_IN3map5PointENS_9allocatorIS2_EEEENS3_IS5_EEEixB6v15006Em
	.cfi_startproc
; %bb.0:
	sub	sp, sp, #16
	.cfi_def_cfa_offset 16
	str	x0, [sp, #8]
	str	x1, [sp]
	ldr	x8, [sp, #8]
	ldr	x8, [x8]
	ldr	x9, [sp]
	mov	x10, #24
	mul	x9, x9, x10
	add	x0, x8, x9
	add	sp, sp, #16
	ret
	.cfi_endproc
                                        ; -- End function
	.private_extern	__ZNSt3__16vectorIN3map5PointENS_9allocatorIS2_EEE9push_backB6v15006EOS2_ ; -- Begin function _ZNSt3__16vectorIN3map5PointENS_9allocatorIS2_EEE9push_backB6v15006EOS2_
	.globl	__ZNSt3__16vectorIN3map5PointENS_9allocatorIS2_EEE9push_backB6v15006EOS2_
	.weak_definition	__ZNSt3__16vectorIN3map5PointENS_9allocatorIS2_EEE9push_backB6v15006EOS2_
	.p2align	2
__ZNSt3__16vectorIN3map5PointENS_9allocatorIS2_EEE9push_backB6v15006EOS2_: ; @_ZNSt3__16vectorIN3map5PointENS_9allocatorIS2_EEE9push_backB6v15006EOS2_
	.cfi_startproc
; %bb.0:
	sub	sp, sp, #48
	.cfi_def_cfa_offset 48
	stp	x29, x30, [sp, #32]             ; 16-byte Folded Spill
	add	x29, sp, #32
	.cfi_def_cfa w29, 16
	.cfi_offset w30, -8
	.cfi_offset w29, -16
	stur	x0, [x29, #-8]
	str	x1, [sp, #16]
	ldur	x0, [x29, #-8]
	str	x0, [sp]                        ; 8-byte Folded Spill
	ldr	x8, [x0, #8]
	str	x8, [sp, #8]                    ; 8-byte Folded Spill
	bl	__ZNSt3__16vectorIN3map5PointENS_9allocatorIS2_EEE9__end_capB6v15006Ev
	ldr	x8, [sp, #8]                    ; 8-byte Folded Reload
	ldr	x9, [x0]
	subs	x8, x8, x9
	cset	w8, hs
	tbnz	w8, #0, LBB84_2
	b	LBB84_1
LBB84_1:
	ldr	x0, [sp]                        ; 8-byte Folded Reload
	ldr	x1, [sp, #16]
	bl	__ZNSt3__16vectorIN3map5PointENS_9allocatorIS2_EEE22__construct_one_at_endB6v15006IJS2_EEEvDpOT_
	b	LBB84_3
LBB84_2:
	ldr	x0, [sp]                        ; 8-byte Folded Reload
	ldr	x1, [sp, #16]
	bl	__ZNSt3__16vectorIN3map5PointENS_9allocatorIS2_EEE21__push_back_slow_pathIS2_EEvOT_
	b	LBB84_3
LBB84_3:
	ldp	x29, x30, [sp, #32]             ; 16-byte Folded Reload
	add	sp, sp, #48
	ret
	.cfi_endproc
                                        ; -- End function
	.private_extern	__ZNKSt3__16vectorINS0_IN3map5PointENS_9allocatorIS2_EEEENS3_IS5_EEE4sizeB6v15006Ev ; -- Begin function _ZNKSt3__16vectorINS0_IN3map5PointENS_9allocatorIS2_EEEENS3_IS5_EEE4sizeB6v15006Ev
	.globl	__ZNKSt3__16vectorINS0_IN3map5PointENS_9allocatorIS2_EEEENS3_IS5_EEE4sizeB6v15006Ev
	.weak_definition	__ZNKSt3__16vectorINS0_IN3map5PointENS_9allocatorIS2_EEEENS3_IS5_EEE4sizeB6v15006Ev
	.p2align	2
__ZNKSt3__16vectorINS0_IN3map5PointENS_9allocatorIS2_EEEENS3_IS5_EEE4sizeB6v15006Ev: ; @_ZNKSt3__16vectorINS0_IN3map5PointENS_9allocatorIS2_EEEENS3_IS5_EEE4sizeB6v15006Ev
	.cfi_startproc
; %bb.0:
	sub	sp, sp, #16
	.cfi_def_cfa_offset 16
	str	x0, [sp, #8]
	ldr	x9, [sp, #8]
	ldr	x8, [x9, #8]
	ldr	x9, [x9]
	subs	x8, x8, x9
	mov	x9, #24
	sdiv	x0, x8, x9
	add	sp, sp, #16
	ret
	.cfi_endproc
                                        ; -- End function
	.private_extern	__ZNSt3__16vectorINS0_IN3map5PointENS_9allocatorIS2_EEEENS3_IS5_EEED1B6v15006Ev ; -- Begin function _ZNSt3__16vectorINS0_IN3map5PointENS_9allocatorIS2_EEEENS3_IS5_EEED1B6v15006Ev
	.globl	__ZNSt3__16vectorINS0_IN3map5PointENS_9allocatorIS2_EEEENS3_IS5_EEED1B6v15006Ev
	.weak_def_can_be_hidden	__ZNSt3__16vectorINS0_IN3map5PointENS_9allocatorIS2_EEEENS3_IS5_EEED1B6v15006Ev
	.p2align	2
__ZNSt3__16vectorINS0_IN3map5PointENS_9allocatorIS2_EEEENS3_IS5_EEED1B6v15006Ev: ; @_ZNSt3__16vectorINS0_IN3map5PointENS_9allocatorIS2_EEEENS3_IS5_EEED1B6v15006Ev
	.cfi_startproc
; %bb.0:
	sub	sp, sp, #32
	.cfi_def_cfa_offset 32
	stp	x29, x30, [sp, #16]             ; 16-byte Folded Spill
	add	x29, sp, #16
	.cfi_def_cfa w29, 16
	.cfi_offset w30, -8
	.cfi_offset w29, -16
	str	x0, [sp, #8]
	ldr	x0, [sp, #8]
	str	x0, [sp]                        ; 8-byte Folded Spill
	bl	__ZNSt3__16vectorINS0_IN3map5PointENS_9allocatorIS2_EEEENS3_IS5_EEED2B6v15006Ev
	ldr	x0, [sp]                        ; 8-byte Folded Reload
	ldp	x29, x30, [sp, #16]             ; 16-byte Folded Reload
	add	sp, sp, #32
	ret
	.cfi_endproc
                                        ; -- End function
	.globl	__ZN3map6Mapper4plotEPFiiENS_3clr3RGBEb ; -- Begin function _ZN3map6Mapper4plotEPFiiENS_3clr3RGBEb
	.p2align	2
__ZN3map6Mapper4plotEPFiiENS_3clr3RGBEb: ; @_ZN3map6Mapper4plotEPFiiENS_3clr3RGBEb
	.cfi_startproc
; %bb.0:
	sub	sp, sp, #80
	.cfi_def_cfa_offset 80
	stp	x29, x30, [sp, #64]             ; 16-byte Folded Spill
	add	x29, sp, #64
	.cfi_def_cfa w29, 16
	.cfi_offset w30, -8
	.cfi_offset w29, -16
	stur	x2, [x29, #-16]
	ldur	w8, [x29, #-16]
	stur	w8, [x29, #-8]
	ldurh	w8, [x29, #-12]
